SF:/home/runner/work/stablebear/stablebear/include/sbear/algorithms/functional/apply_functional.hpp
FN:65,_ZN2sb7l1_normITkNS_7PcfLikeENS_3PcfIffEEEENT_10value_typeERKS3_
FN:68,_ZZN2sb7l1_normITkNS_7PcfLikeENS_3PcfIffEEEENT_10value_typeERKS3_ENKUlRKNS_7SegmentIffEEE_clESA_
FN:77,_ZN2sb7l2_normITkNS_7PcfLikeENS_3PcfIffEEEENT_10value_typeERKS3_
FN:80,_ZZN2sb7l2_normITkNS_7PcfLikeENS_3PcfIffEEEENT_10value_typeERKS3_ENKUlRKNS_7SegmentIffEEE_clESA_
FN:89,_ZN2sb7lp_normITkNS_7PcfLikeENS_3PcfIffEEEENT_10value_typeERKS3_S4_
FN:92,_ZZN2sb7lp_normITkNS_7PcfLikeENS_3PcfIffEEEENT_10value_typeERKS3_S4_ENKUlRKNS_7SegmentIffEEE_clESA_
FN:101,_ZN2sb14linfinity_normITkNS_21PiecewiseFunctionLikeENS_3PcfIffEEEENT_10value_typeERKS3_
FN:65,_ZN2sb7l1_normITkNS_7PcfLikeENS_3PcfIddEEEENT_10value_typeERKS3_
FN:68,_ZZN2sb7l1_normITkNS_7PcfLikeENS_3PcfIddEEEENT_10value_typeERKS3_ENKUlRKNS_7SegmentIddEEE_clESA_
FN:77,_ZN2sb7l2_normITkNS_7PcfLikeENS_3PcfIddEEEENT_10value_typeERKS3_
FN:80,_ZZN2sb7l2_normITkNS_7PcfLikeENS_3PcfIddEEEENT_10value_typeERKS3_ENKUlRKNS_7SegmentIddEEE_clESA_
FN:89,_ZN2sb7lp_normITkNS_7PcfLikeENS_3PcfIddEEEENT_10value_typeERKS3_S4_
FN:92,_ZZN2sb7lp_normITkNS_7PcfLikeENS_3PcfIddEEEENT_10value_typeERKS3_S4_ENKUlRKNS_7SegmentIddEEE_clESA_
FN:101,_ZN2sb14linfinity_normITkNS_21PiecewiseFunctionLikeENS_3PcfIddEEEENT_10value_typeERKS3_
FN:65,_ZN2sb7l1_normITkNS_7PcfLikeENS_3PcfIiiEEEENT_10value_typeERKS3_
FN:68,_ZZN2sb7l1_normITkNS_7PcfLikeENS_3PcfIiiEEEENT_10value_typeERKS3_ENKUlRKNS_7SegmentIiiEEE_clESA_
FN:77,_ZN2sb7l2_normITkNS_7PcfLikeENS_3PcfIiiEEEENT_10value_typeERKS3_
FN:80,_ZZN2sb7l2_normITkNS_7PcfLikeENS_3PcfIiiEEEENT_10value_typeERKS3_ENKUlRKNS_7SegmentIiiEEE_clESA_
FN:89,_ZN2sb7lp_normITkNS_7PcfLikeENS_3PcfIiiEEEENT_10value_typeERKS3_S4_
FN:92,_ZZN2sb7lp_normITkNS_7PcfLikeENS_3PcfIiiEEEENT_10value_typeERKS3_S4_ENKUlRKNS_7SegmentIiiEEE_clESA_
FN:101,_ZN2sb14linfinity_normITkNS_21PiecewiseFunctionLikeENS_3PcfIiiEEEENT_10value_typeERKS3_
FN:65,_ZN2sb7l1_normITkNS_7PcfLikeENS_3PcfIllEEEENT_10value_typeERKS3_
FN:68,_ZZN2sb7l1_normITkNS_7PcfLikeENS_3PcfIllEEEENT_10value_typeERKS3_ENKUlRKNS_7SegmentIllEEE_clESA_
FN:77,_ZN2sb7l2_normITkNS_7PcfLikeENS_3PcfIllEEEENT_10value_typeERKS3_
FN:80,_ZZN2sb7l2_normITkNS_7PcfLikeENS_3PcfIllEEEENT_10value_typeERKS3_ENKUlRKNS_7SegmentIllEEE_clESA_
FN:89,_ZN2sb7lp_normITkNS_7PcfLikeENS_3PcfIllEEEENT_10value_typeERKS3_S4_
FN:92,_ZZN2sb7lp_normITkNS_7PcfLikeENS_3PcfIllEEEENT_10value_typeERKS3_S4_ENKUlRKNS_7SegmentIllEEE_clESA_
FN:101,_ZN2sb14linfinity_normITkNS_21PiecewiseFunctionLikeENS_3PcfIllEEEENT_10value_typeERKS3_
FN:26,py_norms.cpp:_ZN2sb15ApplyFunctionalINS_6TensorINS_3PcfIffEEEENS1_IfEEZN12_GLOBAL__N_115PyNormsBindingsIffE9lpnorm_l1ES4_EUlRKS3_E_EC2ERKS4_RS5_SB_
FN:31,py_norms.cpp:_ZN2sb15ApplyFunctionalINS_6TensorINS_3PcfIffEEEENS1_IfEEZN12_GLOBAL__N_115PyNormsBindingsIffE9lpnorm_l1ES4_EUlRKS3_E_E9run_asyncERNS_8ExecutorE
FN:35,py_norms.cpp:_ZZN2sb15ApplyFunctionalINS_6TensorINS_3PcfIffEEEENS1_IfEEZN12_GLOBAL__N_115PyNormsBindingsIffE9lpnorm_l1ES4_EUlRKS3_E_E9run_asyncERNS_8ExecutorEENKUlRKSt6vectorImSaImEEE_clESJ_
FN:26,py_norms.cpp:_ZN2sb15ApplyFunctionalINS_6TensorINS_3PcfIffEEEENS1_IfEEZN12_GLOBAL__N_115PyNormsBindingsIffE9lpnorm_lpES4_fEUlRKS3_E_EC2ERKS4_RS5_SB_
FN:31,py_norms.cpp:_ZN2sb15ApplyFunctionalINS_6TensorINS_3PcfIffEEEENS1_IfEEZN12_GLOBAL__N_115PyNormsBindingsIffE9lpnorm_lpES4_fEUlRKS3_E_E9run_asyncERNS_8ExecutorE
FN:35,py_norms.cpp:_ZZN2sb15ApplyFunctionalINS_6TensorINS_3PcfIffEEEENS1_IfEEZN12_GLOBAL__N_115PyNormsBindingsIffE9lpnorm_lpES4_fEUlRKS3_E_E9run_asyncERNS_8ExecutorEENKUlRKSt6vectorImSaImEEE_clESJ_
FN:26,py_norms.cpp:_ZN2sb15ApplyFunctionalINS_6TensorINS_3PcfIddEEEENS1_IdEEZN12_GLOBAL__N_115PyNormsBindingsIddE9lpnorm_l1ES4_EUlRKS3_E_EC2ERKS4_RS5_SB_
FN:31,py_norms.cpp:_ZN2sb15ApplyFunctionalINS_6TensorINS_3PcfIddEEEENS1_IdEEZN12_GLOBAL__N_115PyNormsBindingsIddE9lpnorm_l1ES4_EUlRKS3_E_E9run_asyncERNS_8ExecutorE
FN:35,py_norms.cpp:_ZZN2sb15ApplyFunctionalINS_6TensorINS_3PcfIddEEEENS1_IdEEZN12_GLOBAL__N_115PyNormsBindingsIddE9lpnorm_l1ES4_EUlRKS3_E_E9run_asyncERNS_8ExecutorEENKUlRKSt6vectorImSaImEEE_clESJ_
FN:26,py_norms.cpp:_ZN2sb15ApplyFunctionalINS_6TensorINS_3PcfIddEEEENS1_IdEEZN12_GLOBAL__N_115PyNormsBindingsIddE9lpnorm_lpES4_dEUlRKS3_E_EC2ERKS4_RS5_SB_
FN:31,py_norms.cpp:_ZN2sb15ApplyFunctionalINS_6TensorINS_3PcfIddEEEENS1_IdEEZN12_GLOBAL__N_115PyNormsBindingsIddE9lpnorm_lpES4_dEUlRKS3_E_E9run_asyncERNS_8ExecutorE
FN:35,py_norms.cpp:_ZZN2sb15ApplyFunctionalINS_6TensorINS_3PcfIddEEEENS1_IdEEZN12_GLOBAL__N_115PyNormsBindingsIddE9lpnorm_lpES4_dEUlRKS3_E_E9run_asyncERNS_8ExecutorEENKUlRKSt6vectorImSaImEEE_clESJ_
FN:50,test_pcf_algebra_and_norms.cpp:_ZN2sb16apply_functionalIN9__gnu_cxx17__normal_iteratorIPNS_3PcfIffEESt6vectorIS4_SaIS4_EEEENS2_IPfS6_IfSaIfEEEEZN12_GLOBAL__N_165PcfAlgebraAndNormsTest_ApplyFunctionalWithL1NormMultiplePcfs_TestIS4_E8TestBodyEvEUlRKS4_E_EEvT_SK_T0_T1_RNS_8ExecutorE
FN:54,test_pcf_algebra_and_norms.cpp:_ZZN2sb16apply_functionalIN9__gnu_cxx17__normal_iteratorIPNS_3PcfIffEESt6vectorIS4_SaIS4_EEEENS2_IPfS6_IfSaIfEEEEZN12_GLOBAL__N_165PcfAlgebraAndNormsTest_ApplyFunctionalWithL1NormMultiplePcfs_TestIS4_E8TestBodyEvEUlRKS4_E_EEvT_SK_T0_T1_RNS_8ExecutorEENKUlRS4_E_clESP_
FN:50,test_pcf_algebra_and_norms.cpp:_ZN2sb16apply_functionalIN9__gnu_cxx17__normal_iteratorIPNS_3PcfIddEESt6vectorIS4_SaIS4_EEEENS2_IPdS6_IdSaIdEEEEZN12_GLOBAL__N_165PcfAlgebraAndNormsTest_ApplyFunctionalWithL1NormMultiplePcfs_TestIS4_E8TestBodyEvEUlRKS4_E_EEvT_SK_T0_T1_RNS_8ExecutorE
FN:54,test_pcf_algebra_and_norms.cpp:_ZZN2sb16apply_functionalIN9__gnu_cxx17__normal_iteratorIPNS_3PcfIddEESt6vectorIS4_SaIS4_EEEENS2_IPdS6_IdSaIdEEEEZN12_GLOBAL__N_165PcfAlgebraAndNormsTest_ApplyFunctionalWithL1NormMultiplePcfs_TestIS4_E8TestBodyEvEUlRKS4_E_EEvT_SK_T0_T1_RNS_8ExecutorEENKUlRS4_E_clESP_
FNDA:13,_ZN2sb7l1_normITkNS_7PcfLikeENS_3PcfIffEEEENT_10value_typeERKS3_
FNDA:26,_ZZN2sb7l1_normITkNS_7PcfLikeENS_3PcfIffEEEENT_10value_typeERKS3_ENKUlRKNS_7SegmentIffEEE_clESA_
FNDA:1,_ZN2sb7l2_normITkNS_7PcfLikeENS_3PcfIffEEEENT_10value_typeERKS3_
FNDA:3,_ZZN2sb7l2_normITkNS_7PcfLikeENS_3PcfIffEEEENT_10value_typeERKS3_ENKUlRKNS_7SegmentIffEEE_clESA_
FNDA:7,_ZN2sb7lp_normITkNS_7PcfLikeENS_3PcfIffEEEENT_10value_typeERKS3_S4_
FNDA:19,_ZZN2sb7lp_normITkNS_7PcfLikeENS_3PcfIffEEEENT_10value_typeERKS3_S4_ENKUlRKNS_7SegmentIffEEE_clESA_
FNDA:1,_ZN2sb14linfinity_normITkNS_21PiecewiseFunctionLikeENS_3PcfIffEEEENT_10value_typeERKS3_
FNDA:21,_ZN2sb7l1_normITkNS_7PcfLikeENS_3PcfIddEEEENT_10value_typeERKS3_
FNDA:45,_ZZN2sb7l1_normITkNS_7PcfLikeENS_3PcfIddEEEENT_10value_typeERKS3_ENKUlRKNS_7SegmentIddEEE_clESA_
FNDA:1,_ZN2sb7l2_normITkNS_7PcfLikeENS_3PcfIddEEEENT_10value_typeERKS3_
FNDA:3,_ZZN2sb7l2_normITkNS_7PcfLikeENS_3PcfIddEEEENT_10value_typeERKS3_ENKUlRKNS_7SegmentIddEEE_clESA_
FNDA:8,_ZN2sb7lp_normITkNS_7PcfLikeENS_3PcfIddEEEENT_10value_typeERKS3_S4_
FNDA:22,_ZZN2sb7lp_normITkNS_7PcfLikeENS_3PcfIddEEEENT_10value_typeERKS3_S4_ENKUlRKNS_7SegmentIddEEE_clESA_
FNDA:1,_ZN2sb14linfinity_normITkNS_21PiecewiseFunctionLikeENS_3PcfIddEEEENT_10value_typeERKS3_
FNDA:0,_ZN2sb7l1_normITkNS_7PcfLikeENS_3PcfIiiEEEENT_10value_typeERKS3_
FNDA:0,_ZZN2sb7l1_normITkNS_7PcfLikeENS_3PcfIiiEEEENT_10value_typeERKS3_ENKUlRKNS_7SegmentIiiEEE_clESA_
FNDA:0,_ZN2sb7l2_normITkNS_7PcfLikeENS_3PcfIiiEEEENT_10value_typeERKS3_
FNDA:0,_ZZN2sb7l2_normITkNS_7PcfLikeENS_3PcfIiiEEEENT_10value_typeERKS3_ENKUlRKNS_7SegmentIiiEEE_clESA_
FNDA:0,_ZN2sb7lp_normITkNS_7PcfLikeENS_3PcfIiiEEEENT_10value_typeERKS3_S4_
FNDA:0,_ZZN2sb7lp_normITkNS_7PcfLikeENS_3PcfIiiEEEENT_10value_typeERKS3_S4_ENKUlRKNS_7SegmentIiiEEE_clESA_
FNDA:0,_ZN2sb14linfinity_normITkNS_21PiecewiseFunctionLikeENS_3PcfIiiEEEENT_10value_typeERKS3_
FNDA:0,_ZN2sb7l1_normITkNS_7PcfLikeENS_3PcfIllEEEENT_10value_typeERKS3_
FNDA:0,_ZZN2sb7l1_normITkNS_7PcfLikeENS_3PcfIllEEEENT_10value_typeERKS3_ENKUlRKNS_7SegmentIllEEE_clESA_
FNDA:0,_ZN2sb7l2_normITkNS_7PcfLikeENS_3PcfIllEEEENT_10value_typeERKS3_
FNDA:0,_ZZN2sb7l2_normITkNS_7PcfLikeENS_3PcfIllEEEENT_10value_typeERKS3_ENKUlRKNS_7SegmentIllEEE_clESA_
FNDA:0,_ZN2sb7lp_normITkNS_7PcfLikeENS_3PcfIllEEEENT_10value_typeERKS3_S4_
FNDA:0,_ZZN2sb7lp_normITkNS_7PcfLikeENS_3PcfIllEEEENT_10value_typeERKS3_S4_ENKUlRKNS_7SegmentIllEEE_clESA_
FNDA:0,_ZN2sb14linfinity_normITkNS_21PiecewiseFunctionLikeENS_3PcfIllEEEENT_10value_typeERKS3_
FNDA:4,py_norms.cpp:_ZN2sb15ApplyFunctionalINS_6TensorINS_3PcfIffEEEENS1_IfEEZN12_GLOBAL__N_115PyNormsBindingsIffE9lpnorm_l1ES4_EUlRKS3_E_EC2ERKS4_RS5_SB_
FNDA:4,py_norms.cpp:_ZN2sb15ApplyFunctionalINS_6TensorINS_3PcfIffEEEENS1_IfEEZN12_GLOBAL__N_115PyNormsBindingsIffE9lpnorm_l1ES4_EUlRKS3_E_E9run_asyncERNS_8ExecutorE
FNDA:9,py_norms.cpp:_ZZN2sb15ApplyFunctionalINS_6TensorINS_3PcfIffEEEENS1_IfEEZN12_GLOBAL__N_115PyNormsBindingsIffE9lpnorm_l1ES4_EUlRKS3_E_E9run_asyncERNS_8ExecutorEENKUlRKSt6vectorImSaImEEE_clESJ_
FNDA:6,py_norms.cpp:_ZN2sb15ApplyFunctionalINS_6TensorINS_3PcfIffEEEENS1_IfEEZN12_GLOBAL__N_115PyNormsBindingsIffE9lpnorm_lpES4_fEUlRKS3_E_EC2ERKS4_RS5_SB_
FNDA:6,py_norms.cpp:_ZN2sb15ApplyFunctionalINS_6TensorINS_3PcfIffEEEENS1_IfEEZN12_GLOBAL__N_115PyNormsBindingsIffE9lpnorm_lpES4_fEUlRKS3_E_E9run_asyncERNS_8ExecutorE
FNDA:6,py_norms.cpp:_ZZN2sb15ApplyFunctionalINS_6TensorINS_3PcfIffEEEENS1_IfEEZN12_GLOBAL__N_115PyNormsBindingsIffE9lpnorm_lpES4_fEUlRKS3_E_E9run_asyncERNS_8ExecutorEENKUlRKSt6vectorImSaImEEE_clESJ_
FNDA:7,py_norms.cpp:_ZN2sb15ApplyFunctionalINS_6TensorINS_3PcfIddEEEENS1_IdEEZN12_GLOBAL__N_115PyNormsBindingsIddE9lpnorm_l1ES4_EUlRKS3_E_EC2ERKS4_RS5_SB_
FNDA:7,py_norms.cpp:_ZN2sb15ApplyFunctionalINS_6TensorINS_3PcfIddEEEENS1_IdEEZN12_GLOBAL__N_115PyNormsBindingsIddE9lpnorm_l1ES4_EUlRKS3_E_E9run_asyncERNS_8ExecutorE
FNDA:17,py_norms.cpp:_ZZN2sb15ApplyFunctionalINS_6TensorINS_3PcfIddEEEENS1_IdEEZN12_GLOBAL__N_115PyNormsBindingsIddE9lpnorm_l1ES4_EUlRKS3_E_E9run_asyncERNS_8ExecutorEENKUlRKSt6vectorImSaImEEE_clESJ_
FNDA:7,py_norms.cpp:_ZN2sb15ApplyFunctionalINS_6TensorINS_3PcfIddEEEENS1_IdEEZN12_GLOBAL__N_115PyNormsBindingsIddE9lpnorm_lpES4_dEUlRKS3_E_EC2ERKS4_RS5_SB_
FNDA:7,py_norms.cpp:_ZN2sb15ApplyFunctionalINS_6TensorINS_3PcfIddEEEENS1_IdEEZN12_GLOBAL__N_115PyNormsBindingsIddE9lpnorm_lpES4_dEUlRKS3_E_E9run_asyncERNS_8ExecutorE
FNDA:7,py_norms.cpp:_ZZN2sb15ApplyFunctionalINS_6TensorINS_3PcfIddEEEENS1_IdEEZN12_GLOBAL__N_115PyNormsBindingsIddE9lpnorm_lpES4_dEUlRKS3_E_E9run_asyncERNS_8ExecutorEENKUlRKSt6vectorImSaImEEE_clESJ_
FNDA:1,test_pcf_algebra_and_norms.cpp:_ZN2sb16apply_functionalIN9__gnu_cxx17__normal_iteratorIPNS_3PcfIffEESt6vectorIS4_SaIS4_EEEENS2_IPfS6_IfSaIfEEEEZN12_GLOBAL__N_165PcfAlgebraAndNormsTest_ApplyFunctionalWithL1NormMultiplePcfs_TestIS4_E8TestBodyEvEUlRKS4_E_EEvT_SK_T0_T1_RNS_8ExecutorE
FNDA:3,test_pcf_algebra_and_norms.cpp:_ZZN2sb16apply_functionalIN9__gnu_cxx17__normal_iteratorIPNS_3PcfIffEESt6vectorIS4_SaIS4_EEEENS2_IPfS6_IfSaIfEEEEZN12_GLOBAL__N_165PcfAlgebraAndNormsTest_ApplyFunctionalWithL1NormMultiplePcfs_TestIS4_E8TestBodyEvEUlRKS4_E_EEvT_SK_T0_T1_RNS_8ExecutorEENKUlRS4_E_clESP_
FNDA:1,test_pcf_algebra_and_norms.cpp:_ZN2sb16apply_functionalIN9__gnu_cxx17__normal_iteratorIPNS_3PcfIddEESt6vectorIS4_SaIS4_EEEENS2_IPdS6_IdSaIdEEEEZN12_GLOBAL__N_165PcfAlgebraAndNormsTest_ApplyFunctionalWithL1NormMultiplePcfs_TestIS4_E8TestBodyEvEUlRKS4_E_EEvT_SK_T0_T1_RNS_8ExecutorE
FNDA:3,test_pcf_algebra_and_norms.cpp:_ZZN2sb16apply_functionalIN9__gnu_cxx17__normal_iteratorIPNS_3PcfIddEESt6vectorIS4_SaIS4_EEEENS2_IPdS6_IdSaIdEEEEZN12_GLOBAL__N_165PcfAlgebraAndNormsTest_ApplyFunctionalWithL1NormMultiplePcfs_TestIS4_E8TestBodyEvEUlRKS4_E_EEvT_SK_T0_T1_RNS_8ExecutorEENKUlRS4_E_clESP_
FNF:12
FNH:12
DA:26,24
DA:27,24
DA:31,24
DA:32,24
DA:33,24
DA:35,39
DA:36,39
DA:37,39
DA:39,24
DA:40,24
DA:41,24
DA:50,2
DA:51,2
DA:53,2
DA:54,6
DA:55,6
DA:56,6
DA:58,2
DA:59,2
DA:65,34
DA:66,34
DA:68,71
DA:69,71
DA:70,71
DA:72,34
DA:73,34
DA:77,2
DA:78,2
DA:80,6
DA:81,6
DA:82,6
DA:84,2
DA:85,2
DA:89,15
DA:90,15
DA:92,41
DA:93,41
DA:94,41
DA:96,15
DA:97,15
DA:101,2
DA:102,2
DA:103,2
DA:104,2
DA:105,6
DA:106,6
DA:107,6
DA:108,2
DA:109,2
BRDA:104,0,0,6
BRDA:104,0,1,2
BRF:2
BRH:2
LF:64
LH:64
end_of_record
SF:/home/runner/work/stablebear/stablebear/include/sbear/algorithms/functional/iterate_rectangles.hpp
FN:40,_ZN2sb18iterate_rectanglesINS_9TimePointIffEEZNS_7combineINS_3PcfIffEEEET_RKS6_S8_St8functionIFNS6_10value_typeERKNS6_14rectangle_typeEEEEUlRKNS_9RectangleIffEEE_EEvRKSt6vectorIS6_SaIS6_EESP_T0_NS6_9time_typeESR_
FN:26,_ZN2sb26max_time_iterator_prior_toIN9__gnu_cxx17__normal_iteratorIPKNS_9TimePointIffEESt6vectorIS4_SaIS4_EEEEEET_SB_SB_NSt15iterator_traitsISB_E10value_type9time_typeE
FN:29,_ZZN2sb26max_time_iterator_prior_toIN9__gnu_cxx17__normal_iteratorIPKNS_9TimePointIffEESt6vectorIS4_SaIS4_EEEEEET_SB_SB_NSt15iterator_traitsISB_E10value_type9time_typeEENKUlfRS5_E_clEfSG_
FN:40,_ZN2sb18iterate_rectanglesINS_9TimePointIffEEZNS_7combineINS_3PcfIffEEEET_RKS6_S8_St8functionIFNS6_10value_typeERKNS6_14rectangle_typeEEEEUlRKNS_9RectangleIffEEE0_EEvRKSt6vectorIS6_SaIS6_EESP_T0_NS6_9time_typeESR_
FN:40,_ZN2sb18iterate_rectanglesINS_9TimePointIffEEZNS_11AccumulatorINS_3PcfIffEEE13combine_with_ERKSt6vectorIS2_SaIS2_EEEUlRKNS_9RectangleIffEEE_EEvRKS7_IT_SaISH_EESL_T0_NSH_9time_typeESN_
FN:111,_ZN2sb16iterate_segmentsIN9__gnu_cxx17__normal_iteratorIPKNS_9TimePointIffEESt6vectorIS4_SaIS4_EEEEZNS_7l1_normITkNS_7PcfLikeENS_3PcfIffEEEENT_10value_typeERKSE_EUlRKNS_7SegmentIffEEE_EEvSE_SE_NSt15iterator_traitsISE_E10value_type9time_typeESQ_T0_
FN:19,_ZN2sb13infinite_timeINS_3PcfIffEEEENT_9time_typeEv
FN:111,_ZN2sb16iterate_segmentsIN9__gnu_cxx17__normal_iteratorIPKNS_9TimePointIffEESt6vectorIS4_SaIS4_EEEEZNS_7l2_normITkNS_7PcfLikeENS_3PcfIffEEEENT_10value_typeERKSE_EUlRKNS_7SegmentIffEEE_EEvSE_SE_NSt15iterator_traitsISE_E10value_type9time_typeESQ_T0_
FN:111,_ZN2sb16iterate_segmentsIN9__gnu_cxx17__normal_iteratorIPKNS_9TimePointIffEESt6vectorIS4_SaIS4_EEEEZNS_7lp_normITkNS_7PcfLikeENS_3PcfIffEEEENT_10value_typeERKSE_SF_EUlRKNS_7SegmentIffEEE_EEvSE_SE_NSt15iterator_traitsISE_E10value_type9time_typeESQ_T0_
FN:40,py_pcf.cpp:_ZN2sb18iterate_rectanglesINS_9TimePointIffEEZN12_GLOBAL__N_17BackendIffE18iterate_rectanglesERKNS_3PcfIffEES9_ffEUlRKNS_9RectangleIffEEE_EEvRKSt6vectorIT_SaISG_EESK_T0_NSG_9time_typeESM_
FN:40,_ZN2sb18iterate_rectanglesINS_9TimePointIddEEZNS_7combineINS_3PcfIddEEEET_RKS6_S8_St8functionIFNS6_10value_typeERKNS6_14rectangle_typeEEEEUlRKNS_9RectangleIddEEE_EEvRKSt6vectorIS6_SaIS6_EESP_T0_NS6_9time_typeESR_
FN:26,_ZN2sb26max_time_iterator_prior_toIN9__gnu_cxx17__normal_iteratorIPKNS_9TimePointIddEESt6vectorIS4_SaIS4_EEEEEET_SB_SB_NSt15iterator_traitsISB_E10value_type9time_typeE
FN:29,_ZZN2sb26max_time_iterator_prior_toIN9__gnu_cxx17__normal_iteratorIPKNS_9TimePointIddEESt6vectorIS4_SaIS4_EEEEEET_SB_SB_NSt15iterator_traitsISB_E10value_type9time_typeEENKUldRS5_E_clEdSG_
FN:40,_ZN2sb18iterate_rectanglesINS_9TimePointIddEEZNS_7combineINS_3PcfIddEEEET_RKS6_S8_St8functionIFNS6_10value_typeERKNS6_14rectangle_typeEEEEUlRKNS_9RectangleIddEEE0_EEvRKSt6vectorIS6_SaIS6_EESP_T0_NS6_9time_typeESR_
FN:40,_ZN2sb18iterate_rectanglesINS_9TimePointIddEEZNS_11AccumulatorINS_3PcfIddEEE13combine_with_ERKSt6vectorIS2_SaIS2_EEEUlRKNS_9RectangleIddEEE_EEvRKS7_IT_SaISH_EESL_T0_NSH_9time_typeESN_
FN:111,_ZN2sb16iterate_segmentsIN9__gnu_cxx17__normal_iteratorIPKNS_9TimePointIddEESt6vectorIS4_SaIS4_EEEEZNS_7l1_normITkNS_7PcfLikeENS_3PcfIddEEEENT_10value_typeERKSE_EUlRKNS_7SegmentIddEEE_EEvSE_SE_NSt15iterator_traitsISE_E10value_type9time_typeESQ_T0_
FN:19,_ZN2sb13infinite_timeINS_3PcfIddEEEENT_9time_typeEv
FN:111,_ZN2sb16iterate_segmentsIN9__gnu_cxx17__normal_iteratorIPKNS_9TimePointIddEESt6vectorIS4_SaIS4_EEEEZNS_7l2_normITkNS_7PcfLikeENS_3PcfIddEEEENT_10value_typeERKSE_EUlRKNS_7SegmentIddEEE_EEvSE_SE_NSt15iterator_traitsISE_E10value_type9time_typeESQ_T0_
FN:111,_ZN2sb16iterate_segmentsIN9__gnu_cxx17__normal_iteratorIPKNS_9TimePointIddEESt6vectorIS4_SaIS4_EEEEZNS_7lp_normITkNS_7PcfLikeENS_3PcfIddEEEENT_10value_typeERKSE_SF_EUlRKNS_7SegmentIddEEE_EEvSE_SE_NSt15iterator_traitsISE_E10value_type9time_typeESQ_T0_
FN:40,py_pcf.cpp:_ZN2sb18iterate_rectanglesINS_9TimePointIddEEZN12_GLOBAL__N_17BackendIddE18iterate_rectanglesERKNS_3PcfIddEES9_ddEUlRKNS_9RectangleIddEEE_EEvRKSt6vectorIT_SaISG_EESK_T0_NSG_9time_typeESM_
FN:40,_ZN2sb18iterate_rectanglesINS_9TimePointIiiEEZNS_7combineINS_3PcfIiiEEEET_RKS6_S8_St8functionIFNS6_10value_typeERKNS6_14rectangle_typeEEEEUlRKNS_9RectangleIiiEEE_EEvRKSt6vectorIS6_SaIS6_EESP_T0_NS6_9time_typeESR_
FN:26,_ZN2sb26max_time_iterator_prior_toIN9__gnu_cxx17__normal_iteratorIPKNS_9TimePointIiiEESt6vectorIS4_SaIS4_EEEEEET_SB_SB_NSt15iterator_traitsISB_E10value_type9time_typeE
FN:29,_ZZN2sb26max_time_iterator_prior_toIN9__gnu_cxx17__normal_iteratorIPKNS_9TimePointIiiEESt6vectorIS4_SaIS4_EEEEEET_SB_SB_NSt15iterator_traitsISB_E10value_type9time_typeEENKUliRS5_E_clEiSG_
FN:40,_ZN2sb18iterate_rectanglesINS_9TimePointIiiEEZNS_7combineINS_3PcfIiiEEEET_RKS6_S8_St8functionIFNS6_10value_typeERKNS6_14rectangle_typeEEEEUlRKNS_9RectangleIiiEEE0_EEvRKSt6vectorIS6_SaIS6_EESP_T0_NS6_9time_typeESR_
FN:40,_ZN2sb18iterate_rectanglesINS_9TimePointIiiEEZNS_11AccumulatorINS_3PcfIiiEEE13combine_with_ERKSt6vectorIS2_SaIS2_EEEUlRKNS_9RectangleIiiEEE_EEvRKS7_IT_SaISH_EESL_T0_NSH_9time_typeESN_
FN:111,_ZN2sb16iterate_segmentsIN9__gnu_cxx17__normal_iteratorIPKNS_9TimePointIiiEESt6vectorIS4_SaIS4_EEEEZNS_7l1_normITkNS_7PcfLikeENS_3PcfIiiEEEENT_10value_typeERKSE_EUlRKNS_7SegmentIiiEEE_EEvSE_SE_NSt15iterator_traitsISE_E10value_type9time_typeESQ_T0_
FN:19,_ZN2sb13infinite_timeINS_3PcfIiiEEEENT_9time_typeEv
FN:111,_ZN2sb16iterate_segmentsIN9__gnu_cxx17__normal_iteratorIPKNS_9TimePointIiiEESt6vectorIS4_SaIS4_EEEEZNS_7l2_normITkNS_7PcfLikeENS_3PcfIiiEEEENT_10value_typeERKSE_EUlRKNS_7SegmentIiiEEE_EEvSE_SE_NSt15iterator_traitsISE_E10value_type9time_typeESQ_T0_
FN:111,_ZN2sb16iterate_segmentsIN9__gnu_cxx17__normal_iteratorIPKNS_9TimePointIiiEESt6vectorIS4_SaIS4_EEEEZNS_7lp_normITkNS_7PcfLikeENS_3PcfIiiEEEENT_10value_typeERKSE_SF_EUlRKNS_7SegmentIiiEEE_EEvSE_SE_NSt15iterator_traitsISE_E10value_type9time_typeESQ_T0_
FN:40,py_pcf.cpp:_ZN2sb18iterate_rectanglesINS_9TimePointIiiEEZN12_GLOBAL__N_17BackendIiiE18iterate_rectanglesERKNS_3PcfIiiEES9_iiEUlRKNS_9RectangleIiiEEE_EEvRKSt6vectorIT_SaISG_EESK_T0_NSG_9time_typeESM_
FN:40,_ZN2sb18iterate_rectanglesINS_9TimePointIllEEZNS_7combineINS_3PcfIllEEEET_RKS6_S8_St8functionIFNS6_10value_typeERKNS6_14rectangle_typeEEEEUlRKNS_9RectangleIllEEE_EEvRKSt6vectorIS6_SaIS6_EESP_T0_NS6_9time_typeESR_
FN:26,_ZN2sb26max_time_iterator_prior_toIN9__gnu_cxx17__normal_iteratorIPKNS_9TimePointIllEESt6vectorIS4_SaIS4_EEEEEET_SB_SB_NSt15iterator_traitsISB_E10value_type9time_typeE
FN:29,_ZZN2sb26max_time_iterator_prior_toIN9__gnu_cxx17__normal_iteratorIPKNS_9TimePointIllEESt6vectorIS4_SaIS4_EEEEEET_SB_SB_NSt15iterator_traitsISB_E10value_type9time_typeEENKUllRS5_E_clElSG_
FN:40,_ZN2sb18iterate_rectanglesINS_9TimePointIllEEZNS_7combineINS_3PcfIllEEEET_RKS6_S8_St8functionIFNS6_10value_typeERKNS6_14rectangle_typeEEEEUlRKNS_9RectangleIllEEE0_EEvRKSt6vectorIS6_SaIS6_EESP_T0_NS6_9time_typeESR_
FN:40,_ZN2sb18iterate_rectanglesINS_9TimePointIllEEZNS_11AccumulatorINS_3PcfIllEEE13combine_with_ERKSt6vectorIS2_SaIS2_EEEUlRKNS_9RectangleIllEEE_EEvRKS7_IT_SaISH_EESL_T0_NSH_9time_typeESN_
FN:111,_ZN2sb16iterate_segmentsIN9__gnu_cxx17__normal_iteratorIPKNS_9TimePointIllEESt6vectorIS4_SaIS4_EEEEZNS_7l1_normITkNS_7PcfLikeENS_3PcfIllEEEENT_10value_typeERKSE_EUlRKNS_7SegmentIllEEE_EEvSE_SE_NSt15iterator_traitsISE_E10value_type9time_typeESQ_T0_
FN:19,_ZN2sb13infinite_timeINS_3PcfIllEEEENT_9time_typeEv
FN:111,_ZN2sb16iterate_segmentsIN9__gnu_cxx17__normal_iteratorIPKNS_9TimePointIllEESt6vectorIS4_SaIS4_EEEEZNS_7l2_normITkNS_7PcfLikeENS_3PcfIllEEEENT_10value_typeERKSE_EUlRKNS_7SegmentIllEEE_EEvSE_SE_NSt15iterator_traitsISE_E10value_type9time_typeESQ_T0_
FN:111,_ZN2sb16iterate_segmentsIN9__gnu_cxx17__normal_iteratorIPKNS_9TimePointIllEESt6vectorIS4_SaIS4_EEEEZNS_7lp_normITkNS_7PcfLikeENS_3PcfIllEEEENT_10value_typeERKSE_SF_EUlRKNS_7SegmentIllEEE_EEvSE_SE_NSt15iterator_traitsISE_E10value_type9time_typeESQ_T0_
FN:40,py_pcf.cpp:_ZN2sb18iterate_rectanglesINS_9TimePointIllEEZN12_GLOBAL__N_17BackendIllE18iterate_rectanglesERKNS_3PcfIllEES9_llEUlRKNS_9RectangleIllEEE_EEvRKSt6vectorIT_SaISG_EESK_T0_NSG_9time_typeESM_
FN:40,_ZN2sb18iterate_rectanglesINS_9TimePointIffEEZNS_9integrateIffNS_15OperationL1DistIffEEEET0_RKNS_3PcfIT_S6_EESB_T1_S8_S8_EUlRKNS_9RectangleIffEEE_EEvRKSt6vectorIS8_SaIS8_EESM_S6_NS8_9time_typeESN_
FN:40,_ZN2sb18iterate_rectanglesINS_9TimePointIffEEZNS_9integrateIffNS_15OperationLpDistIffEEEET0_RKNS_3PcfIT_S6_EESB_T1_S8_S8_EUlRKNS_9RectangleIffEEE_EEvRKSt6vectorIS8_SaIS8_EESM_S6_NS8_9time_typeESN_
FN:40,_ZN2sb18iterate_rectanglesINS_9TimePointIddEEZNS_9integrateIddNS_15OperationL1DistIddEEEET0_RKNS_3PcfIT_S6_EESB_T1_S8_S8_EUlRKNS_9RectangleIddEEE_EEvRKSt6vectorIS8_SaIS8_EESM_S6_NS8_9time_typeESN_
FN:40,_ZN2sb18iterate_rectanglesINS_9TimePointIddEEZNS_9integrateIddNS_15OperationLpDistIddEEEET0_RKNS_3PcfIT_S6_EESB_T1_S8_S8_EUlRKNS_9RectangleIddEEE_EEvRKSt6vectorIS8_SaIS8_EESM_S6_NS8_9time_typeESN_
FN:40,_ZN2sb18iterate_rectanglesINS_9TimePointIffEEZNS_9integrateIffNS_23OperationL2InnerProductIffEEEET0_RKNS_3PcfIT_S6_EESB_T1_S8_S8_EUlRKNS_9RectangleIffEEE_EEvRKSt6vectorIS8_SaIS8_EESM_S6_NS8_9time_typeESN_
FN:40,_ZN2sb18iterate_rectanglesINS_9TimePointIddEEZNS_9integrateIddNS_23OperationL2InnerProductIddEEEET0_RKNS_3PcfIT_S6_EESB_T1_S8_S8_EUlRKNS_9RectangleIddEEE_EEvRKSt6vectorIS8_SaIS8_EESM_S6_NS8_9time_typeESN_
FN:40,_ZN2sb18iterate_rectanglesINS_9TimePointIddEESt8functionIFvRKNS_9RectangleIddEEEEEEvRKSt6vectorIT_SaISB_EESF_T0_NSB_9time_typeESH_
FN:111,_ZN2sb16iterate_segmentsIN9__gnu_cxx17__normal_iteratorIPNS_9TimePointIddEESt6vectorIS4_SaIS4_EEEESt8functionIFvRKNS_7SegmentIddEEEEEEvT_SH_NSt15iterator_traitsISH_E10value_type9time_typeESL_T0_
FN:26,_ZN2sb26max_time_iterator_prior_toIN9__gnu_cxx17__normal_iteratorIPNS_9TimePointIddEESt6vectorIS4_SaIS4_EEEEEET_SA_SA_NSt15iterator_traitsISA_E10value_type9time_typeE
FN:29,_ZZN2sb26max_time_iterator_prior_toIN9__gnu_cxx17__normal_iteratorIPNS_9TimePointIddEESt6vectorIS4_SaIS4_EEEEEET_SA_SA_NSt15iterator_traitsISA_E10value_type9time_typeEENKUldRKS4_E_clEdSG_
FNDA:233,_ZN2sb18iterate_rectanglesINS_9TimePointIffEEZNS_7combineINS_3PcfIffEEEET_RKS6_S8_St8functionIFNS6_10value_typeERKNS6_14rectangle_typeEEEEUlRKNS_9RectangleIffEEE_EEvRKSt6vectorIS6_SaIS6_EESP_T0_NS6_9time_typeESR_
FNDA:1924,_ZN2sb26max_time_iterator_prior_toIN9__gnu_cxx17__normal_iteratorIPKNS_9TimePointIffEESt6vectorIS4_SaIS4_EEEEEET_SB_SB_NSt15iterator_traitsISB_E10value_type9time_typeE
FNDA:2831,_ZZN2sb26max_time_iterator_prior_toIN9__gnu_cxx17__normal_iteratorIPKNS_9TimePointIffEESt6vectorIS4_SaIS4_EEEEEET_SB_SB_NSt15iterator_traitsISB_E10value_type9time_typeEENKUlfRS5_E_clEfSG_
FNDA:244,_ZN2sb18iterate_rectanglesINS_9TimePointIffEEZNS_7combineINS_3PcfIffEEEET_RKS6_S8_St8functionIFNS6_10value_typeERKNS6_14rectangle_typeEEEEUlRKNS_9RectangleIffEEE0_EEvRKSt6vectorIS6_SaIS6_EESP_T0_NS6_9time_typeESR_
FNDA:1,_ZN2sb18iterate_rectanglesINS_9TimePointIffEEZNS_11AccumulatorINS_3PcfIffEEE13combine_with_ERKSt6vectorIS2_SaIS2_EEEUlRKNS_9RectangleIffEEE_EEvRKS7_IT_SaISH_EESL_T0_NSH_9time_typeESN_
FNDA:13,_ZN2sb16iterate_segmentsIN9__gnu_cxx17__normal_iteratorIPKNS_9TimePointIffEESt6vectorIS4_SaIS4_EEEEZNS_7l1_normITkNS_7PcfLikeENS_3PcfIffEEEENT_10value_typeERKSE_EUlRKNS_7SegmentIffEEE_EEvSE_SE_NSt15iterator_traitsISE_E10value_type9time_typeESQ_T0_
FNDA:21,_ZN2sb13infinite_timeINS_3PcfIffEEEENT_9time_typeEv
FNDA:1,_ZN2sb16iterate_segmentsIN9__gnu_cxx17__normal_iteratorIPKNS_9TimePointIffEESt6vectorIS4_SaIS4_EEEEZNS_7l2_normITkNS_7PcfLikeENS_3PcfIffEEEENT_10value_typeERKSE_EUlRKNS_7SegmentIffEEE_EEvSE_SE_NSt15iterator_traitsISE_E10value_type9time_typeESQ_T0_
FNDA:7,_ZN2sb16iterate_segmentsIN9__gnu_cxx17__normal_iteratorIPKNS_9TimePointIffEESt6vectorIS4_SaIS4_EEEEZNS_7lp_normITkNS_7PcfLikeENS_3PcfIffEEEENT_10value_typeERKSE_SF_EUlRKNS_7SegmentIffEEE_EEvSE_SE_NSt15iterator_traitsISE_E10value_type9time_typeESQ_T0_
FNDA:11,py_pcf.cpp:_ZN2sb18iterate_rectanglesINS_9TimePointIffEEZN12_GLOBAL__N_17BackendIffE18iterate_rectanglesERKNS_3PcfIffEES9_ffEUlRKNS_9RectangleIffEEE_EEvRKSt6vectorIT_SaISG_EESK_T0_NSG_9time_typeESM_
FNDA:31,_ZN2sb18iterate_rectanglesINS_9TimePointIddEEZNS_7combineINS_3PcfIddEEEET_RKS6_S8_St8functionIFNS6_10value_typeERKNS6_14rectangle_typeEEEEUlRKNS_9RectangleIddEEE_EEvRKSt6vectorIS6_SaIS6_EESP_T0_NS6_9time_typeESR_
FNDA:1017,_ZN2sb26max_time_iterator_prior_toIN9__gnu_cxx17__normal_iteratorIPKNS_9TimePointIddEESt6vectorIS4_SaIS4_EEEEEET_SB_SB_NSt15iterator_traitsISB_E10value_type9time_typeE
FNDA:2430,_ZZN2sb26max_time_iterator_prior_toIN9__gnu_cxx17__normal_iteratorIPKNS_9TimePointIddEESt6vectorIS4_SaIS4_EEEEEET_SB_SB_NSt15iterator_traitsISB_E10value_type9time_typeEENKUldRS5_E_clEdSG_
FNDA:31,_ZN2sb18iterate_rectanglesINS_9TimePointIddEEZNS_7combineINS_3PcfIddEEEET_RKS6_S8_St8functionIFNS6_10value_typeERKNS6_14rectangle_typeEEEEUlRKNS_9RectangleIddEEE0_EEvRKSt6vectorIS6_SaIS6_EESP_T0_NS6_9time_typeESR_
FNDA:3,_ZN2sb18iterate_rectanglesINS_9TimePointIddEEZNS_11AccumulatorINS_3PcfIddEEE13combine_with_ERKSt6vectorIS2_SaIS2_EEEUlRKNS_9RectangleIddEEE_EEvRKS7_IT_SaISH_EESL_T0_NSH_9time_typeESN_
FNDA:21,_ZN2sb16iterate_segmentsIN9__gnu_cxx17__normal_iteratorIPKNS_9TimePointIddEESt6vectorIS4_SaIS4_EEEEZNS_7l1_normITkNS_7PcfLikeENS_3PcfIddEEEENT_10value_typeERKSE_EUlRKNS_7SegmentIddEEE_EEvSE_SE_NSt15iterator_traitsISE_E10value_type9time_typeESQ_T0_
FNDA:30,_ZN2sb13infinite_timeINS_3PcfIddEEEENT_9time_typeEv
FNDA:1,_ZN2sb16iterate_segmentsIN9__gnu_cxx17__normal_iteratorIPKNS_9TimePointIddEESt6vectorIS4_SaIS4_EEEEZNS_7l2_normITkNS_7PcfLikeENS_3PcfIddEEEENT_10value_typeERKSE_EUlRKNS_7SegmentIddEEE_EEvSE_SE_NSt15iterator_traitsISE_E10value_type9time_typeESQ_T0_
FNDA:8,_ZN2sb16iterate_segmentsIN9__gnu_cxx17__normal_iteratorIPKNS_9TimePointIddEESt6vectorIS4_SaIS4_EEEEZNS_7lp_normITkNS_7PcfLikeENS_3PcfIddEEEENT_10value_typeERKSE_SF_EUlRKNS_7SegmentIddEEE_EEvSE_SE_NSt15iterator_traitsISE_E10value_type9time_typeESQ_T0_
FNDA:11,py_pcf.cpp:_ZN2sb18iterate_rectanglesINS_9TimePointIddEEZN12_GLOBAL__N_17BackendIddE18iterate_rectanglesERKNS_3PcfIddEES9_ddEUlRKNS_9RectangleIddEEE_EEvRKSt6vectorIT_SaISG_EESK_T0_NSG_9time_typeESM_
FNDA:22,_ZN2sb18iterate_rectanglesINS_9TimePointIiiEEZNS_7combineINS_3PcfIiiEEEET_RKS6_S8_St8functionIFNS6_10value_typeERKNS6_14rectangle_typeEEEEUlRKNS_9RectangleIiiEEE_EEvRKSt6vectorIS6_SaIS6_EESP_T0_NS6_9time_typeESR_
FNDA:88,_ZN2sb26max_time_iterator_prior_toIN9__gnu_cxx17__normal_iteratorIPKNS_9TimePointIiiEESt6vectorIS4_SaIS4_EEEEEET_SB_SB_NSt15iterator_traitsISB_E10value_type9time_typeE
FNDA:164,_ZZN2sb26max_time_iterator_prior_toIN9__gnu_cxx17__normal_iteratorIPKNS_9TimePointIiiEESt6vectorIS4_SaIS4_EEEEEET_SB_SB_NSt15iterator_traitsISB_E10value_type9time_typeEENKUliRS5_E_clEiSG_
FNDA:22,_ZN2sb18iterate_rectanglesINS_9TimePointIiiEEZNS_7combineINS_3PcfIiiEEEET_RKS6_S8_St8functionIFNS6_10value_typeERKNS6_14rectangle_typeEEEEUlRKNS_9RectangleIiiEEE0_EEvRKSt6vectorIS6_SaIS6_EESP_T0_NS6_9time_typeESR_
FNDA:0,_ZN2sb18iterate_rectanglesINS_9TimePointIiiEEZNS_11AccumulatorINS_3PcfIiiEEE13combine_with_ERKSt6vectorIS2_SaIS2_EEEUlRKNS_9RectangleIiiEEE_EEvRKS7_IT_SaISH_EESL_T0_NSH_9time_typeESN_
FNDA:0,_ZN2sb16iterate_segmentsIN9__gnu_cxx17__normal_iteratorIPKNS_9TimePointIiiEESt6vectorIS4_SaIS4_EEEEZNS_7l1_normITkNS_7PcfLikeENS_3PcfIiiEEEENT_10value_typeERKSE_EUlRKNS_7SegmentIiiEEE_EEvSE_SE_NSt15iterator_traitsISE_E10value_type9time_typeESQ_T0_
FNDA:0,_ZN2sb13infinite_timeINS_3PcfIiiEEEENT_9time_typeEv
FNDA:0,_ZN2sb16iterate_segmentsIN9__gnu_cxx17__normal_iteratorIPKNS_9TimePointIiiEESt6vectorIS4_SaIS4_EEEEZNS_7l2_normITkNS_7PcfLikeENS_3PcfIiiEEEENT_10value_typeERKSE_EUlRKNS_7SegmentIiiEEE_EEvSE_SE_NSt15iterator_traitsISE_E10value_type9time_typeESQ_T0_
FNDA:0,_ZN2sb16iterate_segmentsIN9__gnu_cxx17__normal_iteratorIPKNS_9TimePointIiiEESt6vectorIS4_SaIS4_EEEEZNS_7lp_normITkNS_7PcfLikeENS_3PcfIiiEEEENT_10value_typeERKSE_SF_EUlRKNS_7SegmentIiiEEE_EEvSE_SE_NSt15iterator_traitsISE_E10value_type9time_typeESQ_T0_
FNDA:0,py_pcf.cpp:_ZN2sb18iterate_rectanglesINS_9TimePointIiiEEZN12_GLOBAL__N_17BackendIiiE18iterate_rectanglesERKNS_3PcfIiiEES9_iiEUlRKNS_9RectangleIiiEEE_EEvRKSt6vectorIT_SaISG_EESK_T0_NSG_9time_typeESM_
FNDA:22,_ZN2sb18iterate_rectanglesINS_9TimePointIllEEZNS_7combineINS_3PcfIllEEEET_RKS6_S8_St8functionIFNS6_10value_typeERKNS6_14rectangle_typeEEEEUlRKNS_9RectangleIllEEE_EEvRKSt6vectorIS6_SaIS6_EESP_T0_NS6_9time_typeESR_
FNDA:88,_ZN2sb26max_time_iterator_prior_toIN9__gnu_cxx17__normal_iteratorIPKNS_9TimePointIllEESt6vectorIS4_SaIS4_EEEEEET_SB_SB_NSt15iterator_traitsISB_E10value_type9time_typeE
FNDA:164,_ZZN2sb26max_time_iterator_prior_toIN9__gnu_cxx17__normal_iteratorIPKNS_9TimePointIllEESt6vectorIS4_SaIS4_EEEEEET_SB_SB_NSt15iterator_traitsISB_E10value_type9time_typeEENKUllRS5_E_clElSG_
FNDA:22,_ZN2sb18iterate_rectanglesINS_9TimePointIllEEZNS_7combineINS_3PcfIllEEEET_RKS6_S8_St8functionIFNS6_10value_typeERKNS6_14rectangle_typeEEEEUlRKNS_9RectangleIllEEE0_EEvRKSt6vectorIS6_SaIS6_EESP_T0_NS6_9time_typeESR_
FNDA:0,_ZN2sb18iterate_rectanglesINS_9TimePointIllEEZNS_11AccumulatorINS_3PcfIllEEE13combine_with_ERKSt6vectorIS2_SaIS2_EEEUlRKNS_9RectangleIllEEE_EEvRKS7_IT_SaISH_EESL_T0_NSH_9time_typeESN_
FNDA:0,_ZN2sb16iterate_segmentsIN9__gnu_cxx17__normal_iteratorIPKNS_9TimePointIllEESt6vectorIS4_SaIS4_EEEEZNS_7l1_normITkNS_7PcfLikeENS_3PcfIllEEEENT_10value_typeERKSE_EUlRKNS_7SegmentIllEEE_EEvSE_SE_NSt15iterator_traitsISE_E10value_type9time_typeESQ_T0_
FNDA:0,_ZN2sb13infinite_timeINS_3PcfIllEEEENT_9time_typeEv
FNDA:0,_ZN2sb16iterate_segmentsIN9__gnu_cxx17__normal_iteratorIPKNS_9TimePointIllEESt6vectorIS4_SaIS4_EEEEZNS_7l2_normITkNS_7PcfLikeENS_3PcfIllEEEENT_10value_typeERKSE_EUlRKNS_7SegmentIllEEE_EEvSE_SE_NSt15iterator_traitsISE_E10value_type9time_typeESQ_T0_
FNDA:0,_ZN2sb16iterate_segmentsIN9__gnu_cxx17__normal_iteratorIPKNS_9TimePointIllEESt6vectorIS4_SaIS4_EEEEZNS_7lp_normITkNS_7PcfLikeENS_3PcfIllEEEENT_10value_typeERKSE_SF_EUlRKNS_7SegmentIllEEE_EEvSE_SE_NSt15iterator_traitsISE_E10value_type9time_typeESQ_T0_
FNDA:0,py_pcf.cpp:_ZN2sb18iterate_rectanglesINS_9TimePointIllEEZN12_GLOBAL__N_17BackendIllE18iterate_rectanglesERKNS_3PcfIllEES9_llEUlRKNS_9RectangleIllEEE_EEvRKSt6vectorIT_SaISG_EESK_T0_NSG_9time_typeESM_
FNDA:363,_ZN2sb18iterate_rectanglesINS_9TimePointIffEEZNS_9integrateIffNS_15OperationL1DistIffEEEET0_RKNS_3PcfIT_S6_EESB_T1_S8_S8_EUlRKNS_9RectangleIffEEE_EEvRKSt6vectorIS8_SaIS8_EESM_S6_NS8_9time_typeESN_
FNDA:10,_ZN2sb18iterate_rectanglesINS_9TimePointIffEEZNS_9integrateIffNS_15OperationLpDistIffEEEET0_RKNS_3PcfIT_S6_EESB_T1_S8_S8_EUlRKNS_9RectangleIffEEE_EEvRKSt6vectorIS8_SaIS8_EESM_S6_NS8_9time_typeESN_
FNDA:375,_ZN2sb18iterate_rectanglesINS_9TimePointIddEEZNS_9integrateIddNS_15OperationL1DistIddEEEET0_RKNS_3PcfIT_S6_EESB_T1_S8_S8_EUlRKNS_9RectangleIddEEE_EEvRKSt6vectorIS8_SaIS8_EESM_S6_NS8_9time_typeESN_
FNDA:20,_ZN2sb18iterate_rectanglesINS_9TimePointIddEEZNS_9integrateIddNS_15OperationLpDistIddEEEET0_RKNS_3PcfIT_S6_EESB_T1_S8_S8_EUlRKNS_9RectangleIddEEE_EEvRKSt6vectorIS8_SaIS8_EESM_S6_NS8_9time_typeESN_
FNDA:80,_ZN2sb18iterate_rectanglesINS_9TimePointIffEEZNS_9integrateIffNS_23OperationL2InnerProductIffEEEET0_RKNS_3PcfIT_S6_EESB_T1_S8_S8_EUlRKNS_9RectangleIffEEE_EEvRKSt6vectorIS8_SaIS8_EESM_S6_NS8_9time_typeESN_
FNDA:19,_ZN2sb18iterate_rectanglesINS_9TimePointIddEEZNS_9integrateIddNS_23OperationL2InnerProductIddEEEET0_RKNS_3PcfIT_S6_EESB_T1_S8_S8_EUlRKNS_9RectangleIddEEE_EEvRKSt6vectorIS8_SaIS8_EESM_S6_NS8_9time_typeESN_
FNDA:6,_ZN2sb18iterate_rectanglesINS_9TimePointIddEESt8functionIFvRKNS_9RectangleIddEEEEEEvRKSt6vectorIT_SaISB_EESF_T0_NSB_9time_typeESH_
FNDA:9,_ZN2sb16iterate_segmentsIN9__gnu_cxx17__normal_iteratorIPNS_9TimePointIddEESt6vectorIS4_SaIS4_EEEESt8functionIFvRKNS_7SegmentIddEEEEEEvT_SH_NSt15iterator_traitsISH_E10value_type9time_typeESL_T0_
FNDA:8,_ZN2sb26max_time_iterator_prior_toIN9__gnu_cxx17__normal_iteratorIPNS_9TimePointIddEESt6vectorIS4_SaIS4_EEEEEET_SA_SA_NSt15iterator_traitsISA_E10value_type9time_typeE
FNDA:18,_ZZN2sb26max_time_iterator_prior_toIN9__gnu_cxx17__normal_iteratorIPNS_9TimePointIddEESt6vectorIS4_SaIS4_EEEEEET_SA_SA_NSt15iterator_traitsISA_E10value_type9time_typeEENKUldRKS4_E_clEdSG_
FNF:5
FNH:5
DA:19,51
DA:20,51
DA:21,51
DA:26,3125
DA:27,3125
DA:28,3125
DA:29,5607
DA:30,3125
DA:31,3
DA:32,3
DA:33,3
DA:34,3122
DA:35,3125
DA:40,1526
DA:41,1526
DA:42,1526
DA:44,1526
DA:45,1526
DA:47,1526
DA:48,1526
DA:49,1526
DA:50,1526
DA:52,1526
DA:54,5312
DA:55,5170
DA:56,5170
DA:57,5170
DA:58,5170
DA:60,5170
DA:61,5170
DA:63,5170
DA:64,3538
DA:65,3538
DA:66,3538
DA:67,2164
DA:68,2164
DA:69,2164
DA:70,3538
DA:71,2138
DA:72,2138
DA:73,2138
DA:74,3538
DA:75,1632
DA:76,140
DA:77,140
DA:78,140
DA:79,1492
DA:80,108
DA:81,108
DA:82,108
DA:83,1384
DA:84,1384
DA:85,1384
DA:86,1384
DA:87,1384
DA:88,1384
DA:90,1384
DA:92,1384
DA:93,1384
DA:95,3786
DA:97,3786
DA:98,3786
DA:99,3786
DA:100,3786
DA:102,3786
DA:103,3786
DA:104,1526
DA:111,60
DA:112,60
DA:113,60
DA:114,60
DA:116,60
DA:117,1
DA:118,1
DA:119,1
DA:122,59
DA:125,59
DA:126,59
DA:128,59
DA:129,59
DA:131,59
DA:132,136
DA:133,80
DA:134,80
DA:135,80
DA:136,80
DA:137,80
DA:139,80
DA:141,80
DA:142,3
DA:143,3
DA:144,3
DA:146,77
DA:147,77
DA:148,77
DA:150,56
DA:151,56
DA:152,56
DA:154,56
DA:155,56
BRDA:30,0,0,3
BRDA:30,0,1,3122
BRDA:54,0,0,5170
BRDA:54,0,1,142
BRDA:63,0,0,7242
BRDA:63,0,1,3098
BRDA:63,1,2,3546
BRDA:63,1,3,158
BRDA:66,0,0,2164
BRDA:66,0,1,1374
BRDA:70,0,0,2138
BRDA:70,0,1,1400
BRDA:75,0,0,140
BRDA:75,0,1,1492
BRDA:79,0,0,108
BRDA:79,0,1,1384
BRDA:116,0,0,1
BRDA:116,0,1,59
BRDA:132,0,0,80
BRDA:132,0,1,56
BRDA:141,0,0,3
BRDA:141,0,1,77
BRF:24
BRH:24
LF:101
LH:101
end_of_record
SF:/home/runner/work/stablebear/stablebear/include/sbear/algorithms/functional/lp_distance.hpp
FN:12,_ZN2sb11lp_distanceIffEET0_RKNS_3PcfIT_S1_EES6_S1_
FN:12,_ZN2sb11lp_distanceIddEET0_RKNS_3PcfIT_S1_EES6_S1_
FNDA:163,_ZN2sb11lp_distanceIffEET0_RKNS_3PcfIT_S1_EES6_S1_
FNDA:164,_ZN2sb11lp_distanceIddEET0_RKNS_3PcfIT_S1_EES6_S1_
FNF:1
FNH:1
DA:12,327
DA:13,327
DA:14,317
DA:15,317
DA:16,317
DA:17,317
DA:19,10
DA:20,10
DA:21,327
BRDA:13,0,0,317
BRDA:13,0,1,10
BRF:2
BRH:2
LF:9
LH:9
end_of_record
SF:/home/runner/work/stablebear/stablebear/include/sbear/algorithms/functional/matrix_integrate.hpp
FN:44,_ZN2sb26CpuPairwiseIntegrationTaskINS_15OperationL1DistIffEENS_21Tensor1dValueIteratorINS_6TensorINS_3PcfIffEEEEEENS_14DistanceMatrixIfEELb0EEC2ESA_S8_S8_S2_
FN:53,_ZN2sb26CpuPairwiseIntegrationTaskINS_15OperationL1DistIffEENS_21Tensor1dValueIteratorINS_6TensorINS_3PcfIffEEEEEENS_14DistanceMatrixIfEELb0EE9run_asyncERNS_8ExecutorE
FN:69,_ZZN2sb26CpuPairwiseIntegrationTaskINS_15OperationL1DistIffEENS_21Tensor1dValueIteratorINS_6TensorINS_3PcfIffEEEEEENS_14DistanceMatrixIfEELb0EE9run_asyncERNS_8ExecutorEENKUlmE_clEm
FN:81,_ZN2sb26CpuPairwiseIntegrationTaskINS_15OperationL1DistIffEENS_21Tensor1dValueIteratorINS_6TensorINS_3PcfIffEEEEEENS_14DistanceMatrixIfEELb0EE11compute_rowEm
FN:20,_ZN2sb9integrateIffNS_15OperationL1DistIffEEEET0_RKNS_3PcfIT_S3_EES8_T1_S5_S5_
FN:24,_ZZN2sb9integrateIffNS_15OperationL1DistIffEEEET0_RKNS_3PcfIT_S3_EES8_T1_S5_S5_ENKUlRKNS_9RectangleIffEEE_clESD_
FN:44,_ZN2sb26CpuPairwiseIntegrationTaskINS_15OperationLpDistIffEENS_21Tensor1dValueIteratorINS_6TensorINS_3PcfIffEEEEEENS_14DistanceMatrixIfEELb0EEC2ESA_S8_S8_S2_
FN:53,_ZN2sb26CpuPairwiseIntegrationTaskINS_15OperationLpDistIffEENS_21Tensor1dValueIteratorINS_6TensorINS_3PcfIffEEEEEENS_14DistanceMatrixIfEELb0EE9run_asyncERNS_8ExecutorE
FN:69,_ZZN2sb26CpuPairwiseIntegrationTaskINS_15OperationLpDistIffEENS_21Tensor1dValueIteratorINS_6TensorINS_3PcfIffEEEEEENS_14DistanceMatrixIfEELb0EE9run_asyncERNS_8ExecutorEENKUlmE_clEm
FN:81,_ZN2sb26CpuPairwiseIntegrationTaskINS_15OperationLpDistIffEENS_21Tensor1dValueIteratorINS_6TensorINS_3PcfIffEEEEEENS_14DistanceMatrixIfEELb0EE11compute_rowEm
FN:20,_ZN2sb9integrateIffNS_15OperationLpDistIffEEEET0_RKNS_3PcfIT_S3_EES8_T1_S5_S5_
FN:24,_ZZN2sb9integrateIffNS_15OperationLpDistIffEEEET0_RKNS_3PcfIT_S3_EES8_T1_S5_S5_ENKUlRKNS_9RectangleIffEEE_clESD_
FN:44,_ZN2sb26CpuPairwiseIntegrationTaskINS_15OperationL1DistIddEENS_21Tensor1dValueIteratorINS_6TensorINS_3PcfIddEEEEEENS_14DistanceMatrixIdEELb0EEC2ESA_S8_S8_S2_
FN:53,_ZN2sb26CpuPairwiseIntegrationTaskINS_15OperationL1DistIddEENS_21Tensor1dValueIteratorINS_6TensorINS_3PcfIddEEEEEENS_14DistanceMatrixIdEELb0EE9run_asyncERNS_8ExecutorE
FN:69,_ZZN2sb26CpuPairwiseIntegrationTaskINS_15OperationL1DistIddEENS_21Tensor1dValueIteratorINS_6TensorINS_3PcfIddEEEEEENS_14DistanceMatrixIdEELb0EE9run_asyncERNS_8ExecutorEENKUlmE_clEm
FN:81,_ZN2sb26CpuPairwiseIntegrationTaskINS_15OperationL1DistIddEENS_21Tensor1dValueIteratorINS_6TensorINS_3PcfIddEEEEEENS_14DistanceMatrixIdEELb0EE11compute_rowEm
FN:20,_ZN2sb9integrateIddNS_15OperationL1DistIddEEEET0_RKNS_3PcfIT_S3_EES8_T1_S5_S5_
FN:24,_ZZN2sb9integrateIddNS_15OperationL1DistIddEEEET0_RKNS_3PcfIT_S3_EES8_T1_S5_S5_ENKUlRKNS_9RectangleIddEEE_clESD_
FN:44,_ZN2sb26CpuPairwiseIntegrationTaskINS_15OperationLpDistIddEENS_21Tensor1dValueIteratorINS_6TensorINS_3PcfIddEEEEEENS_14DistanceMatrixIdEELb0EEC2ESA_S8_S8_S2_
FN:53,_ZN2sb26CpuPairwiseIntegrationTaskINS_15OperationLpDistIddEENS_21Tensor1dValueIteratorINS_6TensorINS_3PcfIddEEEEEENS_14DistanceMatrixIdEELb0EE9run_asyncERNS_8ExecutorE
FN:69,_ZZN2sb26CpuPairwiseIntegrationTaskINS_15OperationLpDistIddEENS_21Tensor1dValueIteratorINS_6TensorINS_3PcfIddEEEEEENS_14DistanceMatrixIdEELb0EE9run_asyncERNS_8ExecutorEENKUlmE_clEm
FN:81,_ZN2sb26CpuPairwiseIntegrationTaskINS_15OperationLpDistIddEENS_21Tensor1dValueIteratorINS_6TensorINS_3PcfIddEEEEEENS_14DistanceMatrixIdEELb0EE11compute_rowEm
FN:20,_ZN2sb9integrateIddNS_15OperationLpDistIddEEEET0_RKNS_3PcfIT_S3_EES8_T1_S5_S5_
FN:24,_ZZN2sb9integrateIddNS_15OperationLpDistIddEEEET0_RKNS_3PcfIT_S3_EES8_T1_S5_S5_ENKUlRKNS_9RectangleIddEEE_clESD_
FN:44,_ZN2sb26CpuPairwiseIntegrationTaskINS_23OperationL2InnerProductIffEENS_21Tensor1dValueIteratorINS_6TensorINS_3PcfIffEEEEEENS_15SymmetricMatrixIfEELb1EEC2ESA_S8_S8_S2_
FN:53,_ZN2sb26CpuPairwiseIntegrationTaskINS_23OperationL2InnerProductIffEENS_21Tensor1dValueIteratorINS_6TensorINS_3PcfIffEEEEEENS_15SymmetricMatrixIfEELb1EE9run_asyncERNS_8ExecutorE
FN:69,_ZZN2sb26CpuPairwiseIntegrationTaskINS_23OperationL2InnerProductIffEENS_21Tensor1dValueIteratorINS_6TensorINS_3PcfIffEEEEEENS_15SymmetricMatrixIfEELb1EE9run_asyncERNS_8ExecutorEENKUlmE_clEm
FN:81,_ZN2sb26CpuPairwiseIntegrationTaskINS_23OperationL2InnerProductIffEENS_21Tensor1dValueIteratorINS_6TensorINS_3PcfIffEEEEEENS_15SymmetricMatrixIfEELb1EE11compute_rowEm
FN:20,_ZN2sb9integrateIffNS_23OperationL2InnerProductIffEEEET0_RKNS_3PcfIT_S3_EES8_T1_S5_S5_
FN:24,_ZZN2sb9integrateIffNS_23OperationL2InnerProductIffEEEET0_RKNS_3PcfIT_S3_EES8_T1_S5_S5_ENKUlRKNS_9RectangleIffEEE_clESD_
FN:44,_ZN2sb26CpuPairwiseIntegrationTaskINS_23OperationL2InnerProductIddEENS_21Tensor1dValueIteratorINS_6TensorINS_3PcfIddEEEEEENS_15SymmetricMatrixIdEELb1EEC2ESA_S8_S8_S2_
FN:53,_ZN2sb26CpuPairwiseIntegrationTaskINS_23OperationL2InnerProductIddEENS_21Tensor1dValueIteratorINS_6TensorINS_3PcfIddEEEEEENS_15SymmetricMatrixIdEELb1EE9run_asyncERNS_8ExecutorE
FN:69,_ZZN2sb26CpuPairwiseIntegrationTaskINS_23OperationL2InnerProductIddEENS_21Tensor1dValueIteratorINS_6TensorINS_3PcfIddEEEEEENS_15SymmetricMatrixIdEELb1EE9run_asyncERNS_8ExecutorEENKUlmE_clEm
FN:81,_ZN2sb26CpuPairwiseIntegrationTaskINS_23OperationL2InnerProductIddEENS_21Tensor1dValueIteratorINS_6TensorINS_3PcfIddEEEEEENS_15SymmetricMatrixIdEELb1EE11compute_rowEm
FN:20,_ZN2sb9integrateIddNS_23OperationL2InnerProductIddEEEET0_RKNS_3PcfIT_S3_EES8_T1_S5_S5_
FN:24,_ZZN2sb9integrateIddNS_23OperationL2InnerProductIddEEEET0_RKNS_3PcfIT_S3_EES8_T1_S5_S5_ENKUlRKNS_9RectangleIddEEE_clESD_
FNDA:6,_ZN2sb26CpuPairwiseIntegrationTaskINS_15OperationL1DistIffEENS_21Tensor1dValueIteratorINS_6TensorINS_3PcfIffEEEEEENS_14DistanceMatrixIfEELb0EEC2ESA_S8_S8_S2_
FNDA:6,_ZN2sb26CpuPairwiseIntegrationTaskINS_15OperationL1DistIffEENS_21Tensor1dValueIteratorINS_6TensorINS_3PcfIffEEEEEENS_14DistanceMatrixIfEELb0EE9run_asyncERNS_8ExecutorE
FNDA:24,_ZZN2sb26CpuPairwiseIntegrationTaskINS_15OperationL1DistIffEENS_21Tensor1dValueIteratorINS_6TensorINS_3PcfIffEEEEEENS_14DistanceMatrixIfEELb0EE9run_asyncERNS_8ExecutorEENKUlmE_clEm
FNDA:23,_ZN2sb26CpuPairwiseIntegrationTaskINS_15OperationL1DistIffEENS_21Tensor1dValueIteratorINS_6TensorINS_3PcfIffEEEEEENS_14DistanceMatrixIfEELb0EE11compute_rowEm
FNDA:366,_ZN2sb9integrateIffNS_15OperationL1DistIffEEEET0_RKNS_3PcfIT_S3_EES8_T1_S5_S5_
FNDA:912,_ZZN2sb9integrateIffNS_15OperationL1DistIffEEEET0_RKNS_3PcfIT_S3_EES8_T1_S5_S5_ENKUlRKNS_9RectangleIffEEE_clESD_
FNDA:1,_ZN2sb26CpuPairwiseIntegrationTaskINS_15OperationLpDistIffEENS_21Tensor1dValueIteratorINS_6TensorINS_3PcfIffEEEEEENS_14DistanceMatrixIfEELb0EEC2ESA_S8_S8_S2_
FNDA:1,_ZN2sb26CpuPairwiseIntegrationTaskINS_15OperationLpDistIffEENS_21Tensor1dValueIteratorINS_6TensorINS_3PcfIffEEEEEENS_14DistanceMatrixIfEELb0EE9run_asyncERNS_8ExecutorE
FNDA:3,_ZZN2sb26CpuPairwiseIntegrationTaskINS_15OperationLpDistIffEENS_21Tensor1dValueIteratorINS_6TensorINS_3PcfIffEEEEEENS_14DistanceMatrixIfEELb0EE9run_asyncERNS_8ExecutorEENKUlmE_clEm
FNDA:3,_ZN2sb26CpuPairwiseIntegrationTaskINS_15OperationLpDistIffEENS_21Tensor1dValueIteratorINS_6TensorINS_3PcfIffEEEEEENS_14DistanceMatrixIfEELb0EE11compute_rowEm
FNDA:10,_ZN2sb9integrateIffNS_15OperationLpDistIffEEEET0_RKNS_3PcfIT_S3_EES8_T1_S5_S5_
FNDA:17,_ZZN2sb9integrateIffNS_15OperationLpDistIffEEEET0_RKNS_3PcfIT_S3_EES8_T1_S5_S5_ENKUlRKNS_9RectangleIffEEE_clESD_
FNDA:9,_ZN2sb26CpuPairwiseIntegrationTaskINS_15OperationL1DistIddEENS_21Tensor1dValueIteratorINS_6TensorINS_3PcfIddEEEEEENS_14DistanceMatrixIdEELb0EEC2ESA_S8_S8_S2_
FNDA:9,_ZN2sb26CpuPairwiseIntegrationTaskINS_15OperationL1DistIddEENS_21Tensor1dValueIteratorINS_6TensorINS_3PcfIddEEEEEENS_14DistanceMatrixIdEELb0EE9run_asyncERNS_8ExecutorE
FNDA:37,_ZZN2sb26CpuPairwiseIntegrationTaskINS_15OperationL1DistIddEENS_21Tensor1dValueIteratorINS_6TensorINS_3PcfIddEEEEEENS_14DistanceMatrixIdEELb0EE9run_asyncERNS_8ExecutorEENKUlmE_clEm
FNDA:37,_ZN2sb26CpuPairwiseIntegrationTaskINS_15OperationL1DistIddEENS_21Tensor1dValueIteratorINS_6TensorINS_3PcfIddEEEEEENS_14DistanceMatrixIdEELb0EE11compute_rowEm
FNDA:379,_ZN2sb9integrateIddNS_15OperationL1DistIddEEEET0_RKNS_3PcfIT_S3_EES8_T1_S5_S5_
FNDA:2527,_ZZN2sb9integrateIddNS_15OperationL1DistIddEEEET0_RKNS_3PcfIT_S3_EES8_T1_S5_S5_ENKUlRKNS_9RectangleIddEEE_clESD_
FNDA:1,_ZN2sb26CpuPairwiseIntegrationTaskINS_15OperationLpDistIddEENS_21Tensor1dValueIteratorINS_6TensorINS_3PcfIddEEEEEENS_14DistanceMatrixIdEELb0EEC2ESA_S8_S8_S2_
FNDA:1,_ZN2sb26CpuPairwiseIntegrationTaskINS_15OperationLpDistIddEENS_21Tensor1dValueIteratorINS_6TensorINS_3PcfIddEEEEEENS_14DistanceMatrixIdEELb0EE9run_asyncERNS_8ExecutorE
FNDA:2,_ZZN2sb26CpuPairwiseIntegrationTaskINS_15OperationLpDistIddEENS_21Tensor1dValueIteratorINS_6TensorINS_3PcfIddEEEEEENS_14DistanceMatrixIdEELb0EE9run_asyncERNS_8ExecutorEENKUlmE_clEm
FNDA:2,_ZN2sb26CpuPairwiseIntegrationTaskINS_15OperationLpDistIddEENS_21Tensor1dValueIteratorINS_6TensorINS_3PcfIddEEEEEENS_14DistanceMatrixIdEELb0EE11compute_rowEm
FNDA:20,_ZN2sb9integrateIddNS_15OperationLpDistIddEEEET0_RKNS_3PcfIT_S3_EES8_T1_S5_S5_
FNDA:461,_ZZN2sb9integrateIddNS_15OperationLpDistIddEEEET0_RKNS_3PcfIT_S3_EES8_T1_S5_S5_ENKUlRKNS_9RectangleIddEEE_clESD_
FNDA:7,_ZN2sb26CpuPairwiseIntegrationTaskINS_23OperationL2InnerProductIffEENS_21Tensor1dValueIteratorINS_6TensorINS_3PcfIffEEEEEENS_15SymmetricMatrixIfEELb1EEC2ESA_S8_S8_S2_
FNDA:7,_ZN2sb26CpuPairwiseIntegrationTaskINS_23OperationL2InnerProductIffEENS_21Tensor1dValueIteratorINS_6TensorINS_3PcfIffEEEEEENS_15SymmetricMatrixIfEELb1EE9run_asyncERNS_8ExecutorE
FNDA:24,_ZZN2sb26CpuPairwiseIntegrationTaskINS_23OperationL2InnerProductIffEENS_21Tensor1dValueIteratorINS_6TensorINS_3PcfIffEEEEEENS_15SymmetricMatrixIfEELb1EE9run_asyncERNS_8ExecutorEENKUlmE_clEm
FNDA:24,_ZN2sb26CpuPairwiseIntegrationTaskINS_23OperationL2InnerProductIffEENS_21Tensor1dValueIteratorINS_6TensorINS_3PcfIffEEEEEENS_15SymmetricMatrixIfEELb1EE11compute_rowEm
FNDA:80,_ZN2sb9integrateIffNS_23OperationL2InnerProductIffEEEET0_RKNS_3PcfIT_S3_EES8_T1_S5_S5_
FNDA:99,_ZZN2sb9integrateIffNS_23OperationL2InnerProductIffEEEET0_RKNS_3PcfIT_S3_EES8_T1_S5_S5_ENKUlRKNS_9RectangleIffEEE_clESD_
FNDA:5,_ZN2sb26CpuPairwiseIntegrationTaskINS_23OperationL2InnerProductIddEENS_21Tensor1dValueIteratorINS_6TensorINS_3PcfIddEEEEEENS_15SymmetricMatrixIdEELb1EEC2ESA_S8_S8_S2_
FNDA:5,_ZN2sb26CpuPairwiseIntegrationTaskINS_23OperationL2InnerProductIddEENS_21Tensor1dValueIteratorINS_6TensorINS_3PcfIddEEEEEENS_15SymmetricMatrixIdEELb1EE9run_asyncERNS_8ExecutorE
FNDA:11,_ZZN2sb26CpuPairwiseIntegrationTaskINS_23OperationL2InnerProductIddEENS_21Tensor1dValueIteratorINS_6TensorINS_3PcfIddEEEEEENS_15SymmetricMatrixIdEELb1EE9run_asyncERNS_8ExecutorEENKUlmE_clEm
FNDA:11,_ZN2sb26CpuPairwiseIntegrationTaskINS_23OperationL2InnerProductIddEENS_21Tensor1dValueIteratorINS_6TensorINS_3PcfIddEEEEEENS_15SymmetricMatrixIdEELb1EE11compute_rowEm
FNDA:19,_ZN2sb9integrateIddNS_23OperationL2InnerProductIddEEEET0_RKNS_3PcfIT_S3_EES8_T1_S5_S5_
FNDA:38,_ZZN2sb9integrateIddNS_23OperationL2InnerProductIddEEEET0_RKNS_3PcfIT_S3_EES8_T1_S5_S5_ENKUlRKNS_9RectangleIddEEE_clESD_
FNF:6
FNH:6
DA:20,874
DA:21,874
DA:23,874
DA:24,4054
DA:25,4054
DA:26,4054
DA:28,874
DA:29,874
DA:44,29
DA:45,29
DA:46,29
DA:47,29
DA:53,29
DA:54,29
DA:55,29
DA:57,12
DA:59,17
DA:61,29
DA:63,29
DA:64,29
DA:65,0
DA:66,0
DA:67,0
DA:69,101
DA:70,101
DA:71,0
DA:72,0
DA:73,0
DA:74,101
DA:75,101
DA:77,29
DA:78,29
DA:81,100
DA:82,100
DA:83,100
DA:84,336
DA:85,236
DA:86,236
DA:87,236
DA:88,236
DA:89,100
DA:90,100
BRDA:61,0,0,12
BRDA:61,0,1,17
BRDA:64,0,0,0
BRDA:64,0,1,29
BRDA:70,0,0,0
BRDA:70,0,1,101
BRDA:83,0,0,35
BRDA:83,0,1,65
BRDA:84,0,0,236
BRDA:84,0,1,100
BRF:8
BRH:6
LF:51
LH:45
end_of_record
SF:/home/runner/work/stablebear/stablebear/include/sbear/algorithms/functional/matrix_reduce.hpp
FN:101,_ZN2sb4meanINS_3PcfIffEEEENS_6TensorIT_EERKS5_mRNS_8ExecutorE
FN:92,_ZN2sb22parallel_tensor_reduceINS_3PcfIffEEZNS_4meanIS2_EENS_6TensorIT_EERKS6_mRNS_8ExecutorEEUlRKNS_9RectangleIffEEE_EES6_S8_mOT0_SA_
FN:53,_ZN2sb19parallel_dim_reduceINS_3PcfIffEES2_ZNS_22parallel_tensor_reduceIS2_ZNS_4meanIS2_EENS_6TensorIT_EERKS7_mRNS_8ExecutorEEUlRKNS_9RectangleIffEEE_EES7_S9_mOT0_SB_EUlS6_SH_E_EES7_RKNS5_ISH_EEmOT1_SB_
FN:33,_ZN2sb16check_reduce_dimEmm
FN:66,_ZZN2sb19parallel_dim_reduceINS_3PcfIffEES2_ZNS_22parallel_tensor_reduceIS2_ZNS_4meanIS2_EENS_6TensorIT_EERKS7_mRNS_8ExecutorEEUlRKNS_9RectangleIffEEE_EES7_S9_mOT0_SB_EUlS6_SH_E_EES7_RKNS5_ISH_EEmOT1_SB_ENKUlRKSt6vectorImSaImEEE_clEST_
FN:94,_ZZN2sb22parallel_tensor_reduceINS_3PcfIffEEZNS_4meanIS2_EENS_6TensorIT_EERKS6_mRNS_8ExecutorEEUlRKNS_9RectangleIffEEE_EES6_S8_mOT0_SA_ENKUlS5_SG_E_clINS_21Tensor1dValueIteratorIKNS4_IS2_EEEESN_EEDaS5_SG_
FN:102,_ZZN2sb4meanINS_3PcfIffEEEENS_6TensorIT_EERKS5_mRNS_8ExecutorEENKUlRKNS_9RectangleIffEEE_clESD_
FN:114,py_reductions.cpp:_ZN2sb11max_elementINS_3PcfIffEEZN12_GLOBAL__N_120PyReductionsBindingsIffE8max_timeERKNS_6TensorIS2_EEmEUlRKS2_E_ZNS5_8max_timeES9_mEUlffE_EEDaRKNS6_IT_EEmOT0_OT1_RNS_8ExecutorE
FN:53,py_reductions.cpp:_ZN2sb19parallel_dim_reduceIfNS_3PcfIffEEZNS_11max_elementIS2_ZN12_GLOBAL__N_120PyReductionsBindingsIffE8max_timeERKNS_6TensorIS2_EEmEUlRKS2_E_ZNS6_8max_timeESA_mEUlffE_EEDaRKNS7_IT_EEmOT0_OT1_RNS_8ExecutorEEUlSF_SJ_E_EESG_RKNS7_ISJ_EEmSM_SO_
FN:66,py_reductions.cpp:_ZZN2sb19parallel_dim_reduceIfNS_3PcfIffEEZNS_11max_elementIS2_ZN12_GLOBAL__N_120PyReductionsBindingsIffE8max_timeERKNS_6TensorIS2_EEmEUlRKS2_E_ZNS6_8max_timeESA_mEUlffE_EEDaRKNS7_IT_EEmOT0_OT1_RNS_8ExecutorEEUlSF_SJ_E_EESG_RKNS7_ISJ_EEmSM_SO_ENKUlRKSt6vectorImSaImEEE_clESX_
FN:136,py_reductions.cpp:_ZZN2sb11max_elementINS_3PcfIffEEZN12_GLOBAL__N_120PyReductionsBindingsIffE8max_timeERKNS_6TensorIS2_EEmEUlRKS2_E_ZNS5_8max_timeES9_mEUlffE_EEDaRKNS6_IT_EEmOT0_OT1_RNS_8ExecutorEENKUlSE_SI_E_clINS_21Tensor1dValueIteratorIS8_EESR_EEDaSE_SI_
FN:101,_ZN2sb4meanINS_3PcfIddEEEENS_6TensorIT_EERKS5_mRNS_8ExecutorE
FN:92,_ZN2sb22parallel_tensor_reduceINS_3PcfIddEEZNS_4meanIS2_EENS_6TensorIT_EERKS6_mRNS_8ExecutorEEUlRKNS_9RectangleIddEEE_EES6_S8_mOT0_SA_
FN:53,_ZN2sb19parallel_dim_reduceINS_3PcfIddEES2_ZNS_22parallel_tensor_reduceIS2_ZNS_4meanIS2_EENS_6TensorIT_EERKS7_mRNS_8ExecutorEEUlRKNS_9RectangleIddEEE_EES7_S9_mOT0_SB_EUlS6_SH_E_EES7_RKNS5_ISH_EEmOT1_SB_
FN:66,_ZZN2sb19parallel_dim_reduceINS_3PcfIddEES2_ZNS_22parallel_tensor_reduceIS2_ZNS_4meanIS2_EENS_6TensorIT_EERKS7_mRNS_8ExecutorEEUlRKNS_9RectangleIddEEE_EES7_S9_mOT0_SB_EUlS6_SH_E_EES7_RKNS5_ISH_EEmOT1_SB_ENKUlRKSt6vectorImSaImEEE_clEST_
FN:94,_ZZN2sb22parallel_tensor_reduceINS_3PcfIddEEZNS_4meanIS2_EENS_6TensorIT_EERKS6_mRNS_8ExecutorEEUlRKNS_9RectangleIddEEE_EES6_S8_mOT0_SA_ENKUlS5_SG_E_clINS_21Tensor1dValueIteratorIKNS4_IS2_EEEESN_EEDaS5_SG_
FN:102,_ZZN2sb4meanINS_3PcfIddEEEENS_6TensorIT_EERKS5_mRNS_8ExecutorEENKUlRKNS_9RectangleIddEEE_clESD_
FN:114,py_reductions.cpp:_ZN2sb11max_elementINS_3PcfIddEEZN12_GLOBAL__N_120PyReductionsBindingsIddE8max_timeERKNS_6TensorIS2_EEmEUlRKS2_E_ZNS5_8max_timeES9_mEUlddE_EEDaRKNS6_IT_EEmOT0_OT1_RNS_8ExecutorE
FN:53,py_reductions.cpp:_ZN2sb19parallel_dim_reduceIdNS_3PcfIddEEZNS_11max_elementIS2_ZN12_GLOBAL__N_120PyReductionsBindingsIddE8max_timeERKNS_6TensorIS2_EEmEUlRKS2_E_ZNS6_8max_timeESA_mEUlddE_EEDaRKNS7_IT_EEmOT0_OT1_RNS_8ExecutorEEUlSF_SJ_E_EESG_RKNS7_ISJ_EEmSM_SO_
FN:66,py_reductions.cpp:_ZZN2sb19parallel_dim_reduceIdNS_3PcfIddEEZNS_11max_elementIS2_ZN12_GLOBAL__N_120PyReductionsBindingsIddE8max_timeERKNS_6TensorIS2_EEmEUlRKS2_E_ZNS6_8max_timeESA_mEUlddE_EEDaRKNS7_IT_EEmOT0_OT1_RNS_8ExecutorEEUlSF_SJ_E_EESG_RKNS7_ISJ_EEmSM_SO_ENKUlRKSt6vectorImSaImEEE_clESX_
FN:136,py_reductions.cpp:_ZZN2sb11max_elementINS_3PcfIddEEZN12_GLOBAL__N_120PyReductionsBindingsIddE8max_timeERKNS_6TensorIS2_EEmEUlRKS2_E_ZNS5_8max_timeES9_mEUlddE_EEDaRKNS6_IT_EEmOT0_OT1_RNS_8ExecutorEENKUlSE_SI_E_clINS_21Tensor1dValueIteratorIS8_EESR_EEDaSE_SI_
FNDA:16,_ZN2sb4meanINS_3PcfIffEEEENS_6TensorIT_EERKS5_mRNS_8ExecutorE
FNDA:16,_ZN2sb22parallel_tensor_reduceINS_3PcfIffEEZNS_4meanIS2_EENS_6TensorIT_EERKS6_mRNS_8ExecutorEEUlRKNS_9RectangleIffEEE_EES6_S8_mOT0_SA_
FNDA:16,_ZN2sb19parallel_dim_reduceINS_3PcfIffEES2_ZNS_22parallel_tensor_reduceIS2_ZNS_4meanIS2_EENS_6TensorIT_EERKS7_mRNS_8ExecutorEEUlRKNS_9RectangleIffEEE_EES7_S9_mOT0_SB_EUlS6_SH_E_EES7_RKNS5_ISH_EEmOT1_SB_
FNDA:53,_ZN2sb16check_reduce_dimEmm
FNDA:77,_ZZN2sb19parallel_dim_reduceINS_3PcfIffEES2_ZNS_22parallel_tensor_reduceIS2_ZNS_4meanIS2_EENS_6TensorIT_EERKS7_mRNS_8ExecutorEEUlRKNS_9RectangleIffEEE_EES7_S9_mOT0_SB_EUlS6_SH_E_EES7_RKNS5_ISH_EEmOT1_SB_ENKUlRKSt6vectorImSaImEEE_clEST_
FNDA:75,_ZZN2sb22parallel_tensor_reduceINS_3PcfIffEEZNS_4meanIS2_EENS_6TensorIT_EERKS6_mRNS_8ExecutorEEUlRKNS_9RectangleIffEEE_EES6_S8_mOT0_SA_ENKUlS5_SG_E_clINS_21Tensor1dValueIteratorIKNS4_IS2_EEEESN_EEDaS5_SG_
FNDA:217,_ZZN2sb4meanINS_3PcfIffEEEENS_6TensorIT_EERKS5_mRNS_8ExecutorEENKUlRKNS_9RectangleIffEEE_clESD_
FNDA:19,py_reductions.cpp:_ZN2sb11max_elementINS_3PcfIffEEZN12_GLOBAL__N_120PyReductionsBindingsIffE8max_timeERKNS_6TensorIS2_EEmEUlRKS2_E_ZNS5_8max_timeES9_mEUlffE_EEDaRKNS6_IT_EEmOT0_OT1_RNS_8ExecutorE
FNDA:15,py_reductions.cpp:_ZN2sb19parallel_dim_reduceIfNS_3PcfIffEEZNS_11max_elementIS2_ZN12_GLOBAL__N_120PyReductionsBindingsIffE8max_timeERKNS_6TensorIS2_EEmEUlRKS2_E_ZNS6_8max_timeESA_mEUlffE_EEDaRKNS7_IT_EEmOT0_OT1_RNS_8ExecutorEEUlSF_SJ_E_EESG_RKNS7_ISJ_EEmSM_SO_
FNDA:27,py_reductions.cpp:_ZZN2sb19parallel_dim_reduceIfNS_3PcfIffEEZNS_11max_elementIS2_ZN12_GLOBAL__N_120PyReductionsBindingsIffE8max_timeERKNS_6TensorIS2_EEmEUlRKS2_E_ZNS6_8max_timeESA_mEUlffE_EEDaRKNS7_IT_EEmOT0_OT1_RNS_8ExecutorEEUlSF_SJ_E_EESG_RKNS7_ISJ_EEmSM_SO_ENKUlRKSt6vectorImSaImEEE_clESX_
FNDA:27,py_reductions.cpp:_ZZN2sb11max_elementINS_3PcfIffEEZN12_GLOBAL__N_120PyReductionsBindingsIffE8max_timeERKNS_6TensorIS2_EEmEUlRKS2_E_ZNS5_8max_timeES9_mEUlffE_EEDaRKNS6_IT_EEmOT0_OT1_RNS_8ExecutorEENKUlSE_SI_E_clINS_21Tensor1dValueIteratorIS8_EESR_EEDaSE_SI_
FNDA:1,_ZN2sb4meanINS_3PcfIddEEEENS_6TensorIT_EERKS5_mRNS_8ExecutorE
FNDA:1,_ZN2sb22parallel_tensor_reduceINS_3PcfIddEEZNS_4meanIS2_EENS_6TensorIT_EERKS6_mRNS_8ExecutorEEUlRKNS_9RectangleIddEEE_EES6_S8_mOT0_SA_
FNDA:1,_ZN2sb19parallel_dim_reduceINS_3PcfIddEES2_ZNS_22parallel_tensor_reduceIS2_ZNS_4meanIS2_EENS_6TensorIT_EERKS7_mRNS_8ExecutorEEUlRKNS_9RectangleIddEEE_EES7_S9_mOT0_SB_EUlS6_SH_E_EES7_RKNS5_ISH_EEmOT1_SB_
FNDA:1,_ZZN2sb19parallel_dim_reduceINS_3PcfIddEES2_ZNS_22parallel_tensor_reduceIS2_ZNS_4meanIS2_EENS_6TensorIT_EERKS7_mRNS_8ExecutorEEUlRKNS_9RectangleIddEEE_EES7_S9_mOT0_SB_EUlS6_SH_E_EES7_RKNS5_ISH_EEmOT1_SB_ENKUlRKSt6vectorImSaImEEE_clEST_
FNDA:1,_ZZN2sb22parallel_tensor_reduceINS_3PcfIddEEZNS_4meanIS2_EENS_6TensorIT_EERKS6_mRNS_8ExecutorEEUlRKNS_9RectangleIddEEE_EES6_S8_mOT0_SA_ENKUlS5_SG_E_clINS_21Tensor1dValueIteratorIKNS4_IS2_EEEESN_EEDaS5_SG_
FNDA:4,_ZZN2sb4meanINS_3PcfIddEEEENS_6TensorIT_EERKS5_mRNS_8ExecutorEENKUlRKNS_9RectangleIddEEE_clESD_
FNDA:1,py_reductions.cpp:_ZN2sb11max_elementINS_3PcfIddEEZN12_GLOBAL__N_120PyReductionsBindingsIddE8max_timeERKNS_6TensorIS2_EEmEUlRKS2_E_ZNS5_8max_timeES9_mEUlddE_EEDaRKNS6_IT_EEmOT0_OT1_RNS_8ExecutorE
FNDA:1,py_reductions.cpp:_ZN2sb19parallel_dim_reduceIdNS_3PcfIddEEZNS_11max_elementIS2_ZN12_GLOBAL__N_120PyReductionsBindingsIddE8max_timeERKNS_6TensorIS2_EEmEUlRKS2_E_ZNS6_8max_timeESA_mEUlddE_EEDaRKNS7_IT_EEmOT0_OT1_RNS_8ExecutorEEUlSF_SJ_E_EESG_RKNS7_ISJ_EEmSM_SO_
FNDA:1,py_reductions.cpp:_ZZN2sb19parallel_dim_reduceIdNS_3PcfIddEEZNS_11max_elementIS2_ZN12_GLOBAL__N_120PyReductionsBindingsIddE8max_timeERKNS_6TensorIS2_EEmEUlRKS2_E_ZNS6_8max_timeESA_mEUlddE_EEDaRKNS7_IT_EEmOT0_OT1_RNS_8ExecutorEEUlSF_SJ_E_EESG_RKNS7_ISJ_EEmSM_SO_ENKUlRKSt6vectorImSaImEEE_clESX_
FNDA:1,py_reductions.cpp:_ZZN2sb11max_elementINS_3PcfIddEEZN12_GLOBAL__N_120PyReductionsBindingsIddE8max_timeERKNS_6TensorIS2_EEmEUlRKS2_E_ZNS5_8max_timeES9_mEUlddE_EEDaRKNS6_IT_EEmOT0_OT1_RNS_8ExecutorEENKUlSE_SI_E_clINS_21Tensor1dValueIteratorIS8_EESR_EEDaSE_SI_
FNF:9
FNH:9
DA:33,53
DA:34,53
DA:35,0
DA:36,0
DA:37,0
DA:38,0
DA:39,0
DA:40,53
DA:53,33
DA:54,33
DA:55,33
DA:56,33
DA:58,33
DA:59,33
DA:60,13
DA:61,13
DA:62,13
DA:64,33
DA:65,33
DA:66,106
DA:67,106
DA:69,106
DA:70,106
DA:71,91
DA:73,91
DA:74,91
DA:77,106
DA:78,106
DA:80,106
DA:81,106
DA:83,33
DA:84,33
DA:92,17
DA:93,17
DA:94,76
DA:95,76
DA:96,76
DA:97,17
DA:101,17
DA:102,221
DA:103,221
DA:104,221
DA:106,17
DA:107,17
DA:109,17
DA:110,17
DA:114,20
DA:115,20
DA:117,20
DA:126,20
DA:127,20
DA:128,4
DA:129,4
DA:130,4
DA:131,4
DA:132,4
DA:134,16
DA:135,16
DA:136,28
DA:137,28
DA:138,28
DA:139,28
DA:140,20
BRDA:34,0,0,0
BRDA:34,0,1,53
BRDA:59,0,0,13
BRDA:59,0,1,20
BRDA:70,0,0,91
BRDA:70,0,1,15
BRDA:127,0,0,4
BRDA:127,0,1,16
BRF:8
BRH:7
LF:84
LH:79
end_of_record
SF:/home/runner/work/stablebear/stablebear/include/sbear/algorithms/functional/reduce.hpp
FN:25,_ZN2sb7combineINS_3PcfIffEEEET_RKS3_S5_St8functionIFNS3_10value_typeERKNS3_14rectangle_typeEEE
FN:33,_ZZN2sb7combineINS_3PcfIffEEEET_RKS3_S5_St8functionIFNS3_10value_typeERKNS3_14rectangle_typeEEEENKUlRKNS_9RectangleIffEEE_clESG_
FN:39,_ZZN2sb7combineINS_3PcfIffEEEET_RKS3_S5_St8functionIFNS3_10value_typeERKNS3_14rectangle_typeEEEENKUlRKNS_9RectangleIffEEE0_clESG_
FN:195,_ZN2sb15parallel_reduceIN9__gnu_cxx17__normal_iteratorIPKNS_3PcfIffEESt6vectorIS4_SaIS4_EEEEEENSt15iterator_traitsIT_E10value_typeESC_SC_St8functionIFNSD_10value_type10value_typeERKNSG_14rectangle_typeEEEmRNS_8ExecutorE
FN:202,_ZZN2sb15parallel_reduceIN9__gnu_cxx17__normal_iteratorIPKNS_3PcfIffEESt6vectorIS4_SaIS4_EEEEEENSt15iterator_traitsIT_E10value_typeESC_SC_St8functionIFNSD_10value_type10value_typeERKNSG_14rectangle_typeEEEmRNS_8ExecutorEENKUlmRS5_E_clEmSP_
FN:121,_ZN2sb11AccumulatorINS_3PcfIffEEEC2ERKS3_
FN:115,_ZN2sb11AccumulatorINS_3PcfIffEEEC2EOS3_
FN:127,_ZN2sb11AccumulatorINS_3PcfIffEEEaSEOS3_
FN:139,_ZN2sb11AccumulatorINS_3PcfIffEEEaSERKS3_
FN:79,_ZN2sb11AccumulatorINS_3PcfIffEEEC2ESt8functionIFfRKNS_9RectangleIffEEEEm
FN:215,_ZZN2sb15parallel_reduceIN9__gnu_cxx17__normal_iteratorIPKNS_3PcfIffEESt6vectorIS4_SaIS4_EEEEEENSt15iterator_traitsIT_E10value_typeESC_SC_St8functionIFNSD_10value_type10value_typeERKNSG_14rectangle_typeEEEmRNS_8ExecutorEENKUlvE_clEv
FN:92,_ZN2sb11AccumulatorINS_3PcfIffEEEpLERKS2_
FN:151,_ZN2sb11AccumulatorINS_3PcfIffEEE13combine_with_ERKSt6vectorINS_9TimePointIffEESaIS6_EE
FN:161,_ZZN2sb11AccumulatorINS_3PcfIffEEE13combine_with_ERKSt6vectorINS_9TimePointIffEESaIS6_EEENKUlRKNS_9RectangleIffEEE_clESE_
FN:235,_ZZN2sb15parallel_reduceIN9__gnu_cxx17__normal_iteratorIPKNS_3PcfIffEESt6vectorIS4_SaIS4_EEEEEENSt15iterator_traitsIT_E10value_typeESC_SC_St8functionIFNSD_10value_type10value_typeERKNSG_14rectangle_typeEEEmRNS_8ExecutorEENKUlvE0_clEv
FN:103,_ZN2sb11AccumulatorINS_3PcfIffEEEpLERKS3_
FN:25,_ZN2sb7combineINS_3PcfIddEEEET_RKS3_S5_St8functionIFNS3_10value_typeERKNS3_14rectangle_typeEEE
FN:33,_ZZN2sb7combineINS_3PcfIddEEEET_RKS3_S5_St8functionIFNS3_10value_typeERKNS3_14rectangle_typeEEEENKUlRKNS_9RectangleIddEEE_clESG_
FN:39,_ZZN2sb7combineINS_3PcfIddEEEET_RKS3_S5_St8functionIFNS3_10value_typeERKNS3_14rectangle_typeEEEENKUlRKNS_9RectangleIddEEE0_clESG_
FN:195,_ZN2sb15parallel_reduceIN9__gnu_cxx17__normal_iteratorIPKNS_3PcfIddEESt6vectorIS4_SaIS4_EEEEEENSt15iterator_traitsIT_E10value_typeESC_SC_St8functionIFNSD_10value_type10value_typeERKNSG_14rectangle_typeEEEmRNS_8ExecutorE
FN:202,_ZZN2sb15parallel_reduceIN9__gnu_cxx17__normal_iteratorIPKNS_3PcfIddEESt6vectorIS4_SaIS4_EEEEEENSt15iterator_traitsIT_E10value_typeESC_SC_St8functionIFNSD_10value_type10value_typeERKNSG_14rectangle_typeEEEmRNS_8ExecutorEENKUlmRS5_E_clEmSP_
FN:121,_ZN2sb11AccumulatorINS_3PcfIddEEEC2ERKS3_
FN:115,_ZN2sb11AccumulatorINS_3PcfIddEEEC2EOS3_
FN:127,_ZN2sb11AccumulatorINS_3PcfIddEEEaSEOS3_
FN:139,_ZN2sb11AccumulatorINS_3PcfIddEEEaSERKS3_
FN:79,_ZN2sb11AccumulatorINS_3PcfIddEEEC2ESt8functionIFdRKNS_9RectangleIddEEEEm
FN:215,_ZZN2sb15parallel_reduceIN9__gnu_cxx17__normal_iteratorIPKNS_3PcfIddEESt6vectorIS4_SaIS4_EEEEEENSt15iterator_traitsIT_E10value_typeESC_SC_St8functionIFNSD_10value_type10value_typeERKNSG_14rectangle_typeEEEmRNS_8ExecutorEENKUlvE_clEv
FN:92,_ZN2sb11AccumulatorINS_3PcfIddEEEpLERKS2_
FN:151,_ZN2sb11AccumulatorINS_3PcfIddEEE13combine_with_ERKSt6vectorINS_9TimePointIddEESaIS6_EE
FN:161,_ZZN2sb11AccumulatorINS_3PcfIddEEE13combine_with_ERKSt6vectorINS_9TimePointIddEESaIS6_EEENKUlRKNS_9RectangleIddEEE_clESE_
FN:235,_ZZN2sb15parallel_reduceIN9__gnu_cxx17__normal_iteratorIPKNS_3PcfIddEESt6vectorIS4_SaIS4_EEEEEENSt15iterator_traitsIT_E10value_typeESC_SC_St8functionIFNSD_10value_type10value_typeERKNSG_14rectangle_typeEEEmRNS_8ExecutorEENKUlvE0_clEv
FN:103,_ZN2sb11AccumulatorINS_3PcfIddEEEpLERKS3_
FN:25,_ZN2sb7combineINS_3PcfIiiEEEET_RKS3_S5_St8functionIFNS3_10value_typeERKNS3_14rectangle_typeEEE
FN:33,_ZZN2sb7combineINS_3PcfIiiEEEET_RKS3_S5_St8functionIFNS3_10value_typeERKNS3_14rectangle_typeEEEENKUlRKNS_9RectangleIiiEEE_clESG_
FN:39,_ZZN2sb7combineINS_3PcfIiiEEEET_RKS3_S5_St8functionIFNS3_10value_typeERKNS3_14rectangle_typeEEEENKUlRKNS_9RectangleIiiEEE0_clESG_
FN:195,_ZN2sb15parallel_reduceIN9__gnu_cxx17__normal_iteratorIPKNS_3PcfIiiEESt6vectorIS4_SaIS4_EEEEEENSt15iterator_traitsIT_E10value_typeESC_SC_St8functionIFNSD_10value_type10value_typeERKNSG_14rectangle_typeEEEmRNS_8ExecutorE
FN:202,_ZZN2sb15parallel_reduceIN9__gnu_cxx17__normal_iteratorIPKNS_3PcfIiiEESt6vectorIS4_SaIS4_EEEEEENSt15iterator_traitsIT_E10value_typeESC_SC_St8functionIFNSD_10value_type10value_typeERKNSG_14rectangle_typeEEEmRNS_8ExecutorEENKUlmRS5_E_clEmSP_
FN:121,_ZN2sb11AccumulatorINS_3PcfIiiEEEC2ERKS3_
FN:115,_ZN2sb11AccumulatorINS_3PcfIiiEEEC2EOS3_
FN:127,_ZN2sb11AccumulatorINS_3PcfIiiEEEaSEOS3_
FN:139,_ZN2sb11AccumulatorINS_3PcfIiiEEEaSERKS3_
FN:79,_ZN2sb11AccumulatorINS_3PcfIiiEEEC2ESt8functionIFiRKNS_9RectangleIiiEEEEm
FN:215,_ZZN2sb15parallel_reduceIN9__gnu_cxx17__normal_iteratorIPKNS_3PcfIiiEESt6vectorIS4_SaIS4_EEEEEENSt15iterator_traitsIT_E10value_typeESC_SC_St8functionIFNSD_10value_type10value_typeERKNSG_14rectangle_typeEEEmRNS_8ExecutorEENKUlvE_clEv
FN:92,_ZN2sb11AccumulatorINS_3PcfIiiEEEpLERKS2_
FN:151,_ZN2sb11AccumulatorINS_3PcfIiiEEE13combine_with_ERKSt6vectorINS_9TimePointIiiEESaIS6_EE
FN:161,_ZZN2sb11AccumulatorINS_3PcfIiiEEE13combine_with_ERKSt6vectorINS_9TimePointIiiEESaIS6_EEENKUlRKNS_9RectangleIiiEEE_clESE_
FN:235,_ZZN2sb15parallel_reduceIN9__gnu_cxx17__normal_iteratorIPKNS_3PcfIiiEESt6vectorIS4_SaIS4_EEEEEENSt15iterator_traitsIT_E10value_typeESC_SC_St8functionIFNSD_10value_type10value_typeERKNSG_14rectangle_typeEEEmRNS_8ExecutorEENKUlvE0_clEv
FN:103,_ZN2sb11AccumulatorINS_3PcfIiiEEEpLERKS3_
FN:25,_ZN2sb7combineINS_3PcfIllEEEET_RKS3_S5_St8functionIFNS3_10value_typeERKNS3_14rectangle_typeEEE
FN:33,_ZZN2sb7combineINS_3PcfIllEEEET_RKS3_S5_St8functionIFNS3_10value_typeERKNS3_14rectangle_typeEEEENKUlRKNS_9RectangleIllEEE_clESG_
FN:39,_ZZN2sb7combineINS_3PcfIllEEEET_RKS3_S5_St8functionIFNS3_10value_typeERKNS3_14rectangle_typeEEEENKUlRKNS_9RectangleIllEEE0_clESG_
FN:195,_ZN2sb15parallel_reduceIN9__gnu_cxx17__normal_iteratorIPKNS_3PcfIllEESt6vectorIS4_SaIS4_EEEEEENSt15iterator_traitsIT_E10value_typeESC_SC_St8functionIFNSD_10value_type10value_typeERKNSG_14rectangle_typeEEEmRNS_8ExecutorE
FN:202,_ZZN2sb15parallel_reduceIN9__gnu_cxx17__normal_iteratorIPKNS_3PcfIllEESt6vectorIS4_SaIS4_EEEEEENSt15iterator_traitsIT_E10value_typeESC_SC_St8functionIFNSD_10value_type10value_typeERKNSG_14rectangle_typeEEEmRNS_8ExecutorEENKUlmRS5_E_clEmSP_
FN:121,_ZN2sb11AccumulatorINS_3PcfIllEEEC2ERKS3_
FN:115,_ZN2sb11AccumulatorINS_3PcfIllEEEC2EOS3_
FN:127,_ZN2sb11AccumulatorINS_3PcfIllEEEaSEOS3_
FN:139,_ZN2sb11AccumulatorINS_3PcfIllEEEaSERKS3_
FN:79,_ZN2sb11AccumulatorINS_3PcfIllEEEC2ESt8functionIFlRKNS_9RectangleIllEEEEm
FN:215,_ZZN2sb15parallel_reduceIN9__gnu_cxx17__normal_iteratorIPKNS_3PcfIllEESt6vectorIS4_SaIS4_EEEEEENSt15iterator_traitsIT_E10value_typeESC_SC_St8functionIFNSD_10value_type10value_typeERKNSG_14rectangle_typeEEEmRNS_8ExecutorEENKUlvE_clEv
FN:92,_ZN2sb11AccumulatorINS_3PcfIllEEEpLERKS2_
FN:151,_ZN2sb11AccumulatorINS_3PcfIllEEE13combine_with_ERKSt6vectorINS_9TimePointIllEESaIS6_EE
FN:161,_ZZN2sb11AccumulatorINS_3PcfIllEEE13combine_with_ERKSt6vectorINS_9TimePointIllEESaIS6_EEENKUlRKNS_9RectangleIllEEE_clESE_
FN:235,_ZZN2sb15parallel_reduceIN9__gnu_cxx17__normal_iteratorIPKNS_3PcfIllEESt6vectorIS4_SaIS4_EEEEEENSt15iterator_traitsIT_E10value_typeESC_SC_St8functionIFNSD_10value_type10value_typeERKNSG_14rectangle_typeEEEmRNS_8ExecutorEENKUlvE0_clEv
FN:103,_ZN2sb11AccumulatorINS_3PcfIllEEEpLERKS3_
FN:59,_ZN2sb6reduceINS_21Tensor1dValueIteratorIKNS_6TensorINS_3PcfIffEEEEEES4_EET0_T_S9_St8functionIFNS8_10value_typeERKNS8_14rectangle_typeEEE
FN:60,_ZZN2sb6reduceINS_21Tensor1dValueIteratorIKNS_6TensorINS_3PcfIffEEEEEES4_EET0_T_S9_St8functionIFNS8_10value_typeERKNS8_14rectangle_typeEEEENKUlRKS4_SI_E_clESI_SI_
FN:59,_ZN2sb6reduceINS_21Tensor1dValueIteratorIKNS_6TensorINS_3PcfIddEEEEEES4_EET0_T_S9_St8functionIFNS8_10value_typeERKNS8_14rectangle_typeEEE
FN:60,_ZZN2sb6reduceINS_21Tensor1dValueIteratorIKNS_6TensorINS_3PcfIddEEEEEES4_EET0_T_S9_St8functionIFNS8_10value_typeERKNS8_14rectangle_typeEEEENKUlRKS4_SI_E_clESI_SI_
FN:195,_ZN2sb15parallel_reduceIN9__gnu_cxx17__normal_iteratorIPNS_3PcfIddEESt6vectorIS4_SaIS4_EEEEEENSt15iterator_traitsIT_E10value_typeESB_SB_St8functionIFNSC_10value_type10value_typeERKNSF_14rectangle_typeEEEmRNS_8ExecutorE
FN:202,_ZZN2sb15parallel_reduceIN9__gnu_cxx17__normal_iteratorIPNS_3PcfIddEESt6vectorIS4_SaIS4_EEEEEENSt15iterator_traitsIT_E10value_typeESB_SB_St8functionIFNSC_10value_type10value_typeERKNSF_14rectangle_typeEEEmRNS_8ExecutorEENKUlmRKS4_E_clEmSP_
FN:215,_ZZN2sb15parallel_reduceIN9__gnu_cxx17__normal_iteratorIPNS_3PcfIddEESt6vectorIS4_SaIS4_EEEEEENSt15iterator_traitsIT_E10value_typeESB_SB_St8functionIFNSC_10value_type10value_typeERKNSF_14rectangle_typeEEEmRNS_8ExecutorEENKUlvE_clEv
FN:235,_ZZN2sb15parallel_reduceIN9__gnu_cxx17__normal_iteratorIPNS_3PcfIddEESt6vectorIS4_SaIS4_EEEEEENSt15iterator_traitsIT_E10value_typeESB_SB_St8functionIFNSC_10value_type10value_typeERKNSF_14rectangle_typeEEEmRNS_8ExecutorEENKUlvE0_clEv
FNDA:250,_ZN2sb7combineINS_3PcfIffEEEET_RKS3_S5_St8functionIFNS3_10value_typeERKNS3_14rectangle_typeEEE
FNDA:288,_ZZN2sb7combineINS_3PcfIffEEEET_RKS3_S5_St8functionIFNS3_10value_typeERKNS3_14rectangle_typeEEEENKUlRKNS_9RectangleIffEEE_clESG_
FNDA:288,_ZZN2sb7combineINS_3PcfIffEEEET_RKS3_S5_St8functionIFNS3_10value_typeERKNS3_14rectangle_typeEEEENKUlRKNS_9RectangleIffEEE0_clESG_
FNDA:1,_ZN2sb15parallel_reduceIN9__gnu_cxx17__normal_iteratorIPKNS_3PcfIffEESt6vectorIS4_SaIS4_EEEEEENSt15iterator_traitsIT_E10value_typeESC_SC_St8functionIFNSD_10value_type10value_typeERKNSG_14rectangle_typeEEEmRNS_8ExecutorE
FNDA:2,_ZZN2sb15parallel_reduceIN9__gnu_cxx17__normal_iteratorIPKNS_3PcfIffEESt6vectorIS4_SaIS4_EEEEEENSt15iterator_traitsIT_E10value_typeESC_SC_St8functionIFNSD_10value_type10value_typeERKNSG_14rectangle_typeEEEmRNS_8ExecutorEENKUlmRS5_E_clEmSP_
FNDA:1,_ZN2sb11AccumulatorINS_3PcfIffEEEC2ERKS3_
FNDA:0,_ZN2sb11AccumulatorINS_3PcfIffEEEC2EOS3_
FNDA:0,_ZN2sb11AccumulatorINS_3PcfIffEEEaSEOS3_
FNDA:0,_ZN2sb11AccumulatorINS_3PcfIffEEEaSERKS3_
FNDA:1,_ZN2sb11AccumulatorINS_3PcfIffEEEC2ESt8functionIFfRKNS_9RectangleIffEEEEm
FNDA:1,_ZZN2sb15parallel_reduceIN9__gnu_cxx17__normal_iteratorIPKNS_3PcfIffEESt6vectorIS4_SaIS4_EEEEEENSt15iterator_traitsIT_E10value_typeESC_SC_St8functionIFNSD_10value_type10value_typeERKNSG_14rectangle_typeEEEmRNS_8ExecutorEENKUlvE_clEv
FNDA:2,_ZN2sb11AccumulatorINS_3PcfIffEEEpLERKS2_
FNDA:1,_ZN2sb11AccumulatorINS_3PcfIffEEE13combine_with_ERKSt6vectorINS_9TimePointIffEESaIS6_EE
FNDA:2,_ZZN2sb11AccumulatorINS_3PcfIffEEE13combine_with_ERKSt6vectorINS_9TimePointIffEESaIS6_EEENKUlRKNS_9RectangleIffEEE_clESE_
FNDA:0,_ZZN2sb15parallel_reduceIN9__gnu_cxx17__normal_iteratorIPKNS_3PcfIffEESt6vectorIS4_SaIS4_EEEEEENSt15iterator_traitsIT_E10value_typeESC_SC_St8functionIFNSD_10value_type10value_typeERKNSG_14rectangle_typeEEEmRNS_8ExecutorEENKUlvE0_clEv
FNDA:0,_ZN2sb11AccumulatorINS_3PcfIffEEEpLERKS3_
FNDA:31,_ZN2sb7combineINS_3PcfIddEEEET_RKS3_S5_St8functionIFNS3_10value_typeERKNS3_14rectangle_typeEEE
FNDA:71,_ZZN2sb7combineINS_3PcfIddEEEET_RKS3_S5_St8functionIFNS3_10value_typeERKNS3_14rectangle_typeEEEENKUlRKNS_9RectangleIddEEE_clESG_
FNDA:71,_ZZN2sb7combineINS_3PcfIddEEEET_RKS3_S5_St8functionIFNS3_10value_typeERKNS3_14rectangle_typeEEEENKUlRKNS_9RectangleIddEEE0_clESG_
FNDA:1,_ZN2sb15parallel_reduceIN9__gnu_cxx17__normal_iteratorIPKNS_3PcfIddEESt6vectorIS4_SaIS4_EEEEEENSt15iterator_traitsIT_E10value_typeESC_SC_St8functionIFNSD_10value_type10value_typeERKNSG_14rectangle_typeEEEmRNS_8ExecutorE
FNDA:2,_ZZN2sb15parallel_reduceIN9__gnu_cxx17__normal_iteratorIPKNS_3PcfIddEESt6vectorIS4_SaIS4_EEEEEENSt15iterator_traitsIT_E10value_typeESC_SC_St8functionIFNSD_10value_type10value_typeERKNSG_14rectangle_typeEEEmRNS_8ExecutorEENKUlmRS5_E_clEmSP_
FNDA:2,_ZN2sb11AccumulatorINS_3PcfIddEEEC2ERKS3_
FNDA:0,_ZN2sb11AccumulatorINS_3PcfIddEEEC2EOS3_
FNDA:0,_ZN2sb11AccumulatorINS_3PcfIddEEEaSEOS3_
FNDA:0,_ZN2sb11AccumulatorINS_3PcfIddEEEaSERKS3_
FNDA:2,_ZN2sb11AccumulatorINS_3PcfIddEEEC2ESt8functionIFdRKNS_9RectangleIddEEEEm
FNDA:1,_ZZN2sb15parallel_reduceIN9__gnu_cxx17__normal_iteratorIPKNS_3PcfIddEESt6vectorIS4_SaIS4_EEEEEENSt15iterator_traitsIT_E10value_typeESC_SC_St8functionIFNSD_10value_type10value_typeERKNSG_14rectangle_typeEEEmRNS_8ExecutorEENKUlvE_clEv
FNDA:5,_ZN2sb11AccumulatorINS_3PcfIddEEEpLERKS2_
FNDA:3,_ZN2sb11AccumulatorINS_3PcfIddEEE13combine_with_ERKSt6vectorINS_9TimePointIddEESaIS6_EE
FNDA:16,_ZZN2sb11AccumulatorINS_3PcfIddEEE13combine_with_ERKSt6vectorINS_9TimePointIddEESaIS6_EEENKUlRKNS_9RectangleIddEEE_clESE_
FNDA:0,_ZZN2sb15parallel_reduceIN9__gnu_cxx17__normal_iteratorIPKNS_3PcfIddEESt6vectorIS4_SaIS4_EEEEEENSt15iterator_traitsIT_E10value_typeESC_SC_St8functionIFNSD_10value_type10value_typeERKNSG_14rectangle_typeEEEmRNS_8ExecutorEENKUlvE0_clEv
FNDA:0,_ZN2sb11AccumulatorINS_3PcfIddEEEpLERKS3_
FNDA:22,_ZN2sb7combineINS_3PcfIiiEEEET_RKS3_S5_St8functionIFNS3_10value_typeERKNS3_14rectangle_typeEEE
FNDA:41,_ZZN2sb7combineINS_3PcfIiiEEEET_RKS3_S5_St8functionIFNS3_10value_typeERKNS3_14rectangle_typeEEEENKUlRKNS_9RectangleIiiEEE_clESG_
FNDA:41,_ZZN2sb7combineINS_3PcfIiiEEEET_RKS3_S5_St8functionIFNS3_10value_typeERKNS3_14rectangle_typeEEEENKUlRKNS_9RectangleIiiEEE0_clESG_
FNDA:0,_ZN2sb15parallel_reduceIN9__gnu_cxx17__normal_iteratorIPKNS_3PcfIiiEESt6vectorIS4_SaIS4_EEEEEENSt15iterator_traitsIT_E10value_typeESC_SC_St8functionIFNSD_10value_type10value_typeERKNSG_14rectangle_typeEEEmRNS_8ExecutorE
FNDA:0,_ZZN2sb15parallel_reduceIN9__gnu_cxx17__normal_iteratorIPKNS_3PcfIiiEESt6vectorIS4_SaIS4_EEEEEENSt15iterator_traitsIT_E10value_typeESC_SC_St8functionIFNSD_10value_type10value_typeERKNSG_14rectangle_typeEEEmRNS_8ExecutorEENKUlmRS5_E_clEmSP_
FNDA:0,_ZN2sb11AccumulatorINS_3PcfIiiEEEC2ERKS3_
FNDA:0,_ZN2sb11AccumulatorINS_3PcfIiiEEEC2EOS3_
FNDA:0,_ZN2sb11AccumulatorINS_3PcfIiiEEEaSEOS3_
FNDA:0,_ZN2sb11AccumulatorINS_3PcfIiiEEEaSERKS3_
FNDA:0,_ZN2sb11AccumulatorINS_3PcfIiiEEEC2ESt8functionIFiRKNS_9RectangleIiiEEEEm
FNDA:0,_ZZN2sb15parallel_reduceIN9__gnu_cxx17__normal_iteratorIPKNS_3PcfIiiEESt6vectorIS4_SaIS4_EEEEEENSt15iterator_traitsIT_E10value_typeESC_SC_St8functionIFNSD_10value_type10value_typeERKNSG_14rectangle_typeEEEmRNS_8ExecutorEENKUlvE_clEv
FNDA:0,_ZN2sb11AccumulatorINS_3PcfIiiEEEpLERKS2_
FNDA:0,_ZN2sb11AccumulatorINS_3PcfIiiEEE13combine_with_ERKSt6vectorINS_9TimePointIiiEESaIS6_EE
FNDA:0,_ZZN2sb11AccumulatorINS_3PcfIiiEEE13combine_with_ERKSt6vectorINS_9TimePointIiiEESaIS6_EEENKUlRKNS_9RectangleIiiEEE_clESE_
FNDA:0,_ZZN2sb15parallel_reduceIN9__gnu_cxx17__normal_iteratorIPKNS_3PcfIiiEESt6vectorIS4_SaIS4_EEEEEENSt15iterator_traitsIT_E10value_typeESC_SC_St8functionIFNSD_10value_type10value_typeERKNSG_14rectangle_typeEEEmRNS_8ExecutorEENKUlvE0_clEv
FNDA:0,_ZN2sb11AccumulatorINS_3PcfIiiEEEpLERKS3_
FNDA:22,_ZN2sb7combineINS_3PcfIllEEEET_RKS3_S5_St8functionIFNS3_10value_typeERKNS3_14rectangle_typeEEE
FNDA:41,_ZZN2sb7combineINS_3PcfIllEEEET_RKS3_S5_St8functionIFNS3_10value_typeERKNS3_14rectangle_typeEEEENKUlRKNS_9RectangleIllEEE_clESG_
FNDA:41,_ZZN2sb7combineINS_3PcfIllEEEET_RKS3_S5_St8functionIFNS3_10value_typeERKNS3_14rectangle_typeEEEENKUlRKNS_9RectangleIllEEE0_clESG_
FNDA:0,_ZN2sb15parallel_reduceIN9__gnu_cxx17__normal_iteratorIPKNS_3PcfIllEESt6vectorIS4_SaIS4_EEEEEENSt15iterator_traitsIT_E10value_typeESC_SC_St8functionIFNSD_10value_type10value_typeERKNSG_14rectangle_typeEEEmRNS_8ExecutorE
FNDA:0,_ZZN2sb15parallel_reduceIN9__gnu_cxx17__normal_iteratorIPKNS_3PcfIllEESt6vectorIS4_SaIS4_EEEEEENSt15iterator_traitsIT_E10value_typeESC_SC_St8functionIFNSD_10value_type10value_typeERKNSG_14rectangle_typeEEEmRNS_8ExecutorEENKUlmRS5_E_clEmSP_
FNDA:0,_ZN2sb11AccumulatorINS_3PcfIllEEEC2ERKS3_
FNDA:0,_ZN2sb11AccumulatorINS_3PcfIllEEEC2EOS3_
FNDA:0,_ZN2sb11AccumulatorINS_3PcfIllEEEaSEOS3_
FNDA:0,_ZN2sb11AccumulatorINS_3PcfIllEEEaSERKS3_
FNDA:0,_ZN2sb11AccumulatorINS_3PcfIllEEEC2ESt8functionIFlRKNS_9RectangleIllEEEEm
FNDA:0,_ZZN2sb15parallel_reduceIN9__gnu_cxx17__normal_iteratorIPKNS_3PcfIllEESt6vectorIS4_SaIS4_EEEEEENSt15iterator_traitsIT_E10value_typeESC_SC_St8functionIFNSD_10value_type10value_typeERKNSG_14rectangle_typeEEEmRNS_8ExecutorEENKUlvE_clEv
FNDA:0,_ZN2sb11AccumulatorINS_3PcfIllEEEpLERKS2_
FNDA:0,_ZN2sb11AccumulatorINS_3PcfIllEEE13combine_with_ERKSt6vectorINS_9TimePointIllEESaIS6_EE
FNDA:0,_ZZN2sb11AccumulatorINS_3PcfIllEEE13combine_with_ERKSt6vectorINS_9TimePointIllEESaIS6_EEENKUlRKNS_9RectangleIllEEE_clESE_
FNDA:0,_ZZN2sb15parallel_reduceIN9__gnu_cxx17__normal_iteratorIPKNS_3PcfIllEESt6vectorIS4_SaIS4_EEEEEENSt15iterator_traitsIT_E10value_typeESC_SC_St8functionIFNSD_10value_type10value_typeERKNSG_14rectangle_typeEEEmRNS_8ExecutorEENKUlvE0_clEv
FNDA:0,_ZN2sb11AccumulatorINS_3PcfIllEEEpLERKS3_
FNDA:75,_ZN2sb6reduceINS_21Tensor1dValueIteratorIKNS_6TensorINS_3PcfIffEEEEEES4_EET0_T_S9_St8functionIFNS8_10value_typeERKNS8_14rectangle_typeEEE
FNDA:207,_ZZN2sb6reduceINS_21Tensor1dValueIteratorIKNS_6TensorINS_3PcfIffEEEEEES4_EET0_T_S9_St8functionIFNS8_10value_typeERKNS8_14rectangle_typeEEEENKUlRKS4_SI_E_clESI_SI_
FNDA:1,_ZN2sb6reduceINS_21Tensor1dValueIteratorIKNS_6TensorINS_3PcfIddEEEEEES4_EET0_T_S9_St8functionIFNS8_10value_typeERKNS8_14rectangle_typeEEE
FNDA:2,_ZZN2sb6reduceINS_21Tensor1dValueIteratorIKNS_6TensorINS_3PcfIddEEEEEES4_EET0_T_S9_St8functionIFNS8_10value_typeERKNS8_14rectangle_typeEEEENKUlRKS4_SI_E_clESI_SI_
FNDA:1,_ZN2sb15parallel_reduceIN9__gnu_cxx17__normal_iteratorIPNS_3PcfIddEESt6vectorIS4_SaIS4_EEEEEENSt15iterator_traitsIT_E10value_typeESB_SB_St8functionIFNSC_10value_type10value_typeERKNSF_14rectangle_typeEEEmRNS_8ExecutorE
FNDA:3,_ZZN2sb15parallel_reduceIN9__gnu_cxx17__normal_iteratorIPNS_3PcfIddEESt6vectorIS4_SaIS4_EEEEEENSt15iterator_traitsIT_E10value_typeESB_SB_St8functionIFNSC_10value_type10value_typeERKNSF_14rectangle_typeEEEmRNS_8ExecutorEENKUlmRKS4_E_clEmSP_
FNDA:1,_ZZN2sb15parallel_reduceIN9__gnu_cxx17__normal_iteratorIPNS_3PcfIddEESt6vectorIS4_SaIS4_EEEEEENSt15iterator_traitsIT_E10value_typeESB_SB_St8functionIFNSC_10value_type10value_typeERKNSF_14rectangle_typeEEEmRNS_8ExecutorEENKUlvE_clEv
FNDA:0,_ZZN2sb15parallel_reduceIN9__gnu_cxx17__normal_iteratorIPNS_3PcfIddEESt6vectorIS4_SaIS4_EEEEEENSt15iterator_traitsIT_E10value_typeESB_SB_St8functionIFNSC_10value_type10value_typeERKNSF_14rectangle_typeEEEmRNS_8ExecutorEENKUlvE0_clEv
FNF:18
FNH:13
DA:25,325
DA:26,325
DA:27,325
DA:28,325
DA:30,325
DA:32,325
DA:33,441
DA:34,325
DA:36,325
DA:37,325
DA:39,441
DA:40,441
DA:43,441
DA:44,433
DA:45,433
DA:46,433
DA:47,433
DA:49,441
DA:50,441
DA:52,325
DA:54,325
DA:55,325
DA:59,76
DA:60,209
DA:61,209
DA:62,209
DA:63,76
DA:79,3
DA:80,3
DA:81,3
DA:82,3
DA:83,3
DA:92,7
DA:93,7
DA:94,3
DA:95,3
DA:96,3
DA:97,3
DA:98,4
DA:99,4
DA:100,7
DA:103,0
DA:104,0
DA:105,0
DA:106,0
DA:115,0
DA:116,0
DA:117,0
DA:118,0
DA:121,3
DA:122,3
DA:123,3
DA:124,3
DA:127,0
DA:128,0
DA:129,0
DA:130,0
DA:131,0
DA:132,0
DA:133,0
DA:134,0
DA:135,0
DA:136,0
DA:139,0
DA:140,0
DA:141,0
DA:142,0
DA:143,0
DA:144,0
DA:145,0
DA:146,0
DA:147,0
DA:148,0
DA:151,4
DA:152,4
DA:153,4
DA:155,4
DA:156,4
DA:157,4
DA:159,4
DA:161,18
DA:163,18
DA:164,18
DA:166,18
DA:167,18
DA:168,18
DA:169,18
DA:171,18
DA:172,18
DA:174,18
DA:175,18
DA:177,4
DA:178,4
DA:179,4
DA:195,3
DA:196,3
DA:198,3
DA:199,3
DA:200,3
DA:202,7
DA:204,3
DA:205,3
DA:207,3
DA:209,3
DA:210,3
DA:211,6
DA:212,3
DA:213,3
DA:214,3
DA:215,3
DA:216,10
DA:217,7
DA:218,7
DA:219,7
DA:220,3
DA:221,3
DA:223,3
DA:224,0
DA:225,0
DA:226,0
DA:228,0
DA:230,0
DA:231,0
DA:232,0
DA:233,0
DA:234,0
DA:235,0
DA:236,0
DA:237,0
DA:238,0
DA:239,0
DA:240,0
DA:241,0
DA:242,0
DA:243,0
DA:244,0
DA:245,0
DA:246,0
DA:248,0
DA:250,3
DA:252,3
DA:253,3
BRDA:43,0,0,323
BRDA:43,0,1,118
BRDA:43,1,2,116
BRDA:43,1,3,2
BRDA:43,2,4,0
BRDA:43,2,5,2
BRDA:93,0,0,3
BRDA:93,0,1,4
BRDA:128,0,0,-
BRDA:128,0,1,-
BRDA:140,0,0,-
BRDA:140,0,1,-
BRDA:166,0,0,18
BRDA:166,0,1,0
BRDA:166,1,2,-
BRDA:166,1,3,-
BRDA:211,0,0,3
BRDA:211,0,1,3
BRDA:216,0,0,7
BRDA:216,0,1,3
BRDA:223,0,0,0
BRDA:223,0,1,3
BRDA:230,0,0,-
BRDA:230,0,1,-
BRDA:236,0,0,-
BRDA:236,0,1,-
BRDA:242,0,0,-
BRDA:242,0,1,-
BRF:28
BRH:13
LF:180
LH:123
end_of_record
SF:/home/runner/work/stablebear/stablebear/include/sbear/algorithms/subdivide.hpp
FN:12,_ZN2sb9subdivideEmm
FNDA:384,_ZN2sb9subdivideEmm
FNF:1
FNH:1
DA:12,384
DA:13,384
DA:14,934
DA:15,1318
DA:16,1318
DA:17,117
DA:18,117
DA:19,117
DA:21,1201
DA:22,1201
DA:23,267
DA:24,267
DA:25,267
DA:26,267
DA:27,1201
DA:28,384
BRDA:16,0,0,934
BRDA:16,0,1,384
BRDA:16,1,2,117
BRDA:16,1,3,817
BRDA:22,0,0,267
BRDA:22,0,1,934
BRF:6
BRH:6
LF:16
LH:16
end_of_record
SF:/home/runner/work/stablebear/stablebear/include/sbear/algorithms/tensor_eval.hpp
FN:22,_ZN2sb11tensor_evalIffTkNS_8IsTensorENS_6TensorINS_3PcfIffEEEETkNS_8IsTensorE11NumpyTensorIfEQ9EvaluableINT1_10value_typeET_T0_EEEvRKS7_S9_RT2_
FN:23,_ZZN2sb11tensor_evalIffTkNS_8IsTensorENS_6TensorINS_3PcfIffEEEETkNS_8IsTensorE11NumpyTensorIfEQ9EvaluableINT1_10value_typeET_T0_EEEvRKS7_S9_RT2_ENKUlRKSt6vectorImSaImEEE_clESJ_
FN:39,_ZN2sb11tensor_evalIffTkNS_8IsTensorENS_6TensorINS_3PcfIffEEEETkNS_8IsTensorE11NumpyTensorIfETkNS_8IsTensorES6_Q9EvaluableINT1_10value_typeET_T0_EEEvRKS7_RKT2_RT3_
FN:46,_ZZN2sb11tensor_evalIffTkNS_8IsTensorENS_6TensorINS_3PcfIffEEEETkNS_8IsTensorE11NumpyTensorIfETkNS_8IsTensorES6_Q9EvaluableINT1_10value_typeET_T0_EEEvRKS7_RKT2_RT3_ENKUlRKSt6vectorImSaImEEE_clESM_
FN:54,_ZZN2sb11tensor_evalIffTkNS_8IsTensorENS_6TensorINS_3PcfIffEEEETkNS_8IsTensorE11NumpyTensorIfETkNS_8IsTensorES6_Q9EvaluableINT1_10value_typeET_T0_EEEvRKS7_RKT2_RT3_ENKUlmmE_clEmm
FN:64,_ZZN2sb11tensor_evalIffTkNS_8IsTensorENS_6TensorINS_3PcfIffEEEETkNS_8IsTensorE11NumpyTensorIfETkNS_8IsTensorES6_Q9EvaluableINT1_10value_typeET_T0_EEEvRKS7_RKT2_RT3_ENKUlRKSt6vectorImSaImEEE0_clESM_
FN:39,_ZN2sb11tensor_evalIffTkNS_8IsTensorENS_6TensorINS_3PcfIffEEEETkNS_8IsTensorENS1_IfEETkNS_8IsTensorES5_Q9EvaluableINT1_10value_typeET_T0_EEEvRKS6_RKT2_RT3_
FN:46,_ZZN2sb11tensor_evalIffTkNS_8IsTensorENS_6TensorINS_3PcfIffEEEETkNS_8IsTensorENS1_IfEETkNS_8IsTensorES5_Q9EvaluableINT1_10value_typeET_T0_EEEvRKS6_RKT2_RT3_ENKUlRKSt6vectorImSaImEEE_clESL_
FN:54,_ZZN2sb11tensor_evalIffTkNS_8IsTensorENS_6TensorINS_3PcfIffEEEETkNS_8IsTensorENS1_IfEETkNS_8IsTensorES5_Q9EvaluableINT1_10value_typeET_T0_EEEvRKS6_RKT2_RT3_ENKUlmmE_clEmm
FN:64,_ZZN2sb11tensor_evalIffTkNS_8IsTensorENS_6TensorINS_3PcfIffEEEETkNS_8IsTensorENS1_IfEETkNS_8IsTensorES5_Q9EvaluableINT1_10value_typeET_T0_EEEvRKS6_RKT2_RT3_ENKUlRKSt6vectorImSaImEEE0_clESL_
FN:22,_ZN2sb11tensor_evalIddTkNS_8IsTensorENS_6TensorINS_3PcfIddEEEETkNS_8IsTensorE11NumpyTensorIdEQ9EvaluableINT1_10value_typeET_T0_EEEvRKS7_S9_RT2_
FN:23,_ZZN2sb11tensor_evalIddTkNS_8IsTensorENS_6TensorINS_3PcfIddEEEETkNS_8IsTensorE11NumpyTensorIdEQ9EvaluableINT1_10value_typeET_T0_EEEvRKS7_S9_RT2_ENKUlRKSt6vectorImSaImEEE_clESJ_
FN:39,_ZN2sb11tensor_evalIddTkNS_8IsTensorENS_6TensorINS_3PcfIddEEEETkNS_8IsTensorE11NumpyTensorIdETkNS_8IsTensorES6_Q9EvaluableINT1_10value_typeET_T0_EEEvRKS7_RKT2_RT3_
FN:46,_ZZN2sb11tensor_evalIddTkNS_8IsTensorENS_6TensorINS_3PcfIddEEEETkNS_8IsTensorE11NumpyTensorIdETkNS_8IsTensorES6_Q9EvaluableINT1_10value_typeET_T0_EEEvRKS7_RKT2_RT3_ENKUlRKSt6vectorImSaImEEE_clESM_
FN:54,_ZZN2sb11tensor_evalIddTkNS_8IsTensorENS_6TensorINS_3PcfIddEEEETkNS_8IsTensorE11NumpyTensorIdETkNS_8IsTensorES6_Q9EvaluableINT1_10value_typeET_T0_EEEvRKS7_RKT2_RT3_ENKUlmmE_clEmm
FN:64,_ZZN2sb11tensor_evalIddTkNS_8IsTensorENS_6TensorINS_3PcfIddEEEETkNS_8IsTensorE11NumpyTensorIdETkNS_8IsTensorES6_Q9EvaluableINT1_10value_typeET_T0_EEEvRKS7_RKT2_RT3_ENKUlRKSt6vectorImSaImEEE0_clESM_
FN:39,_ZN2sb11tensor_evalIddTkNS_8IsTensorENS_6TensorINS_3PcfIddEEEETkNS_8IsTensorENS1_IdEETkNS_8IsTensorES5_Q9EvaluableINT1_10value_typeET_T0_EEEvRKS6_RKT2_RT3_
FN:46,_ZZN2sb11tensor_evalIddTkNS_8IsTensorENS_6TensorINS_3PcfIddEEEETkNS_8IsTensorENS1_IdEETkNS_8IsTensorES5_Q9EvaluableINT1_10value_typeET_T0_EEEvRKS6_RKT2_RT3_ENKUlRKSt6vectorImSaImEEE_clESL_
FN:54,_ZZN2sb11tensor_evalIddTkNS_8IsTensorENS_6TensorINS_3PcfIddEEEETkNS_8IsTensorENS1_IdEETkNS_8IsTensorES5_Q9EvaluableINT1_10value_typeET_T0_EEEvRKS6_RKT2_RT3_ENKUlmmE_clEmm
FN:64,_ZZN2sb11tensor_evalIddTkNS_8IsTensorENS_6TensorINS_3PcfIddEEEETkNS_8IsTensorENS1_IdEETkNS_8IsTensorES5_Q9EvaluableINT1_10value_typeET_T0_EEEvRKS6_RKT2_RT3_ENKUlRKSt6vectorImSaImEEE0_clESL_
FN:22,_ZN2sb11tensor_evalIiiTkNS_8IsTensorENS_6TensorINS_3PcfIiiEEEETkNS_8IsTensorE11NumpyTensorIiEQ9EvaluableINT1_10value_typeET_T0_EEEvRKS7_S9_RT2_
FN:23,_ZZN2sb11tensor_evalIiiTkNS_8IsTensorENS_6TensorINS_3PcfIiiEEEETkNS_8IsTensorE11NumpyTensorIiEQ9EvaluableINT1_10value_typeET_T0_EEEvRKS7_S9_RT2_ENKUlRKSt6vectorImSaImEEE_clESJ_
FN:39,_ZN2sb11tensor_evalIiiTkNS_8IsTensorENS_6TensorINS_3PcfIiiEEEETkNS_8IsTensorE11NumpyTensorIiETkNS_8IsTensorES6_Q9EvaluableINT1_10value_typeET_T0_EEEvRKS7_RKT2_RT3_
FN:46,_ZZN2sb11tensor_evalIiiTkNS_8IsTensorENS_6TensorINS_3PcfIiiEEEETkNS_8IsTensorE11NumpyTensorIiETkNS_8IsTensorES6_Q9EvaluableINT1_10value_typeET_T0_EEEvRKS7_RKT2_RT3_ENKUlRKSt6vectorImSaImEEE_clESM_
FN:54,_ZZN2sb11tensor_evalIiiTkNS_8IsTensorENS_6TensorINS_3PcfIiiEEEETkNS_8IsTensorE11NumpyTensorIiETkNS_8IsTensorES6_Q9EvaluableINT1_10value_typeET_T0_EEEvRKS7_RKT2_RT3_ENKUlmmE_clEmm
FN:64,_ZZN2sb11tensor_evalIiiTkNS_8IsTensorENS_6TensorINS_3PcfIiiEEEETkNS_8IsTensorE11NumpyTensorIiETkNS_8IsTensorES6_Q9EvaluableINT1_10value_typeET_T0_EEEvRKS7_RKT2_RT3_ENKUlRKSt6vectorImSaImEEE0_clESM_
FN:39,_ZN2sb11tensor_evalIiiTkNS_8IsTensorENS_6TensorINS_3PcfIiiEEEETkNS_8IsTensorENS1_IiEETkNS_8IsTensorES5_Q9EvaluableINT1_10value_typeET_T0_EEEvRKS6_RKT2_RT3_
FN:46,_ZZN2sb11tensor_evalIiiTkNS_8IsTensorENS_6TensorINS_3PcfIiiEEEETkNS_8IsTensorENS1_IiEETkNS_8IsTensorES5_Q9EvaluableINT1_10value_typeET_T0_EEEvRKS6_RKT2_RT3_ENKUlRKSt6vectorImSaImEEE_clESL_
FN:54,_ZZN2sb11tensor_evalIiiTkNS_8IsTensorENS_6TensorINS_3PcfIiiEEEETkNS_8IsTensorENS1_IiEETkNS_8IsTensorES5_Q9EvaluableINT1_10value_typeET_T0_EEEvRKS6_RKT2_RT3_ENKUlmmE_clEmm
FN:64,_ZZN2sb11tensor_evalIiiTkNS_8IsTensorENS_6TensorINS_3PcfIiiEEEETkNS_8IsTensorENS1_IiEETkNS_8IsTensorES5_Q9EvaluableINT1_10value_typeET_T0_EEEvRKS6_RKT2_RT3_ENKUlRKSt6vectorImSaImEEE0_clESL_
FN:22,_ZN2sb11tensor_evalIllTkNS_8IsTensorENS_6TensorINS_3PcfIllEEEETkNS_8IsTensorE11NumpyTensorIlEQ9EvaluableINT1_10value_typeET_T0_EEEvRKS7_S9_RT2_
FN:23,_ZZN2sb11tensor_evalIllTkNS_8IsTensorENS_6TensorINS_3PcfIllEEEETkNS_8IsTensorE11NumpyTensorIlEQ9EvaluableINT1_10value_typeET_T0_EEEvRKS7_S9_RT2_ENKUlRKSt6vectorImSaImEEE_clESJ_
FN:39,_ZN2sb11tensor_evalIllTkNS_8IsTensorENS_6TensorINS_3PcfIllEEEETkNS_8IsTensorE11NumpyTensorIlETkNS_8IsTensorES6_Q9EvaluableINT1_10value_typeET_T0_EEEvRKS7_RKT2_RT3_
FN:46,_ZZN2sb11tensor_evalIllTkNS_8IsTensorENS_6TensorINS_3PcfIllEEEETkNS_8IsTensorE11NumpyTensorIlETkNS_8IsTensorES6_Q9EvaluableINT1_10value_typeET_T0_EEEvRKS7_RKT2_RT3_ENKUlRKSt6vectorImSaImEEE_clESM_
FN:54,_ZZN2sb11tensor_evalIllTkNS_8IsTensorENS_6TensorINS_3PcfIllEEEETkNS_8IsTensorE11NumpyTensorIlETkNS_8IsTensorES6_Q9EvaluableINT1_10value_typeET_T0_EEEvRKS7_RKT2_RT3_ENKUlmmE_clEmm
FN:64,_ZZN2sb11tensor_evalIllTkNS_8IsTensorENS_6TensorINS_3PcfIllEEEETkNS_8IsTensorE11NumpyTensorIlETkNS_8IsTensorES6_Q9EvaluableINT1_10value_typeET_T0_EEEvRKS7_RKT2_RT3_ENKUlRKSt6vectorImSaImEEE0_clESM_
FN:39,_ZN2sb11tensor_evalIllTkNS_8IsTensorENS_6TensorINS_3PcfIllEEEETkNS_8IsTensorENS1_IlEETkNS_8IsTensorES5_Q9EvaluableINT1_10value_typeET_T0_EEEvRKS6_RKT2_RT3_
FN:46,_ZZN2sb11tensor_evalIllTkNS_8IsTensorENS_6TensorINS_3PcfIllEEEETkNS_8IsTensorENS1_IlEETkNS_8IsTensorES5_Q9EvaluableINT1_10value_typeET_T0_EEEvRKS6_RKT2_RT3_ENKUlRKSt6vectorImSaImEEE_clESL_
FN:54,_ZZN2sb11tensor_evalIllTkNS_8IsTensorENS_6TensorINS_3PcfIllEEEETkNS_8IsTensorENS1_IlEETkNS_8IsTensorES5_Q9EvaluableINT1_10value_typeET_T0_EEEvRKS6_RKT2_RT3_ENKUlmmE_clEmm
FN:64,_ZZN2sb11tensor_evalIllTkNS_8IsTensorENS_6TensorINS_3PcfIllEEEETkNS_8IsTensorENS1_IlEETkNS_8IsTensorES5_Q9EvaluableINT1_10value_typeET_T0_EEEvRKS6_RKT2_RT3_ENKUlRKSt6vectorImSaImEEE0_clESL_
FNDA:5,_ZN2sb11tensor_evalIffTkNS_8IsTensorENS_6TensorINS_3PcfIffEEEETkNS_8IsTensorE11NumpyTensorIfEQ9EvaluableINT1_10value_typeET_T0_EEEvRKS7_S9_RT2_
FNDA:19,_ZZN2sb11tensor_evalIffTkNS_8IsTensorENS_6TensorINS_3PcfIffEEEETkNS_8IsTensorE11NumpyTensorIfEQ9EvaluableINT1_10value_typeET_T0_EEEvRKS7_S9_RT2_ENKUlRKSt6vectorImSaImEEE_clESJ_
FNDA:6,_ZN2sb11tensor_evalIffTkNS_8IsTensorENS_6TensorINS_3PcfIffEEEETkNS_8IsTensorE11NumpyTensorIfETkNS_8IsTensorES6_Q9EvaluableINT1_10value_typeET_T0_EEEvRKS7_RKT2_RT3_
FNDA:16,_ZZN2sb11tensor_evalIffTkNS_8IsTensorENS_6TensorINS_3PcfIffEEEETkNS_8IsTensorE11NumpyTensorIfETkNS_8IsTensorES6_Q9EvaluableINT1_10value_typeET_T0_EEEvRKS7_RKT2_RT3_ENKUlRKSt6vectorImSaImEEE_clESM_
FNDA:20,_ZZN2sb11tensor_evalIffTkNS_8IsTensorENS_6TensorINS_3PcfIffEEEETkNS_8IsTensorE11NumpyTensorIfETkNS_8IsTensorES6_Q9EvaluableINT1_10value_typeET_T0_EEEvRKS7_RKT2_RT3_ENKUlmmE_clEmm
FNDA:13,_ZZN2sb11tensor_evalIffTkNS_8IsTensorENS_6TensorINS_3PcfIffEEEETkNS_8IsTensorE11NumpyTensorIfETkNS_8IsTensorES6_Q9EvaluableINT1_10value_typeET_T0_EEEvRKS7_RKT2_RT3_ENKUlRKSt6vectorImSaImEEE0_clESM_
FNDA:1,_ZN2sb11tensor_evalIffTkNS_8IsTensorENS_6TensorINS_3PcfIffEEEETkNS_8IsTensorENS1_IfEETkNS_8IsTensorES5_Q9EvaluableINT1_10value_typeET_T0_EEEvRKS6_RKT2_RT3_
FNDA:2,_ZZN2sb11tensor_evalIffTkNS_8IsTensorENS_6TensorINS_3PcfIffEEEETkNS_8IsTensorENS1_IfEETkNS_8IsTensorES5_Q9EvaluableINT1_10value_typeET_T0_EEEvRKS6_RKT2_RT3_ENKUlRKSt6vectorImSaImEEE_clESL_
FNDA:2,_ZZN2sb11tensor_evalIffTkNS_8IsTensorENS_6TensorINS_3PcfIffEEEETkNS_8IsTensorENS1_IfEETkNS_8IsTensorES5_Q9EvaluableINT1_10value_typeET_T0_EEEvRKS6_RKT2_RT3_ENKUlmmE_clEmm
FNDA:2,_ZZN2sb11tensor_evalIffTkNS_8IsTensorENS_6TensorINS_3PcfIffEEEETkNS_8IsTensorENS1_IfEETkNS_8IsTensorES5_Q9EvaluableINT1_10value_typeET_T0_EEEvRKS6_RKT2_RT3_ENKUlRKSt6vectorImSaImEEE0_clESL_
FNDA:5,_ZN2sb11tensor_evalIddTkNS_8IsTensorENS_6TensorINS_3PcfIddEEEETkNS_8IsTensorE11NumpyTensorIdEQ9EvaluableINT1_10value_typeET_T0_EEEvRKS7_S9_RT2_
FNDA:38,_ZZN2sb11tensor_evalIddTkNS_8IsTensorENS_6TensorINS_3PcfIddEEEETkNS_8IsTensorE11NumpyTensorIdEQ9EvaluableINT1_10value_typeET_T0_EEEvRKS7_S9_RT2_ENKUlRKSt6vectorImSaImEEE_clESJ_
FNDA:8,_ZN2sb11tensor_evalIddTkNS_8IsTensorENS_6TensorINS_3PcfIddEEEETkNS_8IsTensorE11NumpyTensorIdETkNS_8IsTensorES6_Q9EvaluableINT1_10value_typeET_T0_EEEvRKS7_RKT2_RT3_
FNDA:26,_ZZN2sb11tensor_evalIddTkNS_8IsTensorENS_6TensorINS_3PcfIddEEEETkNS_8IsTensorE11NumpyTensorIdETkNS_8IsTensorES6_Q9EvaluableINT1_10value_typeET_T0_EEEvRKS7_RKT2_RT3_ENKUlRKSt6vectorImSaImEEE_clESM_
FNDA:37,_ZZN2sb11tensor_evalIddTkNS_8IsTensorENS_6TensorINS_3PcfIddEEEETkNS_8IsTensorE11NumpyTensorIdETkNS_8IsTensorES6_Q9EvaluableINT1_10value_typeET_T0_EEEvRKS7_RKT2_RT3_ENKUlmmE_clEmm
FNDA:60,_ZZN2sb11tensor_evalIddTkNS_8IsTensorENS_6TensorINS_3PcfIddEEEETkNS_8IsTensorE11NumpyTensorIdETkNS_8IsTensorES6_Q9EvaluableINT1_10value_typeET_T0_EEEvRKS7_RKT2_RT3_ENKUlRKSt6vectorImSaImEEE0_clESM_
FNDA:1,_ZN2sb11tensor_evalIddTkNS_8IsTensorENS_6TensorINS_3PcfIddEEEETkNS_8IsTensorENS1_IdEETkNS_8IsTensorES5_Q9EvaluableINT1_10value_typeET_T0_EEEvRKS6_RKT2_RT3_
FNDA:2,_ZZN2sb11tensor_evalIddTkNS_8IsTensorENS_6TensorINS_3PcfIddEEEETkNS_8IsTensorENS1_IdEETkNS_8IsTensorES5_Q9EvaluableINT1_10value_typeET_T0_EEEvRKS6_RKT2_RT3_ENKUlRKSt6vectorImSaImEEE_clESL_
FNDA:2,_ZZN2sb11tensor_evalIddTkNS_8IsTensorENS_6TensorINS_3PcfIddEEEETkNS_8IsTensorENS1_IdEETkNS_8IsTensorES5_Q9EvaluableINT1_10value_typeET_T0_EEEvRKS6_RKT2_RT3_ENKUlmmE_clEmm
FNDA:2,_ZZN2sb11tensor_evalIddTkNS_8IsTensorENS_6TensorINS_3PcfIddEEEETkNS_8IsTensorENS1_IdEETkNS_8IsTensorES5_Q9EvaluableINT1_10value_typeET_T0_EEEvRKS6_RKT2_RT3_ENKUlRKSt6vectorImSaImEEE0_clESL_
FNDA:3,_ZN2sb11tensor_evalIiiTkNS_8IsTensorENS_6TensorINS_3PcfIiiEEEETkNS_8IsTensorE11NumpyTensorIiEQ9EvaluableINT1_10value_typeET_T0_EEEvRKS7_S9_RT2_
FNDA:8,_ZZN2sb11tensor_evalIiiTkNS_8IsTensorENS_6TensorINS_3PcfIiiEEEETkNS_8IsTensorE11NumpyTensorIiEQ9EvaluableINT1_10value_typeET_T0_EEEvRKS7_S9_RT2_ENKUlRKSt6vectorImSaImEEE_clESJ_
FNDA:6,_ZN2sb11tensor_evalIiiTkNS_8IsTensorENS_6TensorINS_3PcfIiiEEEETkNS_8IsTensorE11NumpyTensorIiETkNS_8IsTensorES6_Q9EvaluableINT1_10value_typeET_T0_EEEvRKS7_RKT2_RT3_
FNDA:16,_ZZN2sb11tensor_evalIiiTkNS_8IsTensorENS_6TensorINS_3PcfIiiEEEETkNS_8IsTensorE11NumpyTensorIiETkNS_8IsTensorES6_Q9EvaluableINT1_10value_typeET_T0_EEEvRKS7_RKT2_RT3_ENKUlRKSt6vectorImSaImEEE_clESM_
FNDA:21,_ZZN2sb11tensor_evalIiiTkNS_8IsTensorENS_6TensorINS_3PcfIiiEEEETkNS_8IsTensorE11NumpyTensorIiETkNS_8IsTensorES6_Q9EvaluableINT1_10value_typeET_T0_EEEvRKS7_RKT2_RT3_ENKUlmmE_clEmm
FNDA:14,_ZZN2sb11tensor_evalIiiTkNS_8IsTensorENS_6TensorINS_3PcfIiiEEEETkNS_8IsTensorE11NumpyTensorIiETkNS_8IsTensorES6_Q9EvaluableINT1_10value_typeET_T0_EEEvRKS7_RKT2_RT3_ENKUlRKSt6vectorImSaImEEE0_clESM_
FNDA:0,_ZN2sb11tensor_evalIiiTkNS_8IsTensorENS_6TensorINS_3PcfIiiEEEETkNS_8IsTensorENS1_IiEETkNS_8IsTensorES5_Q9EvaluableINT1_10value_typeET_T0_EEEvRKS6_RKT2_RT3_
FNDA:0,_ZZN2sb11tensor_evalIiiTkNS_8IsTensorENS_6TensorINS_3PcfIiiEEEETkNS_8IsTensorENS1_IiEETkNS_8IsTensorES5_Q9EvaluableINT1_10value_typeET_T0_EEEvRKS6_RKT2_RT3_ENKUlRKSt6vectorImSaImEEE_clESL_
FNDA:0,_ZZN2sb11tensor_evalIiiTkNS_8IsTensorENS_6TensorINS_3PcfIiiEEEETkNS_8IsTensorENS1_IiEETkNS_8IsTensorES5_Q9EvaluableINT1_10value_typeET_T0_EEEvRKS6_RKT2_RT3_ENKUlmmE_clEmm
FNDA:0,_ZZN2sb11tensor_evalIiiTkNS_8IsTensorENS_6TensorINS_3PcfIiiEEEETkNS_8IsTensorENS1_IiEETkNS_8IsTensorES5_Q9EvaluableINT1_10value_typeET_T0_EEEvRKS6_RKT2_RT3_ENKUlRKSt6vectorImSaImEEE0_clESL_
FNDA:3,_ZN2sb11tensor_evalIllTkNS_8IsTensorENS_6TensorINS_3PcfIllEEEETkNS_8IsTensorE11NumpyTensorIlEQ9EvaluableINT1_10value_typeET_T0_EEEvRKS7_S9_RT2_
FNDA:8,_ZZN2sb11tensor_evalIllTkNS_8IsTensorENS_6TensorINS_3PcfIllEEEETkNS_8IsTensorE11NumpyTensorIlEQ9EvaluableINT1_10value_typeET_T0_EEEvRKS7_S9_RT2_ENKUlRKSt6vectorImSaImEEE_clESJ_
FNDA:6,_ZN2sb11tensor_evalIllTkNS_8IsTensorENS_6TensorINS_3PcfIllEEEETkNS_8IsTensorE11NumpyTensorIlETkNS_8IsTensorES6_Q9EvaluableINT1_10value_typeET_T0_EEEvRKS7_RKT2_RT3_
FNDA:16,_ZZN2sb11tensor_evalIllTkNS_8IsTensorENS_6TensorINS_3PcfIllEEEETkNS_8IsTensorE11NumpyTensorIlETkNS_8IsTensorES6_Q9EvaluableINT1_10value_typeET_T0_EEEvRKS7_RKT2_RT3_ENKUlRKSt6vectorImSaImEEE_clESM_
FNDA:21,_ZZN2sb11tensor_evalIllTkNS_8IsTensorENS_6TensorINS_3PcfIllEEEETkNS_8IsTensorE11NumpyTensorIlETkNS_8IsTensorES6_Q9EvaluableINT1_10value_typeET_T0_EEEvRKS7_RKT2_RT3_ENKUlmmE_clEmm
FNDA:14,_ZZN2sb11tensor_evalIllTkNS_8IsTensorENS_6TensorINS_3PcfIllEEEETkNS_8IsTensorE11NumpyTensorIlETkNS_8IsTensorES6_Q9EvaluableINT1_10value_typeET_T0_EEEvRKS7_RKT2_RT3_ENKUlRKSt6vectorImSaImEEE0_clESM_
FNDA:0,_ZN2sb11tensor_evalIllTkNS_8IsTensorENS_6TensorINS_3PcfIllEEEETkNS_8IsTensorENS1_IlEETkNS_8IsTensorES5_Q9EvaluableINT1_10value_typeET_T0_EEEvRKS6_RKT2_RT3_
FNDA:0,_ZZN2sb11tensor_evalIllTkNS_8IsTensorENS_6TensorINS_3PcfIllEEEETkNS_8IsTensorENS1_IlEETkNS_8IsTensorES5_Q9EvaluableINT1_10value_typeET_T0_EEEvRKS6_RKT2_RT3_ENKUlRKSt6vectorImSaImEEE_clESL_
FNDA:0,_ZZN2sb11tensor_evalIllTkNS_8IsTensorENS_6TensorINS_3PcfIllEEEETkNS_8IsTensorENS1_IlEETkNS_8IsTensorES5_Q9EvaluableINT1_10value_typeET_T0_EEEvRKS6_RKT2_RT3_ENKUlmmE_clEmm
FNDA:0,_ZZN2sb11tensor_evalIllTkNS_8IsTensorENS_6TensorINS_3PcfIllEEEETkNS_8IsTensorENS1_IlEETkNS_8IsTensorES5_Q9EvaluableINT1_10value_typeET_T0_EEEvRKS6_RKT2_RT3_ENKUlRKSt6vectorImSaImEEE0_clESL_
FNF:6
FNH:6
DA:22,16
DA:23,73
DA:24,73
DA:25,73
DA:27,16
DA:28,3
DA:29,13
DA:30,13
DA:31,16
DA:39,28
DA:41,28
DA:42,28
DA:43,28
DA:44,28
DA:45,28
DA:46,78
DA:47,78
DA:48,78
DA:49,78
DA:52,28
DA:53,28
DA:54,103
DA:55,103
DA:56,103
DA:58,28
DA:59,106
DA:60,78
DA:64,105
DA:65,105
DA:66,105
DA:68,105
DA:69,105
DA:71,467
DA:72,362
DA:73,362
DA:74,362
DA:75,362
DA:76,105
DA:78,28
DA:79,3
DA:80,25
DA:81,25
DA:82,28
BRDA:27,0,0,3
BRDA:27,0,1,13
BRDA:59,0,0,78
BRDA:59,0,1,28
BRDA:71,0,0,362
BRDA:71,0,1,105
BRDA:78,0,0,3
BRDA:78,0,1,25
BRF:8
BRH:8
LF:64
LH:64
end_of_record
SF:/home/runner/work/stablebear/stablebear/include/sbear/config.hpp
FN:62,_Zli3_uzy
FN:67,_Zli2_zy
FN:80,_ZN2sb6detail18unmangled_typenameINS_14DistanceMatrixIdEEEENSt7__cxx1112basic_stringIcSt11char_traitsIcESaIcEEEv
FN:80,_ZN2sb6detail18unmangled_typenameINS_14DistanceMatrixIfEEEENSt7__cxx1112basic_stringIcSt11char_traitsIcESaIcEEEv
FN:80,_ZN2sb6detail18unmangled_typenameINS_15SymmetricMatrixIdEEEENSt7__cxx1112basic_stringIcSt11char_traitsIcESaIcEEEv
FN:80,_ZN2sb6detail18unmangled_typenameINS_15SymmetricMatrixIfEEEENSt7__cxx1112basic_stringIcSt11char_traitsIcESaIcEEEv
FN:80,_ZN2sb6detail18unmangled_typenameINS_2ph7BarcodeIdEEEENSt7__cxx1112basic_stringIcSt11char_traitsIcESaIcEEEv
FN:80,_ZN2sb6detail18unmangled_typenameINS_2ph7BarcodeIfEEEENSt7__cxx1112basic_stringIcSt11char_traitsIcESaIcEEEv
FN:80,_ZN2sb6detail18unmangled_typenameINS_6TensorIdEEEENSt7__cxx1112basic_stringIcSt11char_traitsIcESaIcEEEv
FN:80,_ZN2sb6detail18unmangled_typenameINS_6TensorIfEEEENSt7__cxx1112basic_stringIcSt11char_traitsIcESaIcEEEv
FN:80,_ZN2sb6detail18unmangled_typenameINS_3PcfIllEEEENSt7__cxx1112basic_stringIcSt11char_traitsIcESaIcEEEv
FN:80,_ZN2sb6detail18unmangled_typenameINS_3PcfIiiEEEENSt7__cxx1112basic_stringIcSt11char_traitsIcESaIcEEEv
FN:80,_ZN2sb6detail18unmangled_typenameINS_3PcfIddEEEENSt7__cxx1112basic_stringIcSt11char_traitsIcESaIcEEEv
FN:80,_ZN2sb6detail18unmangled_typenameINS_3PcfIffEEEENSt7__cxx1112basic_stringIcSt11char_traitsIcESaIcEEEv
FN:80,_ZN2sb6detail18unmangled_typenameIbEENSt7__cxx1112basic_stringIcSt11char_traitsIcESaIcEEEv
FN:80,_ZN2sb6detail18unmangled_typenameImEENSt7__cxx1112basic_stringIcSt11char_traitsIcESaIcEEEv
FN:80,_ZN2sb6detail18unmangled_typenameIjEENSt7__cxx1112basic_stringIcSt11char_traitsIcESaIcEEEv
FN:80,_ZN2sb6detail18unmangled_typenameIlEENSt7__cxx1112basic_stringIcSt11char_traitsIcESaIcEEEv
FN:80,_ZN2sb6detail18unmangled_typenameIiEENSt7__cxx1112basic_stringIcSt11char_traitsIcESaIcEEEv
FN:80,_ZN2sb6detail18unmangled_typenameIdEENSt7__cxx1112basic_stringIcSt11char_traitsIcESaIcEEEv
FN:80,_ZN2sb6detail18unmangled_typenameIfEENSt7__cxx1112basic_stringIcSt11char_traitsIcESaIcEEEv
FN:80,test_tensor_io_core.cpp:_ZN2sb6detail18unmangled_typenameIZN12_GLOBAL__N_153TensorIoCore_TensorFormatThrowsOnUnsupportedType_Test8TestBodyEvE11UnsupportedEENSt7__cxx1112basic_stringIcSt11char_traitsIcESaIcEEEv
FNDA:47484,_Zli3_uzy
FNDA:29808,_Zli2_zy
FNDA:0,_ZN2sb6detail18unmangled_typenameINS_14DistanceMatrixIdEEEENSt7__cxx1112basic_stringIcSt11char_traitsIcESaIcEEEv
FNDA:0,_ZN2sb6detail18unmangled_typenameINS_14DistanceMatrixIfEEEENSt7__cxx1112basic_stringIcSt11char_traitsIcESaIcEEEv
FNDA:0,_ZN2sb6detail18unmangled_typenameINS_15SymmetricMatrixIdEEEENSt7__cxx1112basic_stringIcSt11char_traitsIcESaIcEEEv
FNDA:0,_ZN2sb6detail18unmangled_typenameINS_15SymmetricMatrixIfEEEENSt7__cxx1112basic_stringIcSt11char_traitsIcESaIcEEEv
FNDA:0,_ZN2sb6detail18unmangled_typenameINS_2ph7BarcodeIdEEEENSt7__cxx1112basic_stringIcSt11char_traitsIcESaIcEEEv
FNDA:0,_ZN2sb6detail18unmangled_typenameINS_2ph7BarcodeIfEEEENSt7__cxx1112basic_stringIcSt11char_traitsIcESaIcEEEv
FNDA:0,_ZN2sb6detail18unmangled_typenameINS_6TensorIdEEEENSt7__cxx1112basic_stringIcSt11char_traitsIcESaIcEEEv
FNDA:0,_ZN2sb6detail18unmangled_typenameINS_6TensorIfEEEENSt7__cxx1112basic_stringIcSt11char_traitsIcESaIcEEEv
FNDA:0,_ZN2sb6detail18unmangled_typenameINS_3PcfIllEEEENSt7__cxx1112basic_stringIcSt11char_traitsIcESaIcEEEv
FNDA:0,_ZN2sb6detail18unmangled_typenameINS_3PcfIiiEEEENSt7__cxx1112basic_stringIcSt11char_traitsIcESaIcEEEv
FNDA:0,_ZN2sb6detail18unmangled_typenameINS_3PcfIddEEEENSt7__cxx1112basic_stringIcSt11char_traitsIcESaIcEEEv
FNDA:0,_ZN2sb6detail18unmangled_typenameINS_3PcfIffEEEENSt7__cxx1112basic_stringIcSt11char_traitsIcESaIcEEEv
FNDA:0,_ZN2sb6detail18unmangled_typenameIbEENSt7__cxx1112basic_stringIcSt11char_traitsIcESaIcEEEv
FNDA:0,_ZN2sb6detail18unmangled_typenameImEENSt7__cxx1112basic_stringIcSt11char_traitsIcESaIcEEEv
FNDA:0,_ZN2sb6detail18unmangled_typenameIjEENSt7__cxx1112basic_stringIcSt11char_traitsIcESaIcEEEv
FNDA:0,_ZN2sb6detail18unmangled_typenameIlEENSt7__cxx1112basic_stringIcSt11char_traitsIcESaIcEEEv
FNDA:0,_ZN2sb6detail18unmangled_typenameIiEENSt7__cxx1112basic_stringIcSt11char_traitsIcESaIcEEEv
FNDA:0,_ZN2sb6detail18unmangled_typenameIdEENSt7__cxx1112basic_stringIcSt11char_traitsIcESaIcEEEv
FNDA:0,_ZN2sb6detail18unmangled_typenameIfEENSt7__cxx1112basic_stringIcSt11char_traitsIcESaIcEEEv
FNDA:1,test_tensor_io_core.cpp:_ZN2sb6detail18unmangled_typenameIZN12_GLOBAL__N_153TensorIoCore_TensorFormatThrowsOnUnsupportedType_Test8TestBodyEvE11UnsupportedEENSt7__cxx1112basic_stringIcSt11char_traitsIcESaIcEEEv
FNF:3
FNH:3
DA:62,47484
DA:63,47484
DA:64,47484
DA:67,29808
DA:68,29808
DA:69,29808
DA:80,1
DA:81,1
DA:82,1
DA:83,1
DA:84,1
DA:85,1
DA:86,1
DA:87,1
DA:91,1
BRDA:87,0,0,1
BRDA:87,0,1,0
BRF:2
BRH:1
LF:18
LH:15
end_of_record
SF:/home/runner/work/stablebear/stablebear/include/sbear/cuda/cuda_block_scheduler.hpp
FN:43,_ZN2sb18CudaBlockSchedulerC2ERKNS0_6ConfigE
FN:57,_ZN2sb18CudaBlockScheduler14compute_blocksERKNS0_6ConfigE
FN:101,_ZN2sb18CudaBlockScheduler18compute_block_sideEmmmm
FN:114,_ZN2sb18CudaBlockScheduler23sort_by_descending_workEv
FN:115,_ZZN2sb18CudaBlockScheduler23sort_by_descending_workEvENKUlRKNS_9BlockInfoES3_E_clES3_S3_
FN:50,_ZNK2sb18CudaBlockScheduler6blocksEv
FN:51,_ZNK2sb18CudaBlockScheduler14max_row_heightEv
FN:52,_ZNK2sb18CudaBlockScheduler13max_col_widthEv
FN:53,_ZNK2sb18CudaBlockScheduler13triangle_modeEv
FNDA:34,_ZN2sb18CudaBlockSchedulerC2ERKNS0_6ConfigE
FNDA:34,_ZN2sb18CudaBlockScheduler14compute_blocksERKNS0_6ConfigE
FNDA:33,_ZN2sb18CudaBlockScheduler18compute_block_sideEmmmm
FNDA:33,_ZN2sb18CudaBlockScheduler23sort_by_descending_workEv
FNDA:26385,_ZZN2sb18CudaBlockScheduler23sort_by_descending_workEvENKUlRKNS_9BlockInfoES3_E_clES3_S3_
FNDA:31,_ZNK2sb18CudaBlockScheduler6blocksEv
FNDA:9,_ZNK2sb18CudaBlockScheduler14max_row_heightEv
FNDA:8,_ZNK2sb18CudaBlockScheduler13max_col_widthEv
FNDA:0,_ZNK2sb18CudaBlockScheduler13triangle_modeEv
FNF:9
FNH:8
DA:43,34
DA:44,34
DA:45,34
DA:46,34
DA:47,34
DA:48,34
DA:50,31
DA:51,9
DA:52,8
DA:53,0
DA:57,34
DA:58,34
DA:59,1
DA:60,1
DA:61,1
DA:63,33
DA:64,33
DA:65,33
DA:66,33
DA:67,33
DA:69,33
DA:70,33
DA:71,163
DA:72,163
DA:73,163
DA:74,3600
DA:75,3600
DA:76,3600
DA:77,409
DA:78,409
DA:79,409
DA:81,3191
DA:83,3191
DA:84,3191
DA:85,3191
DA:86,3191
DA:87,3191
DA:88,3191
DA:90,3191
DA:91,3191
DA:92,3191
DA:93,3191
DA:94,163
DA:96,33
DA:97,33
DA:101,33
DA:102,33
DA:103,33
DA:104,33
DA:105,33
DA:106,5
DA:107,5
DA:108,5
DA:109,33
DA:110,33
DA:111,33
DA:114,33
DA:115,26385
DA:116,26385
DA:117,26385
DA:119,3224
DA:120,3191
DA:121,3191
DA:122,3191
DA:123,33
BRDA:58,0,0,1
BRDA:58,0,1,33
BRDA:58,1,2,0
BRDA:58,1,3,33
BRDA:70,0,0,163
BRDA:70,0,1,33
BRDA:73,0,0,3600
BRDA:73,0,1,163
BRDA:75,0,0,885
BRDA:75,0,1,2715
BRDA:76,0,0,409
BRDA:76,0,1,476
BRDA:105,0,0,5
BRDA:105,0,1,28
BRDA:119,0,0,3191
BRDA:119,0,1,33
BRF:16
BRH:15
LF:68
LH:67
end_of_record
SF:/home/runner/work/stablebear/stablebear/include/sbear/cuda/cuda_result_writer.hpp
FN:51,_ZN2sb17BlockResultWriterINS_14DistanceMatrixIfEELNS_16TriangleSkipModeE1EEC2ES2_
FN:56,_ZN2sb17BlockResultWriterINS_14DistanceMatrixIfEELNS_16TriangleSkipModeE1EE7scatterIfEEvPKT_RKNS_9BlockInfoE
FN:51,_ZN2sb17BlockResultWriterINS_14DistanceMatrixIdEELNS_16TriangleSkipModeE1EEC2ES2_
FN:56,_ZN2sb17BlockResultWriterINS_14DistanceMatrixIdEELNS_16TriangleSkipModeE1EE7scatterIdEEvPKT_RKNS_9BlockInfoE
FN:51,_ZN2sb17BlockResultWriterINS_15SymmetricMatrixIfEELNS_16TriangleSkipModeE2EEC2ES2_
FN:56,_ZN2sb17BlockResultWriterINS_15SymmetricMatrixIfEELNS_16TriangleSkipModeE2EE7scatterIfEEvPKT_RKNS_9BlockInfoE
FN:51,_ZN2sb17BlockResultWriterINS_15SymmetricMatrixIdEELNS_16TriangleSkipModeE2EEC2ES2_
FN:56,_ZN2sb17BlockResultWriterINS_15SymmetricMatrixIdEELNS_16TriangleSkipModeE2EE7scatterIdEEvPKT_RKNS_9BlockInfoE
FN:22,_ZN2sb15DenseMatrixViewIfEC2ENS_6TensorIfEEm
FN:51,_ZN2sb17BlockResultWriterINS_15DenseMatrixViewIfEELNS_16TriangleSkipModeE0EEC2ES2_
FN:56,_ZN2sb17BlockResultWriterINS_15DenseMatrixViewIfEELNS_16TriangleSkipModeE0EE7scatterIfEEvPKT_RKNS_9BlockInfoE
FN:27,_ZN2sb15DenseMatrixViewIfEclEmm
FN:22,_ZN2sb15DenseMatrixViewIdEC2ENS_6TensorIdEEm
FN:51,_ZN2sb17BlockResultWriterINS_15DenseMatrixViewIdEELNS_16TriangleSkipModeE0EEC2ES2_
FN:56,_ZN2sb17BlockResultWriterINS_15DenseMatrixViewIdEELNS_16TriangleSkipModeE0EE7scatterIdEEvPKT_RKNS_9BlockInfoE
FN:27,_ZN2sb15DenseMatrixViewIdEclEmm
FNDA:4,_ZN2sb17BlockResultWriterINS_14DistanceMatrixIfEELNS_16TriangleSkipModeE1EEC2ES2_
FNDA:5,_ZN2sb17BlockResultWriterINS_14DistanceMatrixIfEELNS_16TriangleSkipModeE1EE7scatterIfEEvPKT_RKNS_9BlockInfoE
FNDA:4,_ZN2sb17BlockResultWriterINS_14DistanceMatrixIdEELNS_16TriangleSkipModeE1EEC2ES2_
FNDA:5,_ZN2sb17BlockResultWriterINS_14DistanceMatrixIdEELNS_16TriangleSkipModeE1EE7scatterIdEEvPKT_RKNS_9BlockInfoE
FNDA:3,_ZN2sb17BlockResultWriterINS_15SymmetricMatrixIfEELNS_16TriangleSkipModeE2EEC2ES2_
FNDA:3,_ZN2sb17BlockResultWriterINS_15SymmetricMatrixIfEELNS_16TriangleSkipModeE2EE7scatterIfEEvPKT_RKNS_9BlockInfoE
FNDA:3,_ZN2sb17BlockResultWriterINS_15SymmetricMatrixIdEELNS_16TriangleSkipModeE2EEC2ES2_
FNDA:3,_ZN2sb17BlockResultWriterINS_15SymmetricMatrixIdEELNS_16TriangleSkipModeE2EE7scatterIdEEvPKT_RKNS_9BlockInfoE
FNDA:2,_ZN2sb15DenseMatrixViewIfEC2ENS_6TensorIfEEm
FNDA:2,_ZN2sb17BlockResultWriterINS_15DenseMatrixViewIfEELNS_16TriangleSkipModeE0EEC2ES2_
FNDA:2,_ZN2sb17BlockResultWriterINS_15DenseMatrixViewIfEELNS_16TriangleSkipModeE0EE7scatterIfEEvPKT_RKNS_9BlockInfoE
FNDA:16,_ZN2sb15DenseMatrixViewIfEclEmm
FNDA:2,_ZN2sb15DenseMatrixViewIdEC2ENS_6TensorIdEEm
FNDA:2,_ZN2sb17BlockResultWriterINS_15DenseMatrixViewIdEELNS_16TriangleSkipModeE0EEC2ES2_
FNDA:2,_ZN2sb17BlockResultWriterINS_15DenseMatrixViewIdEELNS_16TriangleSkipModeE0EE7scatterIdEEvPKT_RKNS_9BlockInfoE
FNDA:16,_ZN2sb15DenseMatrixViewIdEclEmm
FNF:4
FNH:4
DA:22,4
DA:23,4
DA:24,4
DA:27,32
DA:28,32
DA:29,32
DA:51,18
DA:52,18
DA:56,20
DA:57,62
DA:58,32
DA:59,32
DA:60,106
DA:61,64
DA:62,64
DA:64,30
DA:65,30
DA:66,10
DA:67,10
DA:68,10
DA:69,2
DA:70,2
DA:71,2
DA:72,2
DA:73,2
DA:74,8
DA:75,10
DA:78,20
DA:79,20
DA:80,4
DA:81,4
DA:82,4
DA:83,2
DA:84,2
DA:85,2
DA:86,2
DA:87,2
DA:88,2
DA:89,4
DA:90,20
DA:91,36
DA:92,64
DA:93,32
DA:94,20
BRDA:57,0,0,32
BRDA:57,0,1,30
BRDA:60,0,0,64
BRDA:60,0,1,42
BRDA:65,0,0,10
BRDA:65,0,1,20
BRDA:68,0,0,2
BRDA:68,0,1,8
BRDA:79,0,0,4
BRDA:79,0,1,16
BRDA:82,0,0,2
BRDA:82,0,1,2
BRF:8
BRH:8
LF:33
LH:33
end_of_record
SF:/home/runner/work/stablebear/stablebear/include/sbear/cuda/offset_data_manager.hpp
FN:33,test_offset_data_manager.cpp:_ZN2sb17OffsetDataManagerIN12_GLOBAL__N_111TestElementEEC2Ev
FN:33,_ZN2sb17OffsetDataManagerIiEC2Ev
FN:44,test_offset_data_manager.cpp:_ZN2sb17OffsetDataManagerIN12_GLOBAL__N_111TestElementEE4initIN9__gnu_cxx17__normal_iteratorIPNS1_10TestObjectESt6vectorIS7_SaIS7_EEEEZN39OffsetDataManager_InitThreeObjects_Test8TestBodyEvE3$_0ZNSD_8TestBodyEvE3$_1EEvT_SG_T0_T1_
FN:87,test_offset_data_manager.cpp:_ZNK2sb17OffsetDataManagerIN12_GLOBAL__N_111TestElementEE11num_objectsEv
FN:86,test_offset_data_manager.cpp:_ZNK2sb17OffsetDataManagerIN12_GLOBAL__N_111TestElementEE9host_dataEv
FN:44,test_offset_data_manager.cpp:_ZN2sb17OffsetDataManagerIN12_GLOBAL__N_111TestElementEE4initIN9__gnu_cxx17__normal_iteratorIPNS1_10TestObjectESt6vectorIS7_SaIS7_EEEEZN33OffsetDataManager_EmptyInput_Test8TestBodyEvE3$_0ZNSD_8TestBodyEvE3$_1EEvT_SG_T0_T1_
FN:44,test_offset_data_manager.cpp:_ZN2sb17OffsetDataManagerIN12_GLOBAL__N_111TestElementEE4initIN9__gnu_cxx17__normal_iteratorIPNS1_10TestObjectESt6vectorIS7_SaIS7_EEEEZN40OffsetDataManager_SingleEmptyObject_Test8TestBodyEvE3$_0ZNSD_8TestBodyEvE3$_1EEvT_SG_T0_T1_
FN:44,test_offset_data_manager.cpp:_ZN2sb17OffsetDataManagerIN12_GLOBAL__N_111TestElementEE4initIN9__gnu_cxx17__normal_iteratorIPNS1_10TestObjectESt6vectorIS7_SaIS7_EEEEZN44OffsetDataManager_TotalElementsForRange_Test8TestBodyEvE3$_0ZNSD_8TestBodyEvE3$_1EEvT_SG_T0_T1_
FN:71,test_offset_data_manager.cpp:_ZNK2sb17OffsetDataManagerIN12_GLOBAL__N_111TestElementEE24total_elements_for_rangeEmm
FN:44,test_offset_data_manager.cpp:_ZN2sb17OffsetDataManagerIN12_GLOBAL__N_111TestElementEE4initIN9__gnu_cxx17__normal_iteratorIPNS1_10TestObjectESt6vectorIS7_SaIS7_EEEEZN41OffsetDataManager_MaxElementsInRange_Test8TestBodyEvE3$_0ZNSD_8TestBodyEvE3$_1EEvT_SG_T0_T1_
FN:76,test_offset_data_manager.cpp:_ZNK2sb17OffsetDataManagerIN12_GLOBAL__N_111TestElementEE21max_elements_in_rangeEmm
FN:44,test_offset_data_manager.cpp:_ZN2sb17OffsetDataManagerIiE4initIN9__gnu_cxx17__normal_iteratorIPSt6vectorIiSaIiEES5_IS7_SaIS7_EEEEZN45OffsetDataManager_WorksWithPrimitiveType_Test8TestBodyEvE3$_0ZNSC_8TestBodyEvE3$_1EEvT_SF_T0_T1_
FN:87,_ZNK2sb17OffsetDataManagerIiE11num_objectsEv
FN:71,_ZNK2sb17OffsetDataManagerIiE24total_elements_for_rangeEmm
FN:86,_ZNK2sb17OffsetDataManagerIiE9host_dataEv
FNDA:5,test_offset_data_manager.cpp:_ZN2sb17OffsetDataManagerIN12_GLOBAL__N_111TestElementEEC2Ev
FNDA:1,_ZN2sb17OffsetDataManagerIiEC2Ev
FNDA:1,test_offset_data_manager.cpp:_ZN2sb17OffsetDataManagerIN12_GLOBAL__N_111TestElementEE4initIN9__gnu_cxx17__normal_iteratorIPNS1_10TestObjectESt6vectorIS7_SaIS7_EEEEZN39OffsetDataManager_InitThreeObjects_Test8TestBodyEvE3$_0ZNSD_8TestBodyEvE3$_1EEvT_SG_T0_T1_
FNDA:3,test_offset_data_manager.cpp:_ZNK2sb17OffsetDataManagerIN12_GLOBAL__N_111TestElementEE11num_objectsEv
FNDA:7,test_offset_data_manager.cpp:_ZNK2sb17OffsetDataManagerIN12_GLOBAL__N_111TestElementEE9host_dataEv
FNDA:1,test_offset_data_manager.cpp:_ZN2sb17OffsetDataManagerIN12_GLOBAL__N_111TestElementEE4initIN9__gnu_cxx17__normal_iteratorIPNS1_10TestObjectESt6vectorIS7_SaIS7_EEEEZN33OffsetDataManager_EmptyInput_Test8TestBodyEvE3$_0ZNSD_8TestBodyEvE3$_1EEvT_SG_T0_T1_
FNDA:1,test_offset_data_manager.cpp:_ZN2sb17OffsetDataManagerIN12_GLOBAL__N_111TestElementEE4initIN9__gnu_cxx17__normal_iteratorIPNS1_10TestObjectESt6vectorIS7_SaIS7_EEEEZN40OffsetDataManager_SingleEmptyObject_Test8TestBodyEvE3$_0ZNSD_8TestBodyEvE3$_1EEvT_SG_T0_T1_
FNDA:1,test_offset_data_manager.cpp:_ZN2sb17OffsetDataManagerIN12_GLOBAL__N_111TestElementEE4initIN9__gnu_cxx17__normal_iteratorIPNS1_10TestObjectESt6vectorIS7_SaIS7_EEEEZN44OffsetDataManager_TotalElementsForRange_Test8TestBodyEvE3$_0ZNSD_8TestBodyEvE3$_1EEvT_SG_T0_T1_
FNDA:6,test_offset_data_manager.cpp:_ZNK2sb17OffsetDataManagerIN12_GLOBAL__N_111TestElementEE24total_elements_for_rangeEmm
FNDA:1,test_offset_data_manager.cpp:_ZN2sb17OffsetDataManagerIN12_GLOBAL__N_111TestElementEE4initIN9__gnu_cxx17__normal_iteratorIPNS1_10TestObjectESt6vectorIS7_SaIS7_EEEEZN41OffsetDataManager_MaxElementsInRange_Test8TestBodyEvE3$_0ZNSD_8TestBodyEvE3$_1EEvT_SG_T0_T1_
FNDA:3,test_offset_data_manager.cpp:_ZNK2sb17OffsetDataManagerIN12_GLOBAL__N_111TestElementEE21max_elements_in_rangeEmm
FNDA:1,test_offset_data_manager.cpp:_ZN2sb17OffsetDataManagerIiE4initIN9__gnu_cxx17__normal_iteratorIPSt6vectorIiSaIiEES5_IS7_SaIS7_EEEEZN45OffsetDataManager_WorksWithPrimitiveType_Test8TestBodyEvE3$_0ZNSC_8TestBodyEvE3$_1EEvT_SF_T0_T1_
FNDA:1,_ZNK2sb17OffsetDataManagerIiE11num_objectsEv
FNDA:1,_ZNK2sb17OffsetDataManagerIiE24total_elements_for_rangeEmm
FNDA:1,_ZNK2sb17OffsetDataManagerIiE9host_dataEv
FNF:6
FNH:6
DA:33,6
DA:44,6
DA:45,6
DA:46,6
DA:48,6
DA:49,6
DA:50,19
DA:51,13
DA:52,13
DA:53,13
DA:54,13
DA:55,6
DA:57,6
DA:58,6
DA:59,19
DA:60,13
DA:61,13
DA:62,13
DA:63,37
DA:64,24
DA:65,24
DA:66,24
DA:67,13
DA:68,6
DA:71,7
DA:72,7
DA:73,7
DA:76,3
DA:77,3
DA:78,9
DA:79,6
DA:80,6
DA:81,6
DA:82,6
DA:83,3
DA:84,3
DA:86,8
DA:87,4
BRDA:50,0,0,13
BRDA:50,0,1,6
BRDA:59,0,0,13
BRDA:59,0,1,6
BRDA:63,0,0,24
BRDA:63,0,1,13
BRDA:78,0,0,6
BRDA:78,0,1,3
BRF:8
BRH:8
LF:38
LH:38
end_of_record
SF:/home/runner/work/stablebear/stablebear/include/sbear/detail/tensor_1d_value_iterator.hpp
FN:159,_ZN2sb13begin1dValuesITkNS_8IsTensorENS_6TensorINS_3PcfIffEEEEEENS_21Tensor1dValueIteratorIT_EERS6_
FN:46,_ZN2sb21Tensor1dValueIteratorINS_6TensorINS_3PcfIffEEEEEC2ERS4_m
FN:165,_ZN2sb11end1dValuesITkNS_8IsTensorENS_6TensorINS_3PcfIffEEEEEENS_21Tensor1dValueIteratorIT_EERS6_
FN:117,_ZNK2sb21Tensor1dValueIteratorINS_6TensorINS_3PcfIffEEEEEmiERKS5_
FN:125,_ZNK2sb21Tensor1dValueIteratorINS_6TensorINS_3PcfIffEEEEEneERKS5_
FN:121,_ZNK2sb21Tensor1dValueIteratorINS_6TensorINS_3PcfIffEEEEEeqERKS5_
FN:61,_ZNK2sb21Tensor1dValueIteratorINS_6TensorINS_3PcfIffEEEEEdeEv
FN:73,_ZN2sb21Tensor1dValueIteratorINS_6TensorINS_3PcfIffEEEEEppEv
FN:159,_ZN2sb13begin1dValuesITkNS_8IsTensorENS_6TensorINS_3PcfIddEEEEEENS_21Tensor1dValueIteratorIT_EERS6_
FN:46,_ZN2sb21Tensor1dValueIteratorINS_6TensorINS_3PcfIddEEEEEC2ERS4_m
FN:165,_ZN2sb11end1dValuesITkNS_8IsTensorENS_6TensorINS_3PcfIddEEEEEENS_21Tensor1dValueIteratorIT_EERS6_
FN:117,_ZNK2sb21Tensor1dValueIteratorINS_6TensorINS_3PcfIddEEEEEmiERKS5_
FN:125,_ZNK2sb21Tensor1dValueIteratorINS_6TensorINS_3PcfIddEEEEEneERKS5_
FN:121,_ZNK2sb21Tensor1dValueIteratorINS_6TensorINS_3PcfIddEEEEEeqERKS5_
FN:61,_ZNK2sb21Tensor1dValueIteratorINS_6TensorINS_3PcfIddEEEEEdeEv
FN:73,_ZN2sb21Tensor1dValueIteratorINS_6TensorINS_3PcfIddEEEEEppEv
FN:53,_ZN2sb21Tensor1dValueIteratorIKNS_6TensorINS_3PcfIffEEEEEC2ERS5_RKSt6vectorImSaImEEmm
FN:117,_ZNK2sb21Tensor1dValueIteratorIKNS_6TensorINS_3PcfIffEEEEEmiERKS6_
FN:69,_ZNK2sb21Tensor1dValueIteratorIKNS_6TensorINS_3PcfIffEEEEEixEl
FN:95,_ZN2sb21Tensor1dValueIteratorIKNS_6TensorINS_3PcfIffEEEEEpLEl
FN:125,_ZNK2sb21Tensor1dValueIteratorIKNS_6TensorINS_3PcfIffEEEEEneERKS6_
FN:121,_ZNK2sb21Tensor1dValueIteratorIKNS_6TensorINS_3PcfIffEEEEEeqERKS6_
FN:61,_ZNK2sb21Tensor1dValueIteratorIKNS_6TensorINS_3PcfIffEEEEEdeEv
FN:73,_ZN2sb21Tensor1dValueIteratorIKNS_6TensorINS_3PcfIffEEEEEppEv
FN:105,_ZNK2sb21Tensor1dValueIteratorIKNS_6TensorINS_3PcfIffEEEEEplEl
FN:53,_ZN2sb21Tensor1dValueIteratorIKNS_6TensorINS_3PcfIddEEEEEC2ERS5_RKSt6vectorImSaImEEmm
FN:117,_ZNK2sb21Tensor1dValueIteratorIKNS_6TensorINS_3PcfIddEEEEEmiERKS6_
FN:69,_ZNK2sb21Tensor1dValueIteratorIKNS_6TensorINS_3PcfIddEEEEEixEl
FN:95,_ZN2sb21Tensor1dValueIteratorIKNS_6TensorINS_3PcfIddEEEEEpLEl
FN:125,_ZNK2sb21Tensor1dValueIteratorIKNS_6TensorINS_3PcfIddEEEEEneERKS6_
FN:121,_ZNK2sb21Tensor1dValueIteratorIKNS_6TensorINS_3PcfIddEEEEEeqERKS6_
FN:61,_ZNK2sb21Tensor1dValueIteratorIKNS_6TensorINS_3PcfIddEEEEEdeEv
FN:73,_ZN2sb21Tensor1dValueIteratorIKNS_6TensorINS_3PcfIddEEEEEppEv
FN:105,_ZNK2sb21Tensor1dValueIteratorIKNS_6TensorINS_3PcfIddEEEEEplEl
FN:61,_ZNK2sb21Tensor1dValueIteratorINS_6TensorIiEEEdeEv
FN:105,_ZNK2sb21Tensor1dValueIteratorINS_6TensorIiEEEplEl
FN:95,_ZN2sb21Tensor1dValueIteratorINS_6TensorIiEEEpLEl
FN:159,_ZN2sb13begin1dValuesITkNS_8IsTensorENS_6TensorIiEEEENS_21Tensor1dValueIteratorIT_EERS4_
FN:46,_ZN2sb21Tensor1dValueIteratorINS_6TensorIiEEEC2ERS2_m
FN:165,_ZN2sb11end1dValuesITkNS_8IsTensorENS_6TensorIiEEEENS_21Tensor1dValueIteratorIT_EERS4_
FN:121,_ZNK2sb21Tensor1dValueIteratorINS_6TensorIiEEEeqERKS3_
FNDA:14,_ZN2sb13begin1dValuesITkNS_8IsTensorENS_6TensorINS_3PcfIffEEEEEENS_21Tensor1dValueIteratorIT_EERS6_
FNDA:28,_ZN2sb21Tensor1dValueIteratorINS_6TensorINS_3PcfIffEEEEEC2ERS4_m
FNDA:14,_ZN2sb11end1dValuesITkNS_8IsTensorENS_6TensorINS_3PcfIffEEEEEENS_21Tensor1dValueIteratorIT_EERS6_
FNDA:14,_ZNK2sb21Tensor1dValueIteratorINS_6TensorINS_3PcfIffEEEEEmiERKS5_
FNDA:65,_ZNK2sb21Tensor1dValueIteratorINS_6TensorINS_3PcfIffEEEEEneERKS5_
FNDA:65,_ZNK2sb21Tensor1dValueIteratorINS_6TensorINS_3PcfIffEEEEEeqERKS5_
FNDA:51,_ZNK2sb21Tensor1dValueIteratorINS_6TensorINS_3PcfIffEEEEEdeEv
FNDA:51,_ZN2sb21Tensor1dValueIteratorINS_6TensorINS_3PcfIffEEEEEppEv
FNDA:15,_ZN2sb13begin1dValuesITkNS_8IsTensorENS_6TensorINS_3PcfIddEEEEEENS_21Tensor1dValueIteratorIT_EERS6_
FNDA:30,_ZN2sb21Tensor1dValueIteratorINS_6TensorINS_3PcfIddEEEEEC2ERS4_m
FNDA:15,_ZN2sb11end1dValuesITkNS_8IsTensorENS_6TensorINS_3PcfIddEEEEEENS_21Tensor1dValueIteratorIT_EERS6_
FNDA:15,_ZNK2sb21Tensor1dValueIteratorINS_6TensorINS_3PcfIddEEEEEmiERKS5_
FNDA:65,_ZNK2sb21Tensor1dValueIteratorINS_6TensorINS_3PcfIddEEEEEneERKS5_
FNDA:65,_ZNK2sb21Tensor1dValueIteratorINS_6TensorINS_3PcfIddEEEEEeqERKS5_
FNDA:50,_ZNK2sb21Tensor1dValueIteratorINS_6TensorINS_3PcfIddEEEEEdeEv
FNDA:50,_ZN2sb21Tensor1dValueIteratorINS_6TensorINS_3PcfIddEEEEEppEv
FNDA:204,_ZN2sb21Tensor1dValueIteratorIKNS_6TensorINS_3PcfIffEEEEEC2ERS5_RKSt6vectorImSaImEEmm
FNDA:123,_ZNK2sb21Tensor1dValueIteratorIKNS_6TensorINS_3PcfIffEEEEEmiERKS6_
FNDA:79,_ZNK2sb21Tensor1dValueIteratorIKNS_6TensorINS_3PcfIffEEEEEixEl
FNDA:46,_ZN2sb21Tensor1dValueIteratorIKNS_6TensorINS_3PcfIffEEEEEpLEl
FNDA:289,_ZNK2sb21Tensor1dValueIteratorIKNS_6TensorINS_3PcfIffEEEEEneERKS6_
FNDA:287,_ZNK2sb21Tensor1dValueIteratorIKNS_6TensorINS_3PcfIffEEEEEeqERKS6_
FNDA:213,_ZNK2sb21Tensor1dValueIteratorIKNS_6TensorINS_3PcfIffEEEEEdeEv
FNDA:188,_ZN2sb21Tensor1dValueIteratorIKNS_6TensorINS_3PcfIffEEEEEppEv
FNDA:27,_ZNK2sb21Tensor1dValueIteratorIKNS_6TensorINS_3PcfIffEEEEEplEl
FNDA:4,_ZN2sb21Tensor1dValueIteratorIKNS_6TensorINS_3PcfIddEEEEEC2ERS5_RKSt6vectorImSaImEEmm
FNDA:2,_ZNK2sb21Tensor1dValueIteratorIKNS_6TensorINS_3PcfIddEEEEEmiERKS6_
FNDA:0,_ZNK2sb21Tensor1dValueIteratorIKNS_6TensorINS_3PcfIddEEEEEixEl
FNDA:1,_ZN2sb21Tensor1dValueIteratorIKNS_6TensorINS_3PcfIddEEEEEpLEl
FNDA:5,_ZNK2sb21Tensor1dValueIteratorIKNS_6TensorINS_3PcfIddEEEEEneERKS6_
FNDA:5,_ZNK2sb21Tensor1dValueIteratorIKNS_6TensorINS_3PcfIddEEEEEeqERKS6_
FNDA:4,_ZNK2sb21Tensor1dValueIteratorIKNS_6TensorINS_3PcfIddEEEEEdeEv
FNDA:3,_ZN2sb21Tensor1dValueIteratorIKNS_6TensorINS_3PcfIddEEEEEppEv
FNDA:1,_ZNK2sb21Tensor1dValueIteratorIKNS_6TensorINS_3PcfIddEEEEEplEl
FNDA:3,_ZNK2sb21Tensor1dValueIteratorINS_6TensorIiEEEdeEv
FNDA:3,_ZNK2sb21Tensor1dValueIteratorINS_6TensorIiEEEplEl
FNDA:3,_ZN2sb21Tensor1dValueIteratorINS_6TensorIiEEEpLEl
FNDA:1,_ZN2sb13begin1dValuesITkNS_8IsTensorENS_6TensorIiEEEENS_21Tensor1dValueIteratorIT_EERS4_
FNDA:2,_ZN2sb21Tensor1dValueIteratorINS_6TensorIiEEEC2ERS2_m
FNDA:1,_ZN2sb11end1dValuesITkNS_8IsTensorENS_6TensorIiEEEENS_21Tensor1dValueIteratorIT_EERS4_
FNDA:1,_ZNK2sb21Tensor1dValueIteratorINS_6TensorIiEEEeqERKS3_
FNF:12
FNH:12
DA:46,60
DA:47,60
DA:53,208
DA:54,208
DA:61,321
DA:62,321
DA:63,321
DA:69,79
DA:70,79
DA:71,79
DA:73,292
DA:74,292
DA:75,292
DA:76,292
DA:95,50
DA:96,50
DA:97,50
DA:98,50
DA:105,31
DA:106,31
DA:107,31
DA:108,31
DA:109,31
DA:117,154
DA:118,154
DA:119,154
DA:121,423
DA:122,423
DA:123,423
DA:125,424
DA:126,424
DA:127,424
DA:159,30
DA:160,30
DA:161,30
DA:165,30
DA:166,30
DA:167,30
BRDA:122,0,0,132
BRDA:122,0,1,291
BRDA:122,1,2,132
BRDA:122,1,3,0
BRDA:122,2,4,135
BRDA:122,2,5,4294967293
BRF:6
BRH:5
LF:38
LH:38
end_of_record
SF:/home/runner/work/stablebear/stablebear/include/sbear/detail/xoroshiro128pp_impl.hpp
FN:34,_ZN2sb6detail14xoroshiro128pp4rotlEmi
FN:39,_ZN2sb6detail14xoroshiro128pp4nextERmS2_
FNDA:294670,_ZN2sb6detail14xoroshiro128pp4rotlEmi
FNDA:103208,_ZN2sb6detail14xoroshiro128pp4nextERmS2_
FNF:2
FNH:2
DA:34,294670
DA:35,294670
DA:36,294670
DA:39,103208
DA:40,103208
DA:42,103208
DA:43,103208
DA:44,103208
DA:46,103208
DA:47,103208
BRF:0
BRH:0
LF:10
LH:10
end_of_record
SF:/home/runner/work/stablebear/stablebear/include/sbear/distance_matrix.hpp
FN:64,_ZN2sb14DistanceMatrixIfEC2EmRKf
FN:121,_ZN2sb14DistanceMatrixIfE12storage_sizeEm
FN:88,_ZN2sb14DistanceMatrixIfEclEmm
FN:132,_ZNK2sb14DistanceMatrixIfE12bounds_checkEmm
FN:36,_ZN2sb14DistanceMatrixIfE10EntryProxyC2EPf
FN:142,_ZN2sb14DistanceMatrixIfE16compressed_indexEmm
FN:46,_ZN2sb14DistanceMatrixIfE10EntryProxyaSERKf
FN:64,_ZN2sb14DistanceMatrixIdEC2EmRKd
FN:121,_ZN2sb14DistanceMatrixIdE12storage_sizeEm
FN:88,_ZN2sb14DistanceMatrixIdEclEmm
FN:132,_ZNK2sb14DistanceMatrixIdE12bounds_checkEmm
FN:36,_ZN2sb14DistanceMatrixIdE10EntryProxyC2EPd
FN:142,_ZN2sb14DistanceMatrixIdE16compressed_indexEmm
FN:46,_ZN2sb14DistanceMatrixIdE10EntryProxyaSERKd
FN:72,_ZN2sb14DistanceMatrixIfEC2Ev
FN:126,_ZN2sb14DistanceMatrixIfE12mutable_dataEv
FN:85,_ZNK2sb14DistanceMatrixIfE13storage_countEv
FN:72,_ZN2sb14DistanceMatrixIdEC2Ev
FN:126,_ZN2sb14DistanceMatrixIdE12mutable_dataEv
FN:85,_ZNK2sb14DistanceMatrixIdE13storage_countEv
FN:84,_ZNK2sb14DistanceMatrixIfE4sizeEv
FN:118,_ZNK2sb14DistanceMatrixIfE4dataEv
FN:84,_ZNK2sb14DistanceMatrixIdE4sizeEv
FN:118,_ZNK2sb14DistanceMatrixIdE4dataEv
FN:96,_ZNK2sb14DistanceMatrixIfEclEmm
FN:96,_ZNK2sb14DistanceMatrixIdEclEmm
FN:78,_ZNK2sb14DistanceMatrixIfE4copyEv
FN:104,_ZNK2sb14DistanceMatrixIfEeqERKS1_
FN:111,_ZNK2sb14DistanceMatrixIfEneERKS1_
FN:78,_ZNK2sb14DistanceMatrixIdE4copyEv
FN:104,_ZNK2sb14DistanceMatrixIdEeqERKS1_
FN:111,_ZNK2sb14DistanceMatrixIdEneERKS1_
FN:39,_ZNK2sb14DistanceMatrixIfE10EntryProxycvfEv
FN:39,_ZNK2sb14DistanceMatrixIdE10EntryProxycvdEv
FNDA:96,_ZN2sb14DistanceMatrixIfEC2EmRKf
FNDA:249,_ZN2sb14DistanceMatrixIfE12storage_sizeEm
FNDA:114,_ZN2sb14DistanceMatrixIfEclEmm
FNDA:235,_ZNK2sb14DistanceMatrixIfE12bounds_checkEmm
FNDA:114,_ZN2sb14DistanceMatrixIfE10EntryProxyC2EPf
FNDA:195,_ZN2sb14DistanceMatrixIfE16compressed_indexEmm
FNDA:100,_ZN2sb14DistanceMatrixIfE10EntryProxyaSERKf
FNDA:279,_ZN2sb14DistanceMatrixIdEC2EmRKd
FNDA:701,_ZN2sb14DistanceMatrixIdE12storage_sizeEm
FNDA:382,_ZN2sb14DistanceMatrixIdEclEmm
FNDA:1381,_ZNK2sb14DistanceMatrixIdE12bounds_checkEmm
FNDA:381,_ZN2sb14DistanceMatrixIdE10EntryProxyC2EPd
FNDA:1207,_ZN2sb14DistanceMatrixIdE16compressed_indexEmm
FNDA:366,_ZN2sb14DistanceMatrixIdE10EntryProxyaSERKd
FNDA:48,_ZN2sb14DistanceMatrixIfEC2Ev
FNDA:3,_ZN2sb14DistanceMatrixIfE12mutable_dataEv
FNDA:53,_ZNK2sb14DistanceMatrixIfE13storage_countEv
FNDA:130,_ZN2sb14DistanceMatrixIdEC2Ev
FNDA:5,_ZN2sb14DistanceMatrixIdE12mutable_dataEv
FNDA:97,_ZNK2sb14DistanceMatrixIdE13storage_countEv
FNDA:62,_ZNK2sb14DistanceMatrixIfE4sizeEv
FNDA:31,_ZNK2sb14DistanceMatrixIfE4dataEv
FNDA:277,_ZNK2sb14DistanceMatrixIdE4sizeEv
FNDA:68,_ZNK2sb14DistanceMatrixIdE4dataEv
FNDA:121,_ZNK2sb14DistanceMatrixIfEclEmm
FNDA:999,_ZNK2sb14DistanceMatrixIdEclEmm
FNDA:4,_ZNK2sb14DistanceMatrixIfE4copyEv
FNDA:0,_ZNK2sb14DistanceMatrixIfEeqERKS1_
FNDA:0,_ZNK2sb14DistanceMatrixIfEneERKS1_
FNDA:46,_ZNK2sb14DistanceMatrixIdE4copyEv
FNDA:0,_ZNK2sb14DistanceMatrixIdEeqERKS1_
FNDA:0,_ZNK2sb14DistanceMatrixIdEneERKS1_
FNDA:14,_ZNK2sb14DistanceMatrixIfE10EntryProxycvfEv
FNDA:14,_ZNK2sb14DistanceMatrixIdE10EntryProxycvdEv
FNF:17
FNH:15
DA:36,495
DA:39,28
DA:40,28
DA:41,2
DA:42,26
DA:43,28
DA:46,466
DA:47,466
DA:48,2
DA:49,464
DA:50,4
DA:51,4
DA:52,2
DA:53,2
DA:54,4
DA:55,460
DA:56,460
DA:57,464
DA:64,375
DA:65,375
DA:66,375
DA:67,375
DA:68,0
DA:69,375
DA:70,375
DA:72,178
DA:78,50
DA:79,50
DA:80,50
DA:81,50
DA:82,50
DA:84,339
DA:85,150
DA:88,496
DA:89,496
DA:90,496
DA:91,6
DA:92,490
DA:93,496
DA:96,1120
DA:97,1120
DA:98,1120
DA:99,208
DA:100,912
DA:101,1120
DA:104,0
DA:105,0
DA:106,0
DA:107,0
DA:108,0
DA:111,0
DA:112,0
DA:113,0
DA:114,0
DA:115,0
DA:116,0
DA:118,99
DA:121,950
DA:122,950
DA:123,950
DA:126,8
DA:132,1616
DA:133,1616
DA:134,0
DA:135,0
DA:136,0
DA:137,0
DA:138,0
DA:139,1616
DA:142,1402
DA:143,1402
DA:144,1402
DA:145,1402
DA:146,1402
BRDA:40,0,0,2
BRDA:40,0,1,26
BRDA:47,0,0,2
BRDA:47,0,1,464
BRDA:49,0,0,4
BRDA:49,0,1,460
BRDA:51,0,0,2
BRDA:51,0,1,2
BRDA:67,0,0,0
BRDA:67,0,1,375
BRDA:90,0,0,6
BRDA:90,0,1,490
BRDA:98,0,0,208
BRDA:98,0,1,912
BRDA:105,0,0,-
BRDA:105,0,1,-
BRDA:112,0,0,-
BRDA:112,0,1,-
BRDA:133,0,0,0
BRDA:133,0,1,1616
BRDA:133,1,2,0
BRDA:133,1,3,1616
BRF:22
BRH:15
LF:74
LH:57
end_of_record
SF:/home/runner/work/stablebear/stablebear/include/sbear/executor.hpp
FN:38,_ZN2sb8ExecutorC2Emm
FN:33,_ZN2sb8ExecutorC2EPN2tf8ExecutorEm
FN:52,_ZN2sb8ExecutorC2EOS0_
FN:57,_ZN2sb8ExecutoraSEOS0_
FN:73,_ZN2sb8Executor3cpuEv
FN:78,_ZN2sb8Executor4cudaEv
FN:83,_ZN2sb8Executor17limit_cpu_workersEm
FN:98,_ZN2sb8Executor18limit_cuda_workersEm
FNDA:2,_ZN2sb8ExecutorC2Emm
FNDA:0,_ZN2sb8ExecutorC2EPN2tf8ExecutorEm
FNDA:0,_ZN2sb8ExecutorC2EOS0_
FNDA:0,_ZN2sb8ExecutoraSEOS0_
FNDA:230,_ZN2sb8Executor3cpuEv
FNDA:0,_ZN2sb8Executor4cudaEv
FNDA:2,_ZN2sb8Executor17limit_cpu_workersEm
FNDA:0,_ZN2sb8Executor18limit_cuda_workersEm
FNF:8
FNH:3
DA:33,0
DA:34,0
DA:35,0
DA:38,2
DA:39,2
DA:40,2
DA:41,2
DA:43,2
DA:52,0
DA:53,0
DA:54,0
DA:57,0
DA:58,0
DA:59,0
DA:60,0
DA:61,0
DA:62,0
DA:63,0
DA:64,0
DA:65,0
DA:66,0
DA:67,0
DA:68,0
DA:69,0
DA:70,0
DA:73,230
DA:74,230
DA:75,230
DA:78,0
DA:79,0
DA:80,0
DA:83,2
DA:84,2
DA:85,2
DA:86,2
DA:87,2
DA:88,2
DA:89,2
DA:90,2
DA:91,0
DA:92,0
DA:93,0
DA:94,0
DA:95,2
DA:98,0
DA:99,0
DA:100,0
DA:101,0
DA:102,0
DA:103,0
DA:104,0
DA:105,0
DA:106,0
DA:107,0
DA:108,0
DA:109,0
BRDA:40,0,0,0
BRDA:40,0,1,2
BRDA:84,0,0,2
BRDA:84,0,1,0
BRF:4
BRH:2
LF:56
LH:17
end_of_record
SF:/home/runner/work/stablebear/stablebear/include/sbear/functional/operations.cuh
FN:28,_ZNK2sb15OperationL1DistIffEclEf
FN:23,_ZNK2sb15OperationL1DistIffEclEff
FN:48,_ZNK2sb15OperationLpDistIffEclEf
FN:43,_ZNK2sb15OperationLpDistIffEclEff
FN:39,_ZN2sb15OperationLpDistIffEC2Ef
FN:28,_ZNK2sb15OperationL1DistIddEclEd
FN:23,_ZNK2sb15OperationL1DistIddEclEdd
FN:48,_ZNK2sb15OperationLpDistIddEclEd
FN:43,_ZNK2sb15OperationLpDistIddEclEdd
FN:39,_ZN2sb15OperationLpDistIddEC2Ed
FN:62,_ZNK2sb23OperationL2InnerProductIffEclEf
FN:57,_ZNK2sb23OperationL2InnerProductIffEclEff
FN:62,_ZNK2sb23OperationL2InnerProductIddEclEd
FN:57,_ZNK2sb23OperationL2InnerProductIddEclEdd
FNDA:363,_ZNK2sb15OperationL1DistIffEclEf
FNDA:911,_ZNK2sb15OperationL1DistIffEclEff
FNDA:10,_ZNK2sb15OperationLpDistIffEclEf
FNDA:17,_ZNK2sb15OperationLpDistIffEclEff
FNDA:7,_ZN2sb15OperationLpDistIffEC2Ef
FNDA:383,_ZNK2sb15OperationL1DistIddEclEd
FNDA:2560,_ZNK2sb15OperationL1DistIddEclEdd
FNDA:20,_ZNK2sb15OperationLpDistIddEclEd
FNDA:463,_ZNK2sb15OperationLpDistIddEclEdd
FNDA:8,_ZN2sb15OperationLpDistIddEC2Ed
FNDA:80,_ZNK2sb23OperationL2InnerProductIffEclEf
FNDA:99,_ZNK2sb23OperationL2InnerProductIffEclEff
FNDA:19,_ZNK2sb23OperationL2InnerProductIddEclEd
FNDA:38,_ZNK2sb23OperationL2InnerProductIddEclEdd
FNF:7
FNH:7
DA:23,3471
DA:24,3471
DA:25,3471
DA:28,746
DA:29,746
DA:30,746
DA:39,15
DA:40,15
DA:43,480
DA:44,480
DA:45,480
DA:48,30
DA:49,30
DA:50,30
DA:57,137
DA:58,137
DA:59,137
DA:62,99
DA:63,99
DA:64,99
BRF:0
BRH:0
LF:20
LH:20
end_of_record
SF:/home/runner/work/stablebear/stablebear/include/sbear/functional/pcf.hpp
FN:38,_ZN2sb3PcfIffEC2EOSt6vectorINS_9TimePointIffEESaIS4_EE
FN:38,_ZN2sb3PcfIddEC2EOSt6vectorINS_9TimePointIddEESaIS4_EE
FN:28,_ZN2sb3PcfIffEC2Ev
FN:88,_ZNK2sb3PcfIffE11debug_printEv
FN:74,_ZNK2sb3PcfIffE9to_stringB5cxx11Ev
FN:262,_ZNK2sb3PcfIffE6pointsEv
FN:294,_ZN2sbplIffEENS_3PcfIT_T0_EERKS4_S6_
FN:295,_ZZN2sbplIffEENS_3PcfIT_T0_EERKS4_S6_ENKUlRKNS_9RectangleIffEEE_clESA_
FN:126,_ZN2sb3PcfIffEpLITkNS_10ArithmeticEfEERS1_T_
FN:302,_ZN2sbmiIffEENS_3PcfIT_T0_EERKS4_S6_
FN:101,_ZN2sb3PcfIffEmIERKS1_
FN:102,_ZZN2sb3PcfIffEmIERKS1_ENKUlRKNS_9RectangleIffEEE_clES7_
FN:136,_ZN2sb3PcfIffEmIITkNS_10ArithmeticEfEERS1_T_
FN:165,_ZNK2sb3PcfIffEngEv
FN:310,_ZN2sbmlIffEENS_3PcfIT_T0_EERKS4_S6_
FN:311,_ZZN2sbmlIffEENS_3PcfIT_T0_EERKS4_S6_ENKUlRKNS_9RectangleIffEEE_clESA_
FN:156,_ZN2sb3PcfIffEmLITkNS_10ArithmeticEfEERS1_T_
FN:318,_ZN2sbdvIffEENS_3PcfIT_T0_EERKS4_S6_
FN:319,_ZZN2sbdvIffEENS_3PcfIT_T0_EERKS4_S6_ENKUlRKNS_9RectangleIffEEE_clESA_
FN:146,_ZN2sb3PcfIffEdVITkNS_10ArithmeticEfEERS1_T_
FN:243,_ZNK2sb3PcfIffE3powITkNS_10ArithmeticEfEES1_T_
FN:185,_ZNK2sb3PcfIffE8evaluateEf
FN:194,_ZZNK2sb3PcfIffE8evaluateEfENKUlfRKNS_9TimePointIffEEE_clEfS5_
FN:207,_ZNK2sb3PcfIffE8evaluateI11NumpyTensorIfES4_EEvRKT_RT0_m
FN:326,_ZN2sb7averageIffEENS_3PcfIT_T0_EERKSt6vectorIS4_SaIS4_EEm
FN:327,_ZZN2sb7averageIffEENS_3PcfIT_T0_EERKSt6vectorIS4_SaIS4_EEmENKUlRKNS_9RectangleIffEEE_clESD_
FN:28,_ZN2sb3PcfIddEC2Ev
FN:88,_ZNK2sb3PcfIddE11debug_printEv
FN:74,_ZNK2sb3PcfIddE9to_stringB5cxx11Ev
FN:262,_ZNK2sb3PcfIddE6pointsEv
FN:294,_ZN2sbplIddEENS_3PcfIT_T0_EERKS4_S6_
FN:295,_ZZN2sbplIddEENS_3PcfIT_T0_EERKS4_S6_ENKUlRKNS_9RectangleIddEEE_clESA_
FN:126,_ZN2sb3PcfIddEpLITkNS_10ArithmeticEdEERS1_T_
FN:302,_ZN2sbmiIddEENS_3PcfIT_T0_EERKS4_S6_
FN:101,_ZN2sb3PcfIddEmIERKS1_
FN:102,_ZZN2sb3PcfIddEmIERKS1_ENKUlRKNS_9RectangleIddEEE_clES7_
FN:136,_ZN2sb3PcfIddEmIITkNS_10ArithmeticEdEERS1_T_
FN:165,_ZNK2sb3PcfIddEngEv
FN:310,_ZN2sbmlIddEENS_3PcfIT_T0_EERKS4_S6_
FN:311,_ZZN2sbmlIddEENS_3PcfIT_T0_EERKS4_S6_ENKUlRKNS_9RectangleIddEEE_clESA_
FN:156,_ZN2sb3PcfIddEmLITkNS_10ArithmeticEdEERS1_T_
FN:318,_ZN2sbdvIddEENS_3PcfIT_T0_EERKS4_S6_
FN:319,_ZZN2sbdvIddEENS_3PcfIT_T0_EERKS4_S6_ENKUlRKNS_9RectangleIddEEE_clESA_
FN:146,_ZN2sb3PcfIddEdVITkNS_10ArithmeticEdEERS1_T_
FN:243,_ZNK2sb3PcfIddE3powITkNS_10ArithmeticEdEES1_T_
FN:185,_ZNK2sb3PcfIddE8evaluateEd
FN:194,_ZZNK2sb3PcfIddE8evaluateEdENKUldRKNS_9TimePointIddEEE_clEdS5_
FN:207,_ZNK2sb3PcfIddE8evaluateI11NumpyTensorIdES4_EEvRKT_RT0_m
FN:326,_ZN2sb7averageIddEENS_3PcfIT_T0_EERKSt6vectorIS4_SaIS4_EEm
FN:327,_ZZN2sb7averageIddEENS_3PcfIT_T0_EERKSt6vectorIS4_SaIS4_EEmENKUlRKNS_9RectangleIddEEE_clESD_
FN:28,_ZN2sb3PcfIiiEC2Ev
FN:38,_ZN2sb3PcfIiiEC2EOSt6vectorINS_9TimePointIiiEESaIS4_EE
FN:88,_ZNK2sb3PcfIiiE11debug_printEv
FN:74,_ZNK2sb3PcfIiiE9to_stringB5cxx11Ev
FN:262,_ZNK2sb3PcfIiiE6pointsEv
FN:294,_ZN2sbplIiiEENS_3PcfIT_T0_EERKS4_S6_
FN:295,_ZZN2sbplIiiEENS_3PcfIT_T0_EERKS4_S6_ENKUlRKNS_9RectangleIiiEEE_clESA_
FN:126,_ZN2sb3PcfIiiEpLITkNS_10ArithmeticEiEERS1_T_
FN:302,_ZN2sbmiIiiEENS_3PcfIT_T0_EERKS4_S6_
FN:101,_ZN2sb3PcfIiiEmIERKS1_
FN:102,_ZZN2sb3PcfIiiEmIERKS1_ENKUlRKNS_9RectangleIiiEEE_clES7_
FN:136,_ZN2sb3PcfIiiEmIITkNS_10ArithmeticEiEERS1_T_
FN:165,_ZNK2sb3PcfIiiEngEv
FN:310,_ZN2sbmlIiiEENS_3PcfIT_T0_EERKS4_S6_
FN:311,_ZZN2sbmlIiiEENS_3PcfIT_T0_EERKS4_S6_ENKUlRKNS_9RectangleIiiEEE_clESA_
FN:156,_ZN2sb3PcfIiiEmLITkNS_10ArithmeticEiEERS1_T_
FN:318,_ZN2sbdvIiiEENS_3PcfIT_T0_EERKS4_S6_
FN:319,_ZZN2sbdvIiiEENS_3PcfIT_T0_EERKS4_S6_ENKUlRKNS_9RectangleIiiEEE_clESA_
FN:146,_ZN2sb3PcfIiiEdVITkNS_10ArithmeticEiEERS1_T_
FN:243,_ZNK2sb3PcfIiiE3powITkNS_10ArithmeticEiEES1_T_
FN:185,_ZNK2sb3PcfIiiE8evaluateEi
FN:194,_ZZNK2sb3PcfIiiE8evaluateEiENKUliRKNS_9TimePointIiiEEE_clEiS5_
FN:207,_ZNK2sb3PcfIiiE8evaluateI11NumpyTensorIiES4_EEvRKT_RT0_m
FN:326,_ZN2sb7averageIiiEENS_3PcfIT_T0_EERKSt6vectorIS4_SaIS4_EEm
FN:327,_ZZN2sb7averageIiiEENS_3PcfIT_T0_EERKSt6vectorIS4_SaIS4_EEmENKUlRKNS_9RectangleIiiEEE_clESD_
FN:28,_ZN2sb3PcfIllEC2Ev
FN:38,_ZN2sb3PcfIllEC2EOSt6vectorINS_9TimePointIllEESaIS4_EE
FN:88,_ZNK2sb3PcfIllE11debug_printEv
FN:74,_ZNK2sb3PcfIllE9to_stringB5cxx11Ev
FN:262,_ZNK2sb3PcfIllE6pointsEv
FN:294,_ZN2sbplIllEENS_3PcfIT_T0_EERKS4_S6_
FN:295,_ZZN2sbplIllEENS_3PcfIT_T0_EERKS4_S6_ENKUlRKNS_9RectangleIllEEE_clESA_
FN:126,_ZN2sb3PcfIllEpLITkNS_10ArithmeticElEERS1_T_
FN:302,_ZN2sbmiIllEENS_3PcfIT_T0_EERKS4_S6_
FN:101,_ZN2sb3PcfIllEmIERKS1_
FN:102,_ZZN2sb3PcfIllEmIERKS1_ENKUlRKNS_9RectangleIllEEE_clES7_
FN:136,_ZN2sb3PcfIllEmIITkNS_10ArithmeticElEERS1_T_
FN:165,_ZNK2sb3PcfIllEngEv
FN:310,_ZN2sbmlIllEENS_3PcfIT_T0_EERKS4_S6_
FN:311,_ZZN2sbmlIllEENS_3PcfIT_T0_EERKS4_S6_ENKUlRKNS_9RectangleIllEEE_clESA_
FN:156,_ZN2sb3PcfIllEmLITkNS_10ArithmeticElEERS1_T_
FN:318,_ZN2sbdvIllEENS_3PcfIT_T0_EERKS4_S6_
FN:319,_ZZN2sbdvIllEENS_3PcfIT_T0_EERKS4_S6_ENKUlRKNS_9RectangleIllEEE_clESA_
FN:146,_ZN2sb3PcfIllEdVITkNS_10ArithmeticElEERS1_T_
FN:243,_ZNK2sb3PcfIllE3powITkNS_10ArithmeticElEES1_T_
FN:185,_ZNK2sb3PcfIllE8evaluateEl
FN:194,_ZZNK2sb3PcfIllE8evaluateElENKUllRKNS_9TimePointIllEEE_clElS5_
FN:207,_ZNK2sb3PcfIllE8evaluateI11NumpyTensorIlES4_EEvRKT_RT0_m
FN:326,_ZN2sb7averageIllEENS_3PcfIT_T0_EERKSt6vectorIS4_SaIS4_EEm
FN:327,_ZZN2sb7averageIllEENS_3PcfIT_T0_EERKSt6vectorIS4_SaIS4_EEmENKUlRKNS_9RectangleIllEEE_clESD_
FN:146,_ZN2sb3PcfIffEdVITkNS_10ArithmeticEmEERS1_T_
FN:146,_ZN2sb3PcfIddEdVITkNS_10ArithmeticEmEERS1_T_
FN:46,_ZN2sb3PcfIddEC2IffEERKNS0_IT_T0_EE
FN:263,_ZNK2sb3PcfIffE4sizeEv
FN:46,_ZN2sb3PcfIffEC2IddEERKNS0_IT_T0_EE
FN:263,_ZNK2sb3PcfIddE4sizeEv
FN:46,_ZN2sb3PcfIllEC2IiiEERKNS0_IT_T0_EE
FN:263,_ZNK2sb3PcfIiiE4sizeEv
FN:46,_ZN2sb3PcfIiiEC2IllEERKNS0_IT_T0_EE
FN:263,_ZNK2sb3PcfIllE4sizeEv
FN:175,_ZNK2sb3PcfIffEeqERKS1_
FN:180,_ZNK2sb3PcfIffEneERKS1_
FN:93,_ZN2sb3PcfIffEpLERKS1_
FN:94,_ZZN2sb3PcfIffEpLERKS1_ENKUlRKNS_9RectangleIffEEE_clES7_
FN:207,_ZNK2sb3PcfIffE8evaluateINS_6TensorIfEES4_EEvRKT_RT0_m
FN:175,_ZNK2sb3PcfIddEeqERKS1_
FN:180,_ZNK2sb3PcfIddEneERKS1_
FN:93,_ZN2sb3PcfIddEpLERKS1_
FN:94,_ZZN2sb3PcfIddEpLERKS1_ENKUlRKNS_9RectangleIddEEE_clES7_
FN:207,_ZNK2sb3PcfIddE8evaluateINS_6TensorIdEES4_EEvRKT_RT0_m
FN:175,_ZNK2sb3PcfIiiEeqERKS1_
FN:180,_ZNK2sb3PcfIiiEneERKS1_
FN:93,_ZN2sb3PcfIiiEpLERKS1_
FN:94,_ZZN2sb3PcfIiiEpLERKS1_ENKUlRKNS_9RectangleIiiEEE_clES7_
FN:207,_ZNK2sb3PcfIiiE8evaluateINS_6TensorIiEES4_EEvRKT_RT0_m
FN:175,_ZNK2sb3PcfIllEeqERKS1_
FN:180,_ZNK2sb3PcfIllEneERKS1_
FN:93,_ZN2sb3PcfIllEpLERKS1_
FN:94,_ZZN2sb3PcfIllEpLERKS1_ENKUlRKNS_9RectangleIllEEE_clES7_
FN:207,_ZNK2sb3PcfIllE8evaluateINS_6TensorIlEES4_EEvRKT_RT0_m
FN:63,_ZN2sb3PcfIddEC2ESt16initializer_listISt4pairIddEEQaasr3stdE9is_same_vIT_dEsr3stdE9is_same_vIT0_dE
FN:276,_ZN2sb3PcfIddE13initFromPairsIddEEvSt16initializer_listISt4pairIT_T0_EE
FN:335,_ZN2sb7PrintToIddEEvRKNS_3PcfIT_T0_EEPSo
FN:335,_ZN2sb7PrintToIffEEvRKNS_3PcfIT_T0_EEPSo
FN:33,_ZN2sb3PcfIffEC2Ef
FN:33,_ZN2sb3PcfIddEC2Ed
FN:69,_ZN2sb3PcfIffEC2ESt16initializer_listISt4pairIffEEQaasr3stdE9is_same_vIT_fEsr3stdE9is_same_vIT0_fE
FN:276,_ZN2sb3PcfIffE13initFromPairsIffEEvSt16initializer_listISt4pairIT_T0_EE
FNDA:1969,_ZN2sb3PcfIffEC2EOSt6vectorINS_9TimePointIffEESaIS4_EE
FNDA:7115,_ZN2sb3PcfIddEC2EOSt6vectorINS_9TimePointIddEESaIS4_EE
FNDA:3400,_ZN2sb3PcfIffEC2Ev
FNDA:0,_ZNK2sb3PcfIffE11debug_printEv
FNDA:0,_ZNK2sb3PcfIffE9to_stringB5cxx11Ev
FNDA:2668,_ZNK2sb3PcfIffE6pointsEv
FNDA:9,_ZN2sbplIffEENS_3PcfIT_T0_EERKS4_S6_
FNDA:16,_ZZN2sbplIffEENS_3PcfIT_T0_EERKS4_S6_ENKUlRKNS_9RectangleIffEEE_clESA_
FNDA:14,_ZN2sb3PcfIffEpLITkNS_10ArithmeticEfEERS1_T_
FNDA:3,_ZN2sbmiIffEENS_3PcfIT_T0_EERKS4_S6_
FNDA:7,_ZN2sb3PcfIffEmIERKS1_
FNDA:15,_ZZN2sb3PcfIffEmIERKS1_ENKUlRKNS_9RectangleIffEEE_clES7_
FNDA:6,_ZN2sb3PcfIffEmIITkNS_10ArithmeticEfEERS1_T_
FNDA:12,_ZNK2sb3PcfIffEngEv
FNDA:6,_ZN2sbmlIffEENS_3PcfIT_T0_EERKS4_S6_
FNDA:12,_ZZN2sbmlIffEENS_3PcfIT_T0_EERKS4_S6_ENKUlRKNS_9RectangleIffEEE_clESA_
FNDA:11,_ZN2sb3PcfIffEmLITkNS_10ArithmeticEfEERS1_T_
FNDA:6,_ZN2sbdvIffEENS_3PcfIT_T0_EERKS4_S6_
FNDA:12,_ZZN2sbdvIffEENS_3PcfIT_T0_EERKS4_S6_ENKUlRKNS_9RectangleIffEEE_clESA_
FNDA:9,_ZN2sb3PcfIffEdVITkNS_10ArithmeticEfEERS1_T_
FNDA:14,_ZNK2sb3PcfIffE3powITkNS_10ArithmeticEfEES1_T_
FNDA:30,_ZNK2sb3PcfIffE8evaluateEf
FNDA:55,_ZZNK2sb3PcfIffE8evaluateEfENKUlfRKNS_9TimePointIffEEE_clEfS5_
FNDA:6,_ZNK2sb3PcfIffE8evaluateI11NumpyTensorIfES4_EEvRKT_RT0_m
FNDA:1,_ZN2sb7averageIffEENS_3PcfIT_T0_EERKSt6vectorIS4_SaIS4_EEm
FNDA:2,_ZZN2sb7averageIffEENS_3PcfIT_T0_EERKSt6vectorIS4_SaIS4_EEmENKUlRKNS_9RectangleIffEEE_clESD_
FNDA:6993,_ZN2sb3PcfIddEC2Ev
FNDA:0,_ZNK2sb3PcfIddE11debug_printEv
FNDA:0,_ZNK2sb3PcfIddE9to_stringB5cxx11Ev
FNDA:3255,_ZNK2sb3PcfIddE6pointsEv
FNDA:9,_ZN2sbplIddEENS_3PcfIT_T0_EERKS4_S6_
FNDA:26,_ZZN2sbplIddEENS_3PcfIT_T0_EERKS4_S6_ENKUlRKNS_9RectangleIddEEE_clESA_
FNDA:8,_ZN2sb3PcfIddEpLITkNS_10ArithmeticEdEERS1_T_
FNDA:2,_ZN2sbmiIddEENS_3PcfIT_T0_EERKS4_S6_
FNDA:6,_ZN2sb3PcfIddEmIERKS1_
FNDA:13,_ZZN2sb3PcfIddEmIERKS1_ENKUlRKNS_9RectangleIddEEE_clES7_
FNDA:4,_ZN2sb3PcfIddEmIITkNS_10ArithmeticEdEERS1_T_
FNDA:9,_ZNK2sb3PcfIddEngEv
FNDA:4,_ZN2sbmlIddEENS_3PcfIT_T0_EERKS4_S6_
FNDA:8,_ZZN2sbmlIddEENS_3PcfIT_T0_EERKS4_S6_ENKUlRKNS_9RectangleIddEEE_clESA_
FNDA:7,_ZN2sb3PcfIddEmLITkNS_10ArithmeticEdEERS1_T_
FNDA:4,_ZN2sbdvIddEENS_3PcfIT_T0_EERKS4_S6_
FNDA:8,_ZZN2sbdvIddEENS_3PcfIT_T0_EERKS4_S6_ENKUlRKNS_9RectangleIddEEE_clESA_
FNDA:8,_ZN2sb3PcfIddEdVITkNS_10ArithmeticEdEERS1_T_
FNDA:14,_ZNK2sb3PcfIddE3powITkNS_10ArithmeticEdEES1_T_
FNDA:43,_ZNK2sb3PcfIddE8evaluateEd
FNDA:83,_ZZNK2sb3PcfIddE8evaluateEdENKUldRKNS_9TimePointIddEEE_clEdS5_
FNDA:3,_ZNK2sb3PcfIddE8evaluateI11NumpyTensorIdES4_EEvRKT_RT0_m
FNDA:1,_ZN2sb7averageIddEENS_3PcfIT_T0_EERKSt6vectorIS4_SaIS4_EEm
FNDA:2,_ZZN2sb7averageIddEENS_3PcfIT_T0_EERKSt6vectorIS4_SaIS4_EEmENKUlRKNS_9RectangleIddEEE_clESD_
FNDA:253,_ZN2sb3PcfIiiEC2Ev
FNDA:146,_ZN2sb3PcfIiiEC2EOSt6vectorINS_9TimePointIiiEESaIS4_EE
FNDA:0,_ZNK2sb3PcfIiiE11debug_printEv
FNDA:0,_ZNK2sb3PcfIiiE9to_stringB5cxx11Ev
FNDA:216,_ZNK2sb3PcfIiiE6pointsEv
FNDA:4,_ZN2sbplIiiEENS_3PcfIT_T0_EERKS4_S6_
FNDA:5,_ZZN2sbplIiiEENS_3PcfIT_T0_EERKS4_S6_ENKUlRKNS_9RectangleIiiEEE_clESA_
FNDA:8,_ZN2sb3PcfIiiEpLITkNS_10ArithmeticEiEERS1_T_
FNDA:0,_ZN2sbmiIiiEENS_3PcfIT_T0_EERKS4_S6_
FNDA:4,_ZN2sb3PcfIiiEmIERKS1_
FNDA:8,_ZZN2sb3PcfIiiEmIERKS1_ENKUlRKNS_9RectangleIiiEEE_clES7_
FNDA:4,_ZN2sb3PcfIiiEmIITkNS_10ArithmeticEiEERS1_T_
FNDA:9,_ZNK2sb3PcfIiiEngEv
FNDA:4,_ZN2sbmlIiiEENS_3PcfIT_T0_EERKS4_S6_
FNDA:8,_ZZN2sbmlIiiEENS_3PcfIT_T0_EERKS4_S6_ENKUlRKNS_9RectangleIiiEEE_clESA_
FNDA:6,_ZN2sb3PcfIiiEmLITkNS_10ArithmeticEiEERS1_T_
FNDA:4,_ZN2sbdvIiiEENS_3PcfIT_T0_EERKS4_S6_
FNDA:8,_ZZN2sbdvIiiEENS_3PcfIT_T0_EERKS4_S6_ENKUlRKNS_9RectangleIiiEEE_clESA_
FNDA:6,_ZN2sb3PcfIiiEdVITkNS_10ArithmeticEiEERS1_T_
FNDA:0,_ZNK2sb3PcfIiiE3powITkNS_10ArithmeticEiEES1_T_
FNDA:12,_ZNK2sb3PcfIiiE8evaluateEi
FNDA:20,_ZZNK2sb3PcfIiiE8evaluateEiENKUliRKNS_9TimePointIiiEEE_clEiS5_
FNDA:1,_ZNK2sb3PcfIiiE8evaluateI11NumpyTensorIiES4_EEvRKT_RT0_m
FNDA:0,_ZN2sb7averageIiiEENS_3PcfIT_T0_EERKSt6vectorIS4_SaIS4_EEm
FNDA:0,_ZZN2sb7averageIiiEENS_3PcfIT_T0_EERKSt6vectorIS4_SaIS4_EEmENKUlRKNS_9RectangleIiiEEE_clESD_
FNDA:242,_ZN2sb3PcfIllEC2Ev
FNDA:124,_ZN2sb3PcfIllEC2EOSt6vectorINS_9TimePointIllEESaIS4_EE
FNDA:0,_ZNK2sb3PcfIllE11debug_printEv
FNDA:0,_ZNK2sb3PcfIllE9to_stringB5cxx11Ev
FNDA:198,_ZNK2sb3PcfIllE6pointsEv
FNDA:4,_ZN2sbplIllEENS_3PcfIT_T0_EERKS4_S6_
FNDA:5,_ZZN2sbplIllEENS_3PcfIT_T0_EERKS4_S6_ENKUlRKNS_9RectangleIllEEE_clESA_
FNDA:8,_ZN2sb3PcfIllEpLITkNS_10ArithmeticElEERS1_T_
FNDA:0,_ZN2sbmiIllEENS_3PcfIT_T0_EERKS4_S6_
FNDA:4,_ZN2sb3PcfIllEmIERKS1_
FNDA:8,_ZZN2sb3PcfIllEmIERKS1_ENKUlRKNS_9RectangleIllEEE_clES7_
FNDA:4,_ZN2sb3PcfIllEmIITkNS_10ArithmeticElEERS1_T_
FNDA:9,_ZNK2sb3PcfIllEngEv
FNDA:4,_ZN2sbmlIllEENS_3PcfIT_T0_EERKS4_S6_
FNDA:8,_ZZN2sbmlIllEENS_3PcfIT_T0_EERKS4_S6_ENKUlRKNS_9RectangleIllEEE_clESA_
FNDA:6,_ZN2sb3PcfIllEmLITkNS_10ArithmeticElEERS1_T_
FNDA:4,_ZN2sbdvIllEENS_3PcfIT_T0_EERKS4_S6_
FNDA:8,_ZZN2sbdvIllEENS_3PcfIT_T0_EERKS4_S6_ENKUlRKNS_9RectangleIllEEE_clESA_
FNDA:4,_ZN2sb3PcfIllEdVITkNS_10ArithmeticElEERS1_T_
FNDA:0,_ZNK2sb3PcfIllE3powITkNS_10ArithmeticElEES1_T_
FNDA:10,_ZNK2sb3PcfIllE8evaluateEl
FNDA:18,_ZZNK2sb3PcfIllE8evaluateElENKUllRKNS_9TimePointIllEEE_clElS5_
FNDA:0,_ZNK2sb3PcfIllE8evaluateI11NumpyTensorIlES4_EEvRKT_RT0_m
FNDA:0,_ZN2sb7averageIllEENS_3PcfIT_T0_EERKSt6vectorIS4_SaIS4_EEm
FNDA:0,_ZZN2sb7averageIllEENS_3PcfIT_T0_EERKSt6vectorIS4_SaIS4_EEmENKUlRKNS_9RectangleIllEEE_clESD_
FNDA:77,_ZN2sb3PcfIffEdVITkNS_10ArithmeticEmEERS1_T_
FNDA:1,_ZN2sb3PcfIddEdVITkNS_10ArithmeticEmEERS1_T_
FNDA:3,_ZN2sb3PcfIddEC2IffEERKNS0_IT_T0_EE
FNDA:15,_ZNK2sb3PcfIffE4sizeEv
FNDA:3,_ZN2sb3PcfIffEC2IddEERKNS0_IT_T0_EE
FNDA:15,_ZNK2sb3PcfIddE4sizeEv
FNDA:3,_ZN2sb3PcfIllEC2IiiEERKNS0_IT_T0_EE
FNDA:9,_ZNK2sb3PcfIiiE4sizeEv
FNDA:3,_ZN2sb3PcfIiiEC2IllEERKNS0_IT_T0_EE
FNDA:9,_ZNK2sb3PcfIllE4sizeEv
FNDA:509,_ZNK2sb3PcfIffEeqERKS1_
FNDA:0,_ZNK2sb3PcfIffEneERKS1_
FNDA:6,_ZN2sb3PcfIffEpLERKS1_
FNDA:12,_ZZN2sb3PcfIffEpLERKS1_ENKUlRKNS_9RectangleIffEEE_clES7_
FNDA:15,_ZNK2sb3PcfIffE8evaluateINS_6TensorIfEES4_EEvRKT_RT0_m
FNDA:54,_ZNK2sb3PcfIddEeqERKS1_
FNDA:0,_ZNK2sb3PcfIddEneERKS1_
FNDA:6,_ZN2sb3PcfIddEpLERKS1_
FNDA:12,_ZZN2sb3PcfIddEpLERKS1_ENKUlRKNS_9RectangleIddEEE_clES7_
FNDA:64,_ZNK2sb3PcfIddE8evaluateINS_6TensorIdEES4_EEvRKT_RT0_m
FNDA:0,_ZNK2sb3PcfIiiEeqERKS1_
FNDA:0,_ZNK2sb3PcfIiiEneERKS1_
FNDA:6,_ZN2sb3PcfIiiEpLERKS1_
FNDA:12,_ZZN2sb3PcfIiiEpLERKS1_ENKUlRKNS_9RectangleIiiEEE_clES7_
FNDA:14,_ZNK2sb3PcfIiiE8evaluateINS_6TensorIiEES4_EEvRKT_RT0_m
FNDA:0,_ZNK2sb3PcfIllEeqERKS1_
FNDA:0,_ZNK2sb3PcfIllEneERKS1_
FNDA:6,_ZN2sb3PcfIllEpLERKS1_
FNDA:12,_ZZN2sb3PcfIllEpLERKS1_ENKUlRKNS_9RectangleIllEEE_clES7_
FNDA:14,_ZNK2sb3PcfIllE8evaluateINS_6TensorIlEES4_EEvRKT_RT0_m
FNDA:22,_ZN2sb3PcfIddEC2ESt16initializer_listISt4pairIddEEQaasr3stdE9is_same_vIT_dEsr3stdE9is_same_vIT0_dE
FNDA:22,_ZN2sb3PcfIddE13initFromPairsIddEEvSt16initializer_listISt4pairIT_T0_EE
FNDA:0,_ZN2sb7PrintToIddEEvRKNS_3PcfIT_T0_EEPSo
FNDA:0,_ZN2sb7PrintToIffEEvRKNS_3PcfIT_T0_EEPSo
FNDA:1,_ZN2sb3PcfIffEC2Ef
FNDA:1,_ZN2sb3PcfIddEC2Ed
FNDA:7,_ZN2sb3PcfIffEC2ESt16initializer_listISt4pairIffEEQaasr3stdE9is_same_vIT_fEsr3stdE9is_same_vIT0_fE
FNDA:7,_ZN2sb3PcfIffE13initFromPairsIffEEvSt16initializer_listISt4pairIT_T0_EE
FNF:36
FNH:32
DA:28,10888
DA:29,10888
DA:30,10888
DA:33,2
DA:34,2
DA:35,2
DA:38,9354
DA:39,9354
DA:41,9354
DA:46,12
DA:47,12
DA:48,24
DA:49,12
DA:50,12
DA:51,12
DA:63,22
DA:64,22
DA:65,22
DA:69,7
DA:70,7
DA:71,7
DA:74,0
DA:75,0
DA:76,0
DA:77,0
DA:78,0
DA:79,0
DA:80,0
DA:81,0
DA:82,0
DA:83,0
DA:84,0
DA:85,0
DA:88,0
DA:89,0
DA:90,0
DA:93,24
DA:94,48
DA:95,48
DA:96,48
DA:97,24
DA:98,24
DA:101,21
DA:102,44
DA:103,44
DA:104,44
DA:105,21
DA:106,21
DA:126,38
DA:127,38
DA:128,76
DA:129,76
DA:130,76
DA:131,38
DA:132,38
DA:136,18
DA:137,18
DA:138,36
DA:139,36
DA:140,36
DA:141,18
DA:142,18
DA:146,105
DA:147,105
DA:148,138
DA:149,138
DA:150,138
DA:151,105
DA:152,105
DA:156,30
DA:157,30
DA:158,62
DA:159,62
DA:160,62
DA:161,30
DA:162,30
DA:165,39
DA:166,39
DA:167,39
DA:168,66
DA:169,66
DA:170,66
DA:171,39
DA:172,39
DA:175,563
DA:176,563
DA:177,563
DA:180,0
DA:181,0
DA:182,0
DA:185,95
DA:188,95
DA:189,4
DA:190,4
DA:191,4
DA:193,91
DA:194,176
DA:196,91
DA:197,0
DA:198,0
DA:199,0
DA:201,91
DA:202,91
DA:203,91
DA:207,117
DA:208,117
DA:209,117
DA:211,501
DA:212,387
DA:213,387
DA:217,387
DA:218,3
DA:219,3
DA:220,3
DA:222,530
DA:223,146
DA:224,146
DA:225,146
DA:227,384
DA:228,384
DA:229,117
DA:243,28
DA:244,28
DA:245,28
DA:246,16
DA:247,16
DA:248,34
DA:249,34
DA:250,34
DA:251,16
DA:252,12
DA:253,12
DA:254,12
DA:255,26
DA:256,26
DA:257,26
DA:258,12
DA:259,28
DA:260,28
DA:262,6337
DA:263,48
DA:276,29
DA:277,29
DA:278,29
DA:279,102
DA:280,102
DA:281,102
DA:282,29
DA:294,26
DA:295,52
DA:296,52
DA:297,52
DA:298,26
DA:302,5
DA:303,5
DA:304,5
DA:305,5
DA:306,5
DA:310,18
DA:311,36
DA:312,36
DA:313,36
DA:314,18
DA:318,18
DA:319,36
DA:320,36
DA:321,36
DA:322,18
DA:326,2
DA:327,4
DA:328,4
DA:329,4
DA:330,2
DA:331,2
DA:335,0
DA:336,0
DA:337,0
BRDA:48,0,0,12
BRDA:48,0,1,12
BRDA:76,0,0,-
BRDA:76,0,1,-
BRDA:78,0,0,-
BRDA:78,0,1,-
BRDA:127,0,0,76
BRDA:127,0,1,38
BRDA:137,0,0,36
BRDA:137,0,1,18
BRDA:147,0,0,138
BRDA:147,0,1,105
BRDA:157,0,0,62
BRDA:157,0,1,30
BRDA:167,0,0,66
BRDA:167,0,1,39
BRDA:188,0,0,4
BRDA:188,0,1,91
BRDA:196,0,0,0
BRDA:196,0,1,91
BRDA:211,0,0,387
BRDA:211,0,1,114
BRDA:217,0,0,3
BRDA:217,0,1,384
BRDA:222,0,0,489
BRDA:222,0,1,571
BRDA:222,1,2,149
BRDA:222,1,3,194
BRDA:245,0,0,16
BRDA:245,0,1,12
BRDA:247,0,0,34
BRDA:247,0,1,16
BRDA:254,0,0,26
BRDA:254,0,1,12
BRDA:278,0,0,102
BRDA:278,0,1,29
BRF:38
BRH:33
LF:196
LH:172
end_of_record
SF:/home/runner/work/stablebear/stablebear/include/sbear/functional/piecewise_function.hpp
FN:42,_ZN2sbplITkNS_21PiecewiseFunctionLikeENS_3PcfIffEETkNS_10ArithmeticEfEET_RKS3_T0_
FN:50,_ZN2sbplITkNS_21PiecewiseFunctionLikeENS_3PcfIffEETkNS_10ArithmeticEfEET_T0_RKS3_
FN:58,_ZN2sbmiITkNS_21PiecewiseFunctionLikeENS_3PcfIffEETkNS_10ArithmeticEfEET_RKS3_T0_
FN:66,_ZN2sbmiITkNS_21PiecewiseFunctionLikeENS_3PcfIffEETkNS_10ArithmeticEfEET_T0_RKS3_
FN:74,_ZN2sbmlITkNS_21PiecewiseFunctionLikeENS_3PcfIffEETkNS_10ArithmeticEfEET_RKS3_T0_
FN:82,_ZN2sbmlITkNS_21PiecewiseFunctionLikeENS_3PcfIffEETkNS_10ArithmeticEfEET_T0_RKS3_
FN:90,_ZN2sbdvITkNS_21PiecewiseFunctionLikeENS_3PcfIffEETkNS_10ArithmeticEfEET_RKS3_T0_
FN:98,_ZN2sbdvITkNS_21PiecewiseFunctionLikeENS_3PcfIffEETkNS_10ArithmeticEfEET_T0_RKS3_
FN:42,_ZN2sbplITkNS_21PiecewiseFunctionLikeENS_3PcfIddEETkNS_10ArithmeticEdEET_RKS3_T0_
FN:50,_ZN2sbplITkNS_21PiecewiseFunctionLikeENS_3PcfIddEETkNS_10ArithmeticEdEET_T0_RKS3_
FN:58,_ZN2sbmiITkNS_21PiecewiseFunctionLikeENS_3PcfIddEETkNS_10ArithmeticEdEET_RKS3_T0_
FN:66,_ZN2sbmiITkNS_21PiecewiseFunctionLikeENS_3PcfIddEETkNS_10ArithmeticEdEET_T0_RKS3_
FN:74,_ZN2sbmlITkNS_21PiecewiseFunctionLikeENS_3PcfIddEETkNS_10ArithmeticEdEET_RKS3_T0_
FN:82,_ZN2sbmlITkNS_21PiecewiseFunctionLikeENS_3PcfIddEETkNS_10ArithmeticEdEET_T0_RKS3_
FN:90,_ZN2sbdvITkNS_21PiecewiseFunctionLikeENS_3PcfIddEETkNS_10ArithmeticEdEET_RKS3_T0_
FN:98,_ZN2sbdvITkNS_21PiecewiseFunctionLikeENS_3PcfIddEETkNS_10ArithmeticEdEET_T0_RKS3_
FN:42,_ZN2sbplITkNS_21PiecewiseFunctionLikeENS_3PcfIiiEETkNS_10ArithmeticEiEET_RKS3_T0_
FN:50,_ZN2sbplITkNS_21PiecewiseFunctionLikeENS_3PcfIiiEETkNS_10ArithmeticEiEET_T0_RKS3_
FN:58,_ZN2sbmiITkNS_21PiecewiseFunctionLikeENS_3PcfIiiEETkNS_10ArithmeticEiEET_RKS3_T0_
FN:66,_ZN2sbmiITkNS_21PiecewiseFunctionLikeENS_3PcfIiiEETkNS_10ArithmeticEiEET_T0_RKS3_
FN:74,_ZN2sbmlITkNS_21PiecewiseFunctionLikeENS_3PcfIiiEETkNS_10ArithmeticEiEET_RKS3_T0_
FN:82,_ZN2sbmlITkNS_21PiecewiseFunctionLikeENS_3PcfIiiEETkNS_10ArithmeticEiEET_T0_RKS3_
FN:90,_ZN2sbdvITkNS_21PiecewiseFunctionLikeENS_3PcfIiiEETkNS_10ArithmeticEiEET_RKS3_T0_
FN:98,_ZN2sbdvITkNS_21PiecewiseFunctionLikeENS_3PcfIiiEETkNS_10ArithmeticEiEET_T0_RKS3_
FN:42,_ZN2sbplITkNS_21PiecewiseFunctionLikeENS_3PcfIllEETkNS_10ArithmeticElEET_RKS3_T0_
FN:50,_ZN2sbplITkNS_21PiecewiseFunctionLikeENS_3PcfIllEETkNS_10ArithmeticElEET_T0_RKS3_
FN:58,_ZN2sbmiITkNS_21PiecewiseFunctionLikeENS_3PcfIllEETkNS_10ArithmeticElEET_RKS3_T0_
FN:66,_ZN2sbmiITkNS_21PiecewiseFunctionLikeENS_3PcfIllEETkNS_10ArithmeticElEET_T0_RKS3_
FN:74,_ZN2sbmlITkNS_21PiecewiseFunctionLikeENS_3PcfIllEETkNS_10ArithmeticElEET_RKS3_T0_
FN:82,_ZN2sbmlITkNS_21PiecewiseFunctionLikeENS_3PcfIllEETkNS_10ArithmeticElEET_T0_RKS3_
FN:90,_ZN2sbdvITkNS_21PiecewiseFunctionLikeENS_3PcfIllEETkNS_10ArithmeticElEET_RKS3_T0_
FN:98,_ZN2sbdvITkNS_21PiecewiseFunctionLikeENS_3PcfIllEETkNS_10ArithmeticElEET_T0_RKS3_
FNDA:2,_ZN2sbplITkNS_21PiecewiseFunctionLikeENS_3PcfIffEETkNS_10ArithmeticEfEET_RKS3_T0_
FNDA:4,_ZN2sbplITkNS_21PiecewiseFunctionLikeENS_3PcfIffEETkNS_10ArithmeticEfEET_T0_RKS3_
FNDA:2,_ZN2sbmiITkNS_21PiecewiseFunctionLikeENS_3PcfIffEETkNS_10ArithmeticEfEET_RKS3_T0_
FNDA:4,_ZN2sbmiITkNS_21PiecewiseFunctionLikeENS_3PcfIffEETkNS_10ArithmeticEfEET_T0_RKS3_
FNDA:3,_ZN2sbmlITkNS_21PiecewiseFunctionLikeENS_3PcfIffEETkNS_10ArithmeticEfEET_RKS3_T0_
FNDA:2,_ZN2sbmlITkNS_21PiecewiseFunctionLikeENS_3PcfIffEETkNS_10ArithmeticEfEET_T0_RKS3_
FNDA:5,_ZN2sbdvITkNS_21PiecewiseFunctionLikeENS_3PcfIffEETkNS_10ArithmeticEfEET_RKS3_T0_
FNDA:4,_ZN2sbdvITkNS_21PiecewiseFunctionLikeENS_3PcfIffEETkNS_10ArithmeticEfEET_T0_RKS3_
FNDA:0,_ZN2sbplITkNS_21PiecewiseFunctionLikeENS_3PcfIddEETkNS_10ArithmeticEdEET_RKS3_T0_
FNDA:2,_ZN2sbplITkNS_21PiecewiseFunctionLikeENS_3PcfIddEETkNS_10ArithmeticEdEET_T0_RKS3_
FNDA:0,_ZN2sbmiITkNS_21PiecewiseFunctionLikeENS_3PcfIddEETkNS_10ArithmeticEdEET_RKS3_T0_
FNDA:2,_ZN2sbmiITkNS_21PiecewiseFunctionLikeENS_3PcfIddEETkNS_10ArithmeticEdEET_T0_RKS3_
FNDA:1,_ZN2sbmlITkNS_21PiecewiseFunctionLikeENS_3PcfIddEETkNS_10ArithmeticEdEET_RKS3_T0_
FNDA:0,_ZN2sbmlITkNS_21PiecewiseFunctionLikeENS_3PcfIddEETkNS_10ArithmeticEdEET_T0_RKS3_
FNDA:4,_ZN2sbdvITkNS_21PiecewiseFunctionLikeENS_3PcfIddEETkNS_10ArithmeticEdEET_RKS3_T0_
FNDA:2,_ZN2sbdvITkNS_21PiecewiseFunctionLikeENS_3PcfIddEETkNS_10ArithmeticEdEET_T0_RKS3_
FNDA:0,_ZN2sbplITkNS_21PiecewiseFunctionLikeENS_3PcfIiiEETkNS_10ArithmeticEiEET_RKS3_T0_
FNDA:2,_ZN2sbplITkNS_21PiecewiseFunctionLikeENS_3PcfIiiEETkNS_10ArithmeticEiEET_T0_RKS3_
FNDA:0,_ZN2sbmiITkNS_21PiecewiseFunctionLikeENS_3PcfIiiEETkNS_10ArithmeticEiEET_RKS3_T0_
FNDA:2,_ZN2sbmiITkNS_21PiecewiseFunctionLikeENS_3PcfIiiEETkNS_10ArithmeticEiEET_T0_RKS3_
FNDA:0,_ZN2sbmlITkNS_21PiecewiseFunctionLikeENS_3PcfIiiEETkNS_10ArithmeticEiEET_RKS3_T0_
FNDA:0,_ZN2sbmlITkNS_21PiecewiseFunctionLikeENS_3PcfIiiEETkNS_10ArithmeticEiEET_T0_RKS3_
FNDA:2,_ZN2sbdvITkNS_21PiecewiseFunctionLikeENS_3PcfIiiEETkNS_10ArithmeticEiEET_RKS3_T0_
FNDA:2,_ZN2sbdvITkNS_21PiecewiseFunctionLikeENS_3PcfIiiEETkNS_10ArithmeticEiEET_T0_RKS3_
FNDA:0,_ZN2sbplITkNS_21PiecewiseFunctionLikeENS_3PcfIllEETkNS_10ArithmeticElEET_RKS3_T0_
FNDA:2,_ZN2sbplITkNS_21PiecewiseFunctionLikeENS_3PcfIllEETkNS_10ArithmeticElEET_T0_RKS3_
FNDA:0,_ZN2sbmiITkNS_21PiecewiseFunctionLikeENS_3PcfIllEETkNS_10ArithmeticElEET_RKS3_T0_
FNDA:2,_ZN2sbmiITkNS_21PiecewiseFunctionLikeENS_3PcfIllEETkNS_10ArithmeticElEET_T0_RKS3_
FNDA:0,_ZN2sbmlITkNS_21PiecewiseFunctionLikeENS_3PcfIllEETkNS_10ArithmeticElEET_RKS3_T0_
FNDA:0,_ZN2sbmlITkNS_21PiecewiseFunctionLikeENS_3PcfIllEETkNS_10ArithmeticElEET_T0_RKS3_
FNDA:0,_ZN2sbdvITkNS_21PiecewiseFunctionLikeENS_3PcfIllEETkNS_10ArithmeticElEET_RKS3_T0_
FNDA:2,_ZN2sbdvITkNS_21PiecewiseFunctionLikeENS_3PcfIllEETkNS_10ArithmeticElEET_T0_RKS3_
FNF:8
FNH:8
DA:42,2
DA:43,2
DA:44,2
DA:45,2
DA:46,2
DA:50,10
DA:51,10
DA:52,10
DA:53,10
DA:54,10
DA:58,2
DA:59,2
DA:60,2
DA:61,2
DA:62,2
DA:66,10
DA:67,10
DA:68,10
DA:69,10
DA:70,10
DA:74,4
DA:75,4
DA:76,4
DA:77,4
DA:78,4
DA:82,2
DA:83,2
DA:84,2
DA:85,2
DA:86,2
DA:90,11
DA:91,11
DA:92,11
DA:93,11
DA:94,11
DA:98,10
DA:99,10
DA:100,10
DA:101,20
DA:102,20
DA:103,20
DA:104,10
DA:105,10
BRDA:100,0,0,20
BRDA:100,0,1,10
BRF:2
BRH:2
LF:43
LH:43
end_of_record
SF:/home/runner/work/stablebear/stablebear/include/sbear/functional/rectangle.hpp
FN:16,_ZN2sb9RectangleIffEC2Ev
FN:18,_ZN2sb9RectangleIffEC2Effff
FN:29,_ZNK2sb9RectangleIffEeqERKS1_
FN:49,_ZN2sb7SegmentIffEC2Ev
FN:16,_ZN2sb9RectangleIddEC2Ev
FN:18,_ZN2sb9RectangleIddEC2Edddd
FN:29,_ZNK2sb9RectangleIddEeqERKS1_
FN:49,_ZN2sb7SegmentIddEC2Ev
FN:16,_ZN2sb9RectangleIiiEC2Ev
FN:18,_ZN2sb9RectangleIiiEC2Eiiii
FN:29,_ZNK2sb9RectangleIiiEeqERKS1_
FN:49,_ZN2sb7SegmentIiiEC2Ev
FN:16,_ZN2sb9RectangleIllEC2Ev
FN:18,_ZN2sb9RectangleIllEC2Ellll
FN:29,_ZNK2sb9RectangleIllEeqERKS1_
FN:49,_ZN2sb7SegmentIllEC2Ev
FN:23,_ZN2sb9RectangleIddE1lEd
FN:24,_ZN2sb9RectangleIddE1rEd
FN:25,_ZN2sb9RectangleIddE2fvEd
FN:26,_ZN2sb9RectangleIddE2gvEd
FN:57,_ZN2sblsIddEERSoS1_RKNS_9RectangleIT_T0_EE
FNDA:961,_ZN2sb9RectangleIffEC2Ev
FNDA:0,_ZN2sb9RectangleIffEC2Effff
FNDA:0,_ZNK2sb9RectangleIffEeqERKS1_
FNDA:21,_ZN2sb7SegmentIffEC2Ev
FNDA:521,_ZN2sb9RectangleIddEC2Ev
FNDA:0,_ZN2sb9RectangleIddEC2Edddd
FNDA:22,_ZNK2sb9RectangleIddEeqERKS1_
FNDA:38,_ZN2sb7SegmentIddEC2Ev
FNDA:44,_ZN2sb9RectangleIiiEC2Ev
FNDA:0,_ZN2sb9RectangleIiiEC2Eiiii
FNDA:0,_ZNK2sb9RectangleIiiEeqERKS1_
FNDA:0,_ZN2sb7SegmentIiiEC2Ev
FNDA:44,_ZN2sb9RectangleIllEC2Ev
FNDA:0,_ZN2sb9RectangleIllEC2Ellll
FNDA:0,_ZNK2sb9RectangleIllEeqERKS1_
FNDA:0,_ZN2sb7SegmentIllEC2Ev
FNDA:22,_ZN2sb9RectangleIddE1lEd
FNDA:22,_ZN2sb9RectangleIddE1rEd
FNDA:22,_ZN2sb9RectangleIddE2fvEd
FNDA:22,_ZN2sb9RectangleIddE2gvEd
FNDA:0,_ZN2sblsIddEERSoS1_RKNS_9RectangleIT_T0_EE
FNF:9
FNH:7
DA:16,1570
DA:18,0
DA:19,0
DA:23,22
DA:24,22
DA:25,22
DA:26,22
DA:29,22
DA:30,22
DA:31,22
DA:49,59
DA:57,0
DA:58,0
DA:59,0
DA:60,0
BRDA:30,0,0,22
BRDA:30,0,1,0
BRDA:30,1,2,22
BRDA:30,1,3,0
BRDA:30,2,4,22
BRDA:30,2,5,0
BRDA:30,3,6,22
BRDA:30,3,7,0
BRF:8
BRH:4
LF:15
LH:9
end_of_record
SF:/home/runner/work/stablebear/stablebear/include/sbear/functional/time_point.hpp
FN:35,_ZN2sb9TimePointIffEC2Ev
FN:35,_ZN2sb9TimePointIddEC2Ev
FN:37,_ZN2sb9TimePointIffEC2Eff
FN:12,_ZN2sb8infinityIfEET_v
FN:23,_ZN2sb9TimePointIffE9zero_timeEv
FN:28,_ZN2sb9TimePointIffE13infinite_timeEv
FN:37,_ZN2sb9TimePointIddEC2Edd
FN:12,_ZN2sb8infinityIdEET_v
FN:23,_ZN2sb9TimePointIddE9zero_timeEv
FN:28,_ZN2sb9TimePointIddE13infinite_timeEv
FN:37,_ZN2sb9TimePointIiiEC2Eii
FN:35,_ZN2sb9TimePointIiiEC2Ev
FN:12,_ZN2sb8infinityIiEET_v
FN:23,_ZN2sb9TimePointIiiE9zero_timeEv
FN:28,_ZN2sb9TimePointIiiE13infinite_timeEv
FN:37,_ZN2sb9TimePointIllEC2Ell
FN:35,_ZN2sb9TimePointIllEC2Ev
FN:12,_ZN2sb8infinityIlEET_v
FN:23,_ZN2sb9TimePointIllE9zero_timeEv
FN:28,_ZN2sb9TimePointIllE13infinite_timeEv
FN:45,_ZNK2sb9TimePointIffEeqERKS1_
FN:45,_ZNK2sb9TimePointIddEeqERKS1_
FN:45,_ZNK2sb9TimePointIiiEeqERKS1_
FN:45,_ZNK2sb9TimePointIllEeqERKS1_
FN:41,_ZN2sb9TimePointIffEC2IddEET_T0_
FNDA:23125,_ZN2sb9TimePointIffEC2Ev
FNDA:2593,_ZN2sb9TimePointIddEC2Ev
FNDA:3760,_ZN2sb9TimePointIffEC2Eff
FNDA:508,_ZN2sb8infinityIfEET_v
FNDA:486,_ZN2sb9TimePointIffE9zero_timeEv
FNDA:487,_ZN2sb9TimePointIffE13infinite_timeEv
FNDA:18379,_ZN2sb9TimePointIddEC2Edd
FNDA:113,_ZN2sb8infinityIdEET_v
FNDA:67,_ZN2sb9TimePointIddE9zero_timeEv
FNDA:83,_ZN2sb9TimePointIddE13infinite_timeEv
FNDA:297,_ZN2sb9TimePointIiiEC2Eii
FNDA:250,_ZN2sb9TimePointIiiEC2Ev
FNDA:45,_ZN2sb8infinityIiEET_v
FNDA:45,_ZN2sb9TimePointIiiE9zero_timeEv
FNDA:45,_ZN2sb9TimePointIiiE13infinite_timeEv
FNDA:286,_ZN2sb9TimePointIllEC2Ell
FNDA:212,_ZN2sb9TimePointIllEC2Ev
FNDA:45,_ZN2sb8infinityIlEET_v
FNDA:45,_ZN2sb9TimePointIllE9zero_timeEv
FNDA:45,_ZN2sb9TimePointIllE13infinite_timeEv
FNDA:9235,_ZNK2sb9TimePointIffEeqERKS1_
FNDA:545,_ZNK2sb9TimePointIddEeqERKS1_
FNDA:0,_ZNK2sb9TimePointIiiEeqERKS1_
FNDA:0,_ZNK2sb9TimePointIllEeqERKS1_
FNDA:4,_ZN2sb9TimePointIffEC2IddEET_T0_
FNF:7
FNH:7
DA:12,711
DA:13,711
DA:14,711
DA:23,643
DA:24,643
DA:25,643
DA:28,660
DA:29,660
DA:30,660
DA:35,26180
DA:37,22722
DA:41,4
DA:45,9780
DA:46,9780
DA:47,9780
BRDA:46,0,0,9780
BRDA:46,0,1,0
BRDA:46,1,2,9777
BRDA:46,1,3,3
BRF:4
BRH:3
LF:15
LH:15
end_of_record
SF:/home/runner/work/stablebear/stablebear/include/sbear/io.hpp
FN:223,_ZN2sb15read_any_tensorERSi
FN:139,_ZN2sb2io6detail11read_headerERSi
FN:51,_ZN2sb2io6detail15read_endiannessERSi
FN:80,_ZN2sb2io6detail19read_format_versionERSi
FN:172,_ZN2sb10formatNameB5cxx11Ej
FN:283,_ZN2sb15read_any_objectERSi
FN:190,_ZN2sb5writeITkNS_8IsTensorENS_6TensorIfEEEEvRKT_RSo
FN:129,_ZN2sb2io6detail12write_headerERSo
FN:35,_ZN2sb2io6detail16write_endiannessERSo
FN:75,_ZN2sb2io6detail20write_format_versionERSo
FN:85,_ZN2sb2io6detail14write_platformERSo
FN:190,_ZN2sb5writeITkNS_8IsTensorENS_6TensorIdEEEEvRKT_RSo
FN:190,_ZN2sb5writeITkNS_8IsTensorENS_6TensorIiEEEEvRKT_RSo
FN:190,_ZN2sb5writeITkNS_8IsTensorENS_6TensorIlEEEEvRKT_RSo
FN:190,_ZN2sb5writeITkNS_8IsTensorENS_6TensorIjEEEEvRKT_RSo
FN:190,_ZN2sb5writeITkNS_8IsTensorENS_6TensorImEEEEvRKT_RSo
FN:190,_ZN2sb5writeITkNS_8IsTensorENS_6TensorIbEEEEvRKT_RSo
FN:190,_ZN2sb5writeITkNS_8IsTensorENS_6TensorINS_3PcfIffEEEEEEvRKT_RSo
FN:190,_ZN2sb5writeITkNS_8IsTensorENS_6TensorINS_3PcfIddEEEEEEvRKT_RSo
FN:190,_ZN2sb5writeITkNS_8IsTensorENS_6TensorINS_3PcfIiiEEEEEEvRKT_RSo
FN:190,_ZN2sb5writeITkNS_8IsTensorENS_6TensorINS_3PcfIllEEEEEEvRKT_RSo
FN:190,_ZN2sb5writeITkNS_8IsTensorENS_6TensorINS1_IfEEEEEEvRKT_RSo
FN:190,_ZN2sb5writeITkNS_8IsTensorENS_6TensorINS1_IdEEEEEEvRKT_RSo
FN:190,_ZN2sb5writeITkNS_8IsTensorENS_6TensorINS_2ph7BarcodeIfEEEEEEvRKT_RSo
FN:190,_ZN2sb5writeITkNS_8IsTensorENS_6TensorINS_2ph7BarcodeIdEEEEEEvRKT_RSo
FN:190,_ZN2sb5writeITkNS_8IsTensorENS_6TensorINS_15SymmetricMatrixIfEEEEEEvRKT_RSo
FN:190,_ZN2sb5writeITkNS_8IsTensorENS_6TensorINS_15SymmetricMatrixIdEEEEEEvRKT_RSo
FN:190,_ZN2sb5writeITkNS_8IsTensorENS_6TensorINS_14DistanceMatrixIfEEEEEEvRKT_RSo
FN:190,_ZN2sb5writeITkNS_8IsTensorENS_6TensorINS_14DistanceMatrixIdEEEEEEvRKT_RSo
FN:273,_ZN2sb12write_objectINS_3PcfIffEEEEvRKT_RSo
FN:273,_ZN2sb12write_objectINS_3PcfIddEEEEvRKT_RSo
FN:273,_ZN2sb12write_objectINS_3PcfIiiEEEEvRKT_RSo
FN:273,_ZN2sb12write_objectINS_3PcfIllEEEEvRKT_RSo
FN:273,_ZN2sb12write_objectINS_2ph7BarcodeIfEEEEvRKT_RSo
FN:273,_ZN2sb12write_objectINS_2ph7BarcodeIdEEEEvRKT_RSo
FN:273,_ZN2sb12write_objectINS_15SymmetricMatrixIfEEEEvRKT_RSo
FN:273,_ZN2sb12write_objectINS_15SymmetricMatrixIdEEEEvRKT_RSo
FN:273,_ZN2sb12write_objectINS_14DistanceMatrixIfEEEEvRKT_RSo
FN:273,_ZN2sb12write_objectINS_14DistanceMatrixIdEEEEvRKT_RSo
FN:198,_ZN2sb4readITkNS_8IsTensorENS_6TensorIfEEEET_RSi
FN:198,_ZN2sb4readITkNS_8IsTensorENS_6TensorIdEEEET_RSi
FN:198,_ZN2sb4readITkNS_8IsTensorENS_6TensorINS_3PcfIffEEEEEET_RSi
FN:198,_ZN2sb4readITkNS_8IsTensorENS_6TensorINS_3PcfIddEEEEEET_RSi
FNDA:47,_ZN2sb15read_any_tensorERSi
FNDA:89,_ZN2sb2io6detail11read_headerERSi
FNDA:83,_ZN2sb2io6detail15read_endiannessERSi
FNDA:83,_ZN2sb2io6detail19read_format_versionERSi
FNDA:8,_ZN2sb10formatNameB5cxx11Ej
FNDA:16,_ZN2sb15read_any_objectERSi
FNDA:19,_ZN2sb5writeITkNS_8IsTensorENS_6TensorIfEEEEvRKT_RSo
FNDA:83,_ZN2sb2io6detail12write_headerERSo
FNDA:83,_ZN2sb2io6detail16write_endiannessERSo
FNDA:83,_ZN2sb2io6detail20write_format_versionERSo
FNDA:83,_ZN2sb2io6detail14write_platformERSo
FNDA:17,_ZN2sb5writeITkNS_8IsTensorENS_6TensorIdEEEEvRKT_RSo
FNDA:1,_ZN2sb5writeITkNS_8IsTensorENS_6TensorIiEEEEvRKT_RSo
FNDA:1,_ZN2sb5writeITkNS_8IsTensorENS_6TensorIlEEEEvRKT_RSo
FNDA:0,_ZN2sb5writeITkNS_8IsTensorENS_6TensorIjEEEEvRKT_RSo
FNDA:0,_ZN2sb5writeITkNS_8IsTensorENS_6TensorImEEEEvRKT_RSo
FNDA:1,_ZN2sb5writeITkNS_8IsTensorENS_6TensorIbEEEEvRKT_RSo
FNDA:7,_ZN2sb5writeITkNS_8IsTensorENS_6TensorINS_3PcfIffEEEEEEvRKT_RSo
FNDA:7,_ZN2sb5writeITkNS_8IsTensorENS_6TensorINS_3PcfIddEEEEEEvRKT_RSo
FNDA:1,_ZN2sb5writeITkNS_8IsTensorENS_6TensorINS_3PcfIiiEEEEEEvRKT_RSo
FNDA:1,_ZN2sb5writeITkNS_8IsTensorENS_6TensorINS_3PcfIllEEEEEEvRKT_RSo
FNDA:2,_ZN2sb5writeITkNS_8IsTensorENS_6TensorINS1_IfEEEEEEvRKT_RSo
FNDA:1,_ZN2sb5writeITkNS_8IsTensorENS_6TensorINS1_IdEEEEEEvRKT_RSo
FNDA:2,_ZN2sb5writeITkNS_8IsTensorENS_6TensorINS_2ph7BarcodeIfEEEEEEvRKT_RSo
FNDA:2,_ZN2sb5writeITkNS_8IsTensorENS_6TensorINS_2ph7BarcodeIdEEEEEEvRKT_RSo
FNDA:2,_ZN2sb5writeITkNS_8IsTensorENS_6TensorINS_15SymmetricMatrixIfEEEEEEvRKT_RSo
FNDA:2,_ZN2sb5writeITkNS_8IsTensorENS_6TensorINS_15SymmetricMatrixIdEEEEEEvRKT_RSo
FNDA:2,_ZN2sb5writeITkNS_8IsTensorENS_6TensorINS_14DistanceMatrixIfEEEEEEvRKT_RSo
FNDA:2,_ZN2sb5writeITkNS_8IsTensorENS_6TensorINS_14DistanceMatrixIdEEEEEEvRKT_RSo
FNDA:1,_ZN2sb12write_objectINS_3PcfIffEEEEvRKT_RSo
FNDA:2,_ZN2sb12write_objectINS_3PcfIddEEEEvRKT_RSo
FNDA:2,_ZN2sb12write_objectINS_3PcfIiiEEEEvRKT_RSo
FNDA:2,_ZN2sb12write_objectINS_3PcfIllEEEEvRKT_RSo
FNDA:1,_ZN2sb12write_objectINS_2ph7BarcodeIfEEEEvRKT_RSo
FNDA:2,_ZN2sb12write_objectINS_2ph7BarcodeIdEEEEvRKT_RSo
FNDA:0,_ZN2sb12write_objectINS_15SymmetricMatrixIfEEEEvRKT_RSo
FNDA:1,_ZN2sb12write_objectINS_15SymmetricMatrixIdEEEEvRKT_RSo
FNDA:0,_ZN2sb12write_objectINS_14DistanceMatrixIfEEEEvRKT_RSo
FNDA:2,_ZN2sb12write_objectINS_14DistanceMatrixIdEEEEvRKT_RSo
FNDA:11,_ZN2sb4readITkNS_8IsTensorENS_6TensorIfEEEET_RSi
FNDA:13,_ZN2sb4readITkNS_8IsTensorENS_6TensorIdEEEET_RSi
FNDA:1,_ZN2sb4readITkNS_8IsTensorENS_6TensorINS_3PcfIffEEEEEET_RSi
FNDA:1,_ZN2sb4readITkNS_8IsTensorENS_6TensorINS_3PcfIddEEEEEET_RSi
FNF:13
FNH:13
DA:35,83
DA:37,83
DA:38,83
DA:48,83
DA:51,83
DA:52,83
DA:54,83
DA:55,83
DA:56,83
DA:57,83
DA:58,83
DA:71,0
DA:72,83
DA:75,83
DA:76,83
DA:77,83
DA:80,83
DA:81,83
DA:82,83
DA:85,83
DA:89,83
DA:108,83
DA:109,83
DA:110,83
DA:123,83
DA:124,83
DA:129,83
DA:130,83
DA:131,83
DA:132,83
DA:133,83
DA:134,83
DA:135,83
DA:136,83
DA:139,89
DA:140,89
DA:141,89
DA:142,4
DA:143,4
DA:144,4
DA:146,85
DA:148,85
DA:149,85
DA:150,4
DA:151,4
DA:152,4
DA:154,81
DA:155,81
DA:157,81
DA:158,77
DA:159,77
DA:160,77
DA:161,81
DA:172,8
DA:174,8
DA:175,4
DA:176,4
DA:177,4
DA:178,4
DA:179,4
DA:180,4
DA:181,4
DA:182,0
DA:183,0
DA:184,0
DA:185,0
DA:186,8
DA:190,70
DA:191,70
DA:192,70
DA:193,70
DA:194,70
DA:198,26
DA:199,26
DA:201,26
DA:202,26
DA:203,0
DA:204,0
DA:205,0
DA:206,0
DA:208,26
DA:210,26
DA:211,26
DA:213,26
DA:214,26
DA:215,2
DA:216,2
DA:217,2
DA:219,24
DA:220,26
DA:223,47
DA:224,47
DA:226,47
DA:227,47
DA:228,3
DA:229,3
DA:230,3
DA:231,3
DA:233,44
DA:235,44
DA:236,39
DA:238,34
DA:239,33
DA:241,32
DA:242,32
DA:244,32
DA:246,31
DA:247,25
DA:249,19
DA:250,18
DA:252,17
DA:253,15
DA:255,14
DA:256,12
DA:258,10
DA:259,8
DA:261,6
DA:262,4
DA:264,2
DA:265,2
DA:266,2
DA:267,2
DA:269,44
DA:273,13
DA:274,13
DA:275,13
DA:276,13
DA:277,13
DA:278,13
DA:279,13
DA:280,13
DA:283,16
DA:284,16
DA:286,16
DA:287,16
DA:288,1
DA:289,1
DA:290,1
DA:291,1
DA:293,15
DA:295,15
DA:296,14
DA:298,12
DA:299,10
DA:301,8
DA:302,7
DA:304,5
DA:305,5
DA:307,4
DA:308,4
DA:310,2
DA:311,2
DA:312,2
DA:313,2
DA:315,15
BRDA:55,0,0,83
BRDA:55,0,1,0
BRDA:141,0,0,4
BRDA:141,0,1,85
BRDA:149,0,0,2
BRDA:149,0,1,83
BRDA:149,1,2,4
BRDA:149,1,3,79
BRDA:157,0,0,77
BRDA:157,0,1,4
BRDA:174,0,0,4
BRDA:174,0,1,4
BRDA:178,0,0,4
BRDA:178,0,1,0
BRDA:202,0,0,0
BRDA:202,0,1,26
BRDA:214,0,0,2
BRDA:214,0,1,24
BRDA:227,0,0,3
BRDA:227,0,1,44
BRDA:235,0,0,5
BRDA:235,0,1,39
BRDA:236,0,0,5
BRDA:236,0,1,34
BRDA:238,0,0,1
BRDA:238,0,1,33
BRDA:239,0,0,1
BRDA:239,0,1,32
BRDA:241,0,0,0
BRDA:241,0,1,32
BRDA:242,0,0,0
BRDA:242,0,1,32
BRDA:244,0,0,1
BRDA:244,0,1,31
BRDA:246,0,0,6
BRDA:246,0,1,25
BRDA:247,0,0,6
BRDA:247,0,1,19
BRDA:249,0,0,1
BRDA:249,0,1,18
BRDA:250,0,0,1
BRDA:250,0,1,17
BRDA:252,0,0,2
BRDA:252,0,1,15
BRDA:253,0,0,1
BRDA:253,0,1,14
BRDA:255,0,0,2
BRDA:255,0,1,12
BRDA:256,0,0,2
BRDA:256,0,1,10
BRDA:258,0,0,2
BRDA:258,0,1,8
BRDA:259,0,0,2
BRDA:259,0,1,6
BRDA:261,0,0,2
BRDA:261,0,1,4
BRDA:262,0,0,2
BRDA:262,0,1,2
BRDA:287,0,0,1
BRDA:287,0,1,15
BRDA:295,0,0,1
BRDA:295,0,1,14
BRDA:296,0,0,2
BRDA:296,0,1,12
BRDA:298,0,0,2
BRDA:298,0,1,10
BRDA:299,0,0,2
BRDA:299,0,1,8
BRDA:301,0,0,1
BRDA:301,0,1,7
BRDA:302,0,0,2
BRDA:302,0,1,5
BRDA:304,0,0,0
BRDA:304,0,1,5
BRDA:305,0,0,1
BRDA:305,0,1,4
BRDA:307,0,0,0
BRDA:307,0,1,4
BRDA:308,0,0,2
BRDA:308,0,1,2
BRF:80
BRH:73
LF:155
LH:146
end_of_record
SF:/home/runner/work/stablebear/stablebear/include/sbear/io/barcode_io.hpp
FN:23,_ZN2sb2io6detail12read_barcodeIfEENS_2ph7BarcodeIT_EERSi
FN:23,_ZN2sb2io6detail12read_barcodeIdEENS_2ph7BarcodeIT_EERSi
FN:11,_ZN2sb2io6detail13write_elementIfEEvRSoRKNS_2ph7BarcodeIT_EE
FN:11,_ZN2sb2io6detail13write_elementIdEEvRSoRKNS_2ph7BarcodeIT_EE
FNDA:6,_ZN2sb2io6detail12read_barcodeIfEENS_2ph7BarcodeIT_EERSi
FNDA:7,_ZN2sb2io6detail12read_barcodeIdEENS_2ph7BarcodeIT_EERSi
FNDA:6,_ZN2sb2io6detail13write_elementIfEEvRSoRKNS_2ph7BarcodeIT_EE
FNDA:7,_ZN2sb2io6detail13write_elementIdEEvRSoRKNS_2ph7BarcodeIT_EE
FNF:2
FNH:2
DA:11,13
DA:12,13
DA:13,13
DA:14,10
DA:15,10
DA:16,10
DA:17,10
DA:19,13
DA:23,13
DA:24,13
DA:25,13
DA:26,13
DA:27,23
DA:28,10
DA:29,10
DA:30,10
DA:32,10
DA:33,10
DA:35,13
DA:36,13
BRDA:13,0,0,10
BRDA:13,0,1,13
BRDA:27,0,0,10
BRDA:27,0,1,13
BRF:4
BRH:4
LF:20
LH:20
end_of_record
SF:/home/runner/work/stablebear/stablebear/include/sbear/io/compressed_matrix_io.hpp
FN:23,_ZN2sb2io6detail22read_compressed_matrixINS_15SymmetricMatrixIfEEEET_RSi
FN:23,_ZN2sb2io6detail22read_compressed_matrixINS_15SymmetricMatrixIdEEEET_RSi
FN:23,_ZN2sb2io6detail22read_compressed_matrixINS_14DistanceMatrixIfEEEET_RSi
FN:23,_ZN2sb2io6detail22read_compressed_matrixINS_14DistanceMatrixIdEEEET_RSi
FN:13,_ZN2sb2io6detail13write_elementINS_15SymmetricMatrixIfEEEEvRSoRKT_QrqXcldtfp0_4sizeEXcldtfp0_13storage_countEXcldtfp0_4dataEE
FN:13,_ZN2sb2io6detail13write_elementINS_15SymmetricMatrixIdEEEEvRSoRKT_QrqXcldtfp0_4sizeEXcldtfp0_13storage_countEXcldtfp0_4dataEE
FN:13,_ZN2sb2io6detail13write_elementINS_14DistanceMatrixIfEEEEvRSoRKT_QrqXcldtfp0_4sizeEXcldtfp0_13storage_countEXcldtfp0_4dataEE
FN:13,_ZN2sb2io6detail13write_elementINS_14DistanceMatrixIdEEEEvRSoRKT_QrqXcldtfp0_4sizeEXcldtfp0_13storage_countEXcldtfp0_4dataEE
FNDA:3,_ZN2sb2io6detail22read_compressed_matrixINS_15SymmetricMatrixIfEEEET_RSi
FNDA:4,_ZN2sb2io6detail22read_compressed_matrixINS_15SymmetricMatrixIdEEEET_RSi
FNDA:3,_ZN2sb2io6detail22read_compressed_matrixINS_14DistanceMatrixIfEEEET_RSi
FNDA:5,_ZN2sb2io6detail22read_compressed_matrixINS_14DistanceMatrixIdEEEET_RSi
FNDA:3,_ZN2sb2io6detail13write_elementINS_15SymmetricMatrixIfEEEEvRSoRKT_QrqXcldtfp0_4sizeEXcldtfp0_13storage_countEXcldtfp0_4dataEE
FNDA:4,_ZN2sb2io6detail13write_elementINS_15SymmetricMatrixIdEEEEvRSoRKT_QrqXcldtfp0_4sizeEXcldtfp0_13storage_countEXcldtfp0_4dataEE
FNDA:3,_ZN2sb2io6detail13write_elementINS_14DistanceMatrixIfEEEEvRSoRKT_QrqXcldtfp0_4sizeEXcldtfp0_13storage_countEXcldtfp0_4dataEE
FNDA:5,_ZN2sb2io6detail13write_elementINS_14DistanceMatrixIdEEEEvRSoRKT_QrqXcldtfp0_4sizeEXcldtfp0_13storage_countEXcldtfp0_4dataEE
FNF:2
FNH:2
DA:13,15
DA:14,15
DA:15,80
DA:16,65
DA:17,65
DA:18,65
DA:19,15
DA:23,15
DA:24,15
DA:25,15
DA:26,15
DA:27,80
DA:28,65
DA:29,65
DA:30,65
DA:31,15
DA:32,15
BRDA:15,0,0,65
BRDA:15,0,1,15
BRDA:27,0,0,65
BRDA:27,0,1,15
BRF:4
BRH:4
LF:17
LH:17
end_of_record
SF:/home/runner/work/stablebear/stablebear/include/sbear/io/io_stream.hpp
FN:33,_ZN2sb2io6detail12read_elementITkNS_14ArithmeticTypeEfEET_RSi
FN:33,_ZN2sb2io6detail12read_elementITkNS_14ArithmeticTypeEdEET_RSi
FN:33,_ZN2sb2io6detail12read_elementITkNS_14ArithmeticTypeEiEET_RSi
FN:33,_ZN2sb2io6detail12read_elementITkNS_14ArithmeticTypeElEET_RSi
FN:33,_ZN2sb2io6detail12read_elementITkNS_14ArithmeticTypeEjEET_RSi
FN:33,_ZN2sb2io6detail12read_elementITkNS_14ArithmeticTypeEmEET_RSi
FN:33,_ZN2sb2io6detail12read_elementITkNS_14ArithmeticTypeEbEET_RSi
FN:45,_ZN2sb2io6detail11read_vectorINS_9TimePointIffEESaIS4_EEESt6vectorIT_T0_ERSi
FN:45,_ZN2sb2io6detail11read_vectorINS_9TimePointIddEESaIS4_EEESt6vectorIT_T0_ERSi
FN:45,_ZN2sb2io6detail11read_vectorINS_9TimePointIiiEESaIS4_EEESt6vectorIT_T0_ERSi
FN:45,_ZN2sb2io6detail11read_vectorINS_9TimePointIllEESaIS4_EEESt6vectorIT_T0_ERSi
FN:39,_ZN2sb2io6detail13write_elementITkNS_14ArithmeticTypeEfEEvRSoT_
FN:39,_ZN2sb2io6detail13write_elementITkNS_14ArithmeticTypeEdEEvRSoT_
FN:39,_ZN2sb2io6detail13write_elementITkNS_14ArithmeticTypeEiEEvRSoT_
FN:39,_ZN2sb2io6detail13write_elementITkNS_14ArithmeticTypeElEEvRSoT_
FN:39,_ZN2sb2io6detail13write_elementITkNS_14ArithmeticTypeEjEEvRSoT_
FN:39,_ZN2sb2io6detail13write_elementITkNS_14ArithmeticTypeEmEEvRSoT_
FN:39,_ZN2sb2io6detail13write_elementITkNS_14ArithmeticTypeEbEEvRSoT_
FN:21,_ZN2sb2io6detail14write_elementsITkSt16forward_iteratorN9__gnu_cxx17__normal_iteratorIPKNS_9TimePointIffEESt6vectorIS6_SaIS6_EEEEEEvRSoT_SE_
FN:21,_ZN2sb2io6detail14write_elementsITkSt16forward_iteratorN9__gnu_cxx17__normal_iteratorIPKNS_9TimePointIddEESt6vectorIS6_SaIS6_EEEEEEvRSoT_SE_
FN:21,_ZN2sb2io6detail14write_elementsITkSt16forward_iteratorN9__gnu_cxx17__normal_iteratorIPKNS_9TimePointIiiEESt6vectorIS6_SaIS6_EEEEEEvRSoT_SE_
FN:21,_ZN2sb2io6detail14write_elementsITkSt16forward_iteratorN9__gnu_cxx17__normal_iteratorIPKNS_9TimePointIllEESt6vectorIS6_SaIS6_EEEEEEvRSoT_SE_
FNDA:129,_ZN2sb2io6detail12read_elementITkNS_14ArithmeticTypeEfEET_RSi
FNDA:146,_ZN2sb2io6detail12read_elementITkNS_14ArithmeticTypeEdEET_RSi
FNDA:3,_ZN2sb2io6detail12read_elementITkNS_14ArithmeticTypeEiEET_RSi
FNDA:4,_ZN2sb2io6detail12read_elementITkNS_14ArithmeticTypeElEET_RSi
FNDA:0,_ZN2sb2io6detail12read_elementITkNS_14ArithmeticTypeEjEET_RSi
FNDA:0,_ZN2sb2io6detail12read_elementITkNS_14ArithmeticTypeEmEET_RSi
FNDA:4,_ZN2sb2io6detail12read_elementITkNS_14ArithmeticTypeEbEET_RSi
FNDA:66,_ZN2sb2io6detail11read_vectorINS_9TimePointIffEESaIS4_EEESt6vectorIT_T0_ERSi
FNDA:48,_ZN2sb2io6detail11read_vectorINS_9TimePointIddEESaIS4_EEESt6vectorIT_T0_ERSi
FNDA:4,_ZN2sb2io6detail11read_vectorINS_9TimePointIiiEESaIS4_EEESt6vectorIT_T0_ERSi
FNDA:4,_ZN2sb2io6detail11read_vectorINS_9TimePointIllEESaIS4_EEESt6vectorIT_T0_ERSi
FNDA:155,_ZN2sb2io6detail13write_elementITkNS_14ArithmeticTypeEfEEvRSoT_
FNDA:174,_ZN2sb2io6detail13write_elementITkNS_14ArithmeticTypeEdEEvRSoT_
FNDA:3,_ZN2sb2io6detail13write_elementITkNS_14ArithmeticTypeEiEEvRSoT_
FNDA:4,_ZN2sb2io6detail13write_elementITkNS_14ArithmeticTypeElEEvRSoT_
FNDA:0,_ZN2sb2io6detail13write_elementITkNS_14ArithmeticTypeEjEEvRSoT_
FNDA:0,_ZN2sb2io6detail13write_elementITkNS_14ArithmeticTypeEmEEvRSoT_
FNDA:4,_ZN2sb2io6detail13write_elementITkNS_14ArithmeticTypeEbEEvRSoT_
FNDA:66,_ZN2sb2io6detail14write_elementsITkSt16forward_iteratorN9__gnu_cxx17__normal_iteratorIPKNS_9TimePointIffEESt6vectorIS6_SaIS6_EEEEEEvRSoT_SE_
FNDA:49,_ZN2sb2io6detail14write_elementsITkSt16forward_iteratorN9__gnu_cxx17__normal_iteratorIPKNS_9TimePointIddEESt6vectorIS6_SaIS6_EEEEEEvRSoT_SE_
FNDA:4,_ZN2sb2io6detail14write_elementsITkSt16forward_iteratorN9__gnu_cxx17__normal_iteratorIPKNS_9TimePointIiiEESt6vectorIS6_SaIS6_EEEEEEvRSoT_SE_
FNDA:4,_ZN2sb2io6detail14write_elementsITkSt16forward_iteratorN9__gnu_cxx17__normal_iteratorIPKNS_9TimePointIllEESt6vectorIS6_SaIS6_EEEEEEvRSoT_SE_
FNF:4
FNH:4
DA:21,123
DA:22,123
DA:23,1007
DA:24,884
DA:25,884
DA:26,884
DA:27,123
DA:33,286
DA:34,286
DA:35,286
DA:39,340
DA:40,340
DA:41,340
DA:45,122
DA:46,122
DA:47,122
DA:48,122
DA:49,122
DA:50,973
DA:51,851
DA:52,851
DA:53,851
DA:54,122
DA:55,122
BRDA:23,0,0,884
BRDA:23,0,1,123
BRDA:50,0,0,851
BRDA:50,0,1,122
BRF:4
BRH:4
LF:24
LH:24
end_of_record
SF:/home/runner/work/stablebear/stablebear/include/sbear/io/io_stream_base.hpp
FN:26,_ZN2sb2io6detail19write_binary_stringERSoSt17basic_string_viewIcSt11char_traitsIcEE
FN:32,_ZN2sb2io6detail18read_binary_stringB5cxx11ERSil
FN:91,_ZN2sb2io6detail11read_lengthERSi
FN:106,_ZN2sb2io6detail12write_stringERSoRKNSt7__cxx1112basic_stringIcSt11char_traitsIcESaIcEEE
FN:112,_ZN2sb2io6detail11read_stringB5cxx11ERSi
FN:18,_ZN2sb2io6detail14assert_not_badIcSt11char_traitsIcEEEvRSt9basic_iosIT_T0_E
FN:62,_ZN2sb2io6detail10read_bytesImEET_RSi
FN:45,_ZN2sb2io6detail11write_bytesImEEvRSoRKT_
FN:62,_ZN2sb2io6detail10read_bytesIiEET_RSi
FN:62,_ZN2sb2io6detail10read_bytesIjEET_RSi
FN:62,_ZN2sb2io6detail10read_bytesIfEET_RSi
FN:62,_ZN2sb2io6detail10read_bytesIdEET_RSi
FN:62,_ZN2sb2io6detail10read_bytesIlEET_RSi
FN:62,_ZN2sb2io6detail10read_bytesIbEET_RSi
FN:45,_ZN2sb2io6detail11write_bytesIiEEvRSoRKT_
FN:45,_ZN2sb2io6detail11write_bytesIjEEvRSoRKT_
FN:45,_ZN2sb2io6detail11write_bytesIfEEvRSoRKT_
FN:45,_ZN2sb2io6detail11write_bytesIdEEvRSoRKT_
FN:45,_ZN2sb2io6detail11write_bytesIlEEvRSoRKT_
FN:45,_ZN2sb2io6detail11write_bytesIbEEvRSoRKT_
FN:81,_ZN2sb2io6detail12write_lengthITkSt16forward_iteratorN9__gnu_cxx17__normal_iteratorIPKNS_9TimePointIffEESt6vectorIS6_SaIS6_EEEEEEvRSoT_SE_
FN:81,_ZN2sb2io6detail12write_lengthITkSt16forward_iteratorN9__gnu_cxx17__normal_iteratorIPKNS_9TimePointIddEESt6vectorIS6_SaIS6_EEEEEEvRSoT_SE_
FN:81,_ZN2sb2io6detail12write_lengthITkSt16forward_iteratorN9__gnu_cxx17__normal_iteratorIPKNS_9TimePointIiiEESt6vectorIS6_SaIS6_EEEEEEvRSoT_SE_
FN:81,_ZN2sb2io6detail12write_lengthITkSt16forward_iteratorN9__gnu_cxx17__normal_iteratorIPKNS_9TimePointIllEESt6vectorIS6_SaIS6_EEEEEEvRSoT_SE_
FN:81,_ZN2sb2io6detail12write_lengthITkSt16forward_iteratorN9__gnu_cxx17__normal_iteratorIPKNS_2ph15PersistencePairIfEESt6vectorIS7_SaIS7_EEEEEEvRSoT_SF_
FN:81,_ZN2sb2io6detail12write_lengthITkSt16forward_iteratorN9__gnu_cxx17__normal_iteratorIPKNS_2ph15PersistencePairIdEESt6vectorIS7_SaIS7_EEEEEEvRSoT_SF_
FN:81,_ZN2sb2io6detail12write_lengthITkSt16forward_iteratorN9__gnu_cxx17__normal_iteratorIPiSt6vectorIiSaIiEEEEEEvRSoT_SB_
FNDA:166,_ZN2sb2io6detail19write_binary_stringERSoSt17basic_string_viewIcSt11char_traitsIcEE
FNDA:176,_ZN2sb2io6detail18read_binary_stringB5cxx11ERSil
FNDA:13,_ZN2sb2io6detail11read_lengthERSi
FNDA:251,_ZN2sb2io6detail12write_stringERSoRKNSt7__cxx1112basic_stringIcSt11char_traitsIcESaIcEEE
FNDA:241,_ZN2sb2io6detail11read_stringB5cxx11ERSi
FNDA:6636,_ZN2sb2io6detail14assert_not_badIcSt11char_traitsIcEEEvRSt9basic_iosIT_T0_E
FNDA:704,_ZN2sb2io6detail10read_bytesImEET_RSi
FNDA:753,_ZN2sb2io6detail11write_bytesImEEvRSoRKT_
FNDA:290,_ZN2sb2io6detail10read_bytesIiEET_RSi
FNDA:78,_ZN2sb2io6detail10read_bytesIjEET_RSi
FNDA:982,_ZN2sb2io6detail10read_bytesIfEET_RSi
FNDA:1060,_ZN2sb2io6detail10read_bytesIdEET_RSi
FNDA:20,_ZN2sb2io6detail10read_bytesIlEET_RSi
FNDA:4,_ZN2sb2io6detail10read_bytesIbEET_RSi
FNDA:310,_ZN2sb2io6detail11write_bytesIiEEvRSoRKT_
FNDA:83,_ZN2sb2io6detail11write_bytesIjEEvRSoRKT_
FNDA:1007,_ZN2sb2io6detail11write_bytesIfEEvRSoRKT_
FNDA:1153,_ZN2sb2io6detail11write_bytesIdEEvRSoRKT_
FNDA:20,_ZN2sb2io6detail11write_bytesIlEEvRSoRKT_
FNDA:4,_ZN2sb2io6detail11write_bytesIbEEvRSoRKT_
FNDA:66,_ZN2sb2io6detail12write_lengthITkSt16forward_iteratorN9__gnu_cxx17__normal_iteratorIPKNS_9TimePointIffEESt6vectorIS6_SaIS6_EEEEEEvRSoT_SE_
FNDA:49,_ZN2sb2io6detail12write_lengthITkSt16forward_iteratorN9__gnu_cxx17__normal_iteratorIPKNS_9TimePointIddEESt6vectorIS6_SaIS6_EEEEEEvRSoT_SE_
FNDA:4,_ZN2sb2io6detail12write_lengthITkSt16forward_iteratorN9__gnu_cxx17__normal_iteratorIPKNS_9TimePointIiiEESt6vectorIS6_SaIS6_EEEEEEvRSoT_SE_
FNDA:4,_ZN2sb2io6detail12write_lengthITkSt16forward_iteratorN9__gnu_cxx17__normal_iteratorIPKNS_9TimePointIllEESt6vectorIS6_SaIS6_EEEEEEvRSoT_SE_
FNDA:6,_ZN2sb2io6detail12write_lengthITkSt16forward_iteratorN9__gnu_cxx17__normal_iteratorIPKNS_2ph15PersistencePairIfEESt6vectorIS7_SaIS7_EEEEEEvRSoT_SF_
FNDA:7,_ZN2sb2io6detail12write_lengthITkSt16forward_iteratorN9__gnu_cxx17__normal_iteratorIPKNS_2ph15PersistencePairIdEESt6vectorIS7_SaIS7_EEEEEEvRSoT_SF_
FNDA:2,_ZN2sb2io6detail12write_lengthITkSt16forward_iteratorN9__gnu_cxx17__normal_iteratorIPiSt6vectorIiSaIiEEEEEEvRSoT_SB_
FNF:9
FNH:9
DA:18,6636
DA:19,6636
DA:20,1
DA:21,1
DA:22,1
DA:23,6636
DA:26,166
DA:27,166
DA:28,166
DA:29,166
DA:32,176
DA:33,176
DA:34,176
DA:35,176
DA:36,176
DA:37,2
DA:38,2
DA:39,2
DA:40,174
DA:41,176
DA:45,3330
DA:56,3330
DA:57,3330
DA:58,3330
DA:62,3138
DA:66,3138
DA:67,3138
DA:68,3138
DA:69,3138
DA:70,4
DA:71,4
DA:72,4
DA:76,3134
DA:77,3138
DA:81,138
DA:82,138
DA:83,138
DA:84,0
DA:85,0
DA:86,0
DA:87,138
DA:88,138
DA:91,13
DA:92,13
DA:93,13
DA:106,251
DA:107,251
DA:108,251
DA:109,251
DA:112,241
DA:114,241
DA:116,241
DA:117,241
DA:118,0
DA:119,0
DA:120,0
DA:122,241
DA:123,241
DA:124,241
DA:125,241
DA:126,1
DA:127,1
DA:128,1
DA:130,240
DA:131,241
BRDA:19,0,0,1
BRDA:19,0,1,6635
BRDA:36,0,0,2
BRDA:36,0,1,174
BRDA:69,0,0,4
BRDA:69,0,1,3134
BRDA:83,0,0,0
BRDA:83,0,1,138
BRDA:117,0,0,0
BRDA:117,0,1,241
BRDA:125,0,0,1
BRDA:125,0,1,240
BRF:12
BRH:10
LF:65
LH:59
end_of_record
SF:/home/runner/work/stablebear/stablebear/include/sbear/io/pcf_io.hpp
FN:17,_ZN2sb2io6detail12read_elementITkNS_7PcfLikeENS_3PcfIffEEEET_RSi
FN:17,_ZN2sb2io6detail12read_elementITkNS_7PcfLikeENS_3PcfIddEEEET_RSi
FN:17,_ZN2sb2io6detail12read_elementITkNS_7PcfLikeENS_3PcfIiiEEEET_RSi
FN:17,_ZN2sb2io6detail12read_elementITkNS_7PcfLikeENS_3PcfIllEEEET_RSi
FN:11,_ZN2sb2io6detail13write_elementITkNS_7PcfLikeENS_3PcfIffEEEEvRSoRKT_
FN:11,_ZN2sb2io6detail13write_elementITkNS_7PcfLikeENS_3PcfIddEEEEvRSoRKT_
FN:11,_ZN2sb2io6detail13write_elementITkNS_7PcfLikeENS_3PcfIiiEEEEvRSoRKT_
FN:11,_ZN2sb2io6detail13write_elementITkNS_7PcfLikeENS_3PcfIllEEEEvRSoRKT_
FNDA:66,_ZN2sb2io6detail12read_elementITkNS_7PcfLikeENS_3PcfIffEEEET_RSi
FNDA:48,_ZN2sb2io6detail12read_elementITkNS_7PcfLikeENS_3PcfIddEEEET_RSi
FNDA:4,_ZN2sb2io6detail12read_elementITkNS_7PcfLikeENS_3PcfIiiEEEET_RSi
FNDA:4,_ZN2sb2io6detail12read_elementITkNS_7PcfLikeENS_3PcfIllEEEET_RSi
FNDA:66,_ZN2sb2io6detail13write_elementITkNS_7PcfLikeENS_3PcfIffEEEEvRSoRKT_
FNDA:49,_ZN2sb2io6detail13write_elementITkNS_7PcfLikeENS_3PcfIddEEEEvRSoRKT_
FNDA:4,_ZN2sb2io6detail13write_elementITkNS_7PcfLikeENS_3PcfIiiEEEEvRSoRKT_
FNDA:4,_ZN2sb2io6detail13write_elementITkNS_7PcfLikeENS_3PcfIllEEEEvRSoRKT_
FNF:2
FNH:2
DA:11,123
DA:12,123
DA:13,123
DA:17,122
DA:18,122
DA:19,122
DA:20,122
DA:21,122
BRF:0
BRH:0
LF:8
LH:8
end_of_record
SF:/home/runner/work/stablebear/stablebear/include/sbear/io/point_io.hpp
FN:18,_ZN2sb2io6detail12read_elementITkNS_13TimePointLikeENS_9TimePointIffEEEET_RSi
FN:18,_ZN2sb2io6detail12read_elementITkNS_13TimePointLikeENS_9TimePointIddEEEET_RSi
FN:18,_ZN2sb2io6detail12read_elementITkNS_13TimePointLikeENS_9TimePointIiiEEEET_RSi
FN:18,_ZN2sb2io6detail12read_elementITkNS_13TimePointLikeENS_9TimePointIllEEEET_RSi
FN:11,_ZN2sb2io6detail13write_elementITkNS_13TimePointLikeENS_9TimePointIffEEEEvRSoRKT_
FN:11,_ZN2sb2io6detail13write_elementITkNS_13TimePointLikeENS_9TimePointIddEEEEvRSoRKT_
FN:11,_ZN2sb2io6detail13write_elementITkNS_13TimePointLikeENS_9TimePointIiiEEEEvRSoRKT_
FN:11,_ZN2sb2io6detail13write_elementITkNS_13TimePointLikeENS_9TimePointIllEEEEvRSoRKT_
FNDA:408,_ZN2sb2io6detail12read_elementITkNS_13TimePointLikeENS_9TimePointIffEEEET_RSi
FNDA:429,_ZN2sb2io6detail12read_elementITkNS_13TimePointLikeENS_9TimePointIddEEEET_RSi
FNDA:8,_ZN2sb2io6detail12read_elementITkNS_13TimePointLikeENS_9TimePointIiiEEEET_RSi
FNDA:8,_ZN2sb2io6detail12read_elementITkNS_13TimePointLikeENS_9TimePointIllEEEET_RSi
FNDA:408,_ZN2sb2io6detail13write_elementITkNS_13TimePointLikeENS_9TimePointIffEEEEvRSoRKT_
FNDA:462,_ZN2sb2io6detail13write_elementITkNS_13TimePointLikeENS_9TimePointIddEEEEvRSoRKT_
FNDA:8,_ZN2sb2io6detail13write_elementITkNS_13TimePointLikeENS_9TimePointIiiEEEEvRSoRKT_
FNDA:8,_ZN2sb2io6detail13write_elementITkNS_13TimePointLikeENS_9TimePointIllEEEEvRSoRKT_
FNF:2
FNH:2
DA:11,886
DA:12,886
DA:13,886
DA:14,886
DA:18,853
DA:19,853
DA:20,853
DA:21,853
DA:22,853
DA:23,853
BRF:0
BRH:0
LF:10
LH:10
end_of_record
SF:/home/runner/work/stablebear/stablebear/include/sbear/io/tensor_io.hpp
FN:86,_ZNK2sb2io6detail12TensorFormat8toStringB5cxx11Ev
FN:96,_ZN2sb2io6detail12tensorFormatINS_14DistanceMatrixIdEEEENS1_12TensorFormatEv
FN:96,_ZN2sb2io6detail12tensorFormatINS_14DistanceMatrixIfEEEENS1_12TensorFormatEv
FN:96,_ZN2sb2io6detail12tensorFormatINS_15SymmetricMatrixIdEEEENS1_12TensorFormatEv
FN:96,_ZN2sb2io6detail12tensorFormatINS_15SymmetricMatrixIfEEEENS1_12TensorFormatEv
FN:96,_ZN2sb2io6detail12tensorFormatINS_2ph7BarcodeIdEEEENS1_12TensorFormatEv
FN:96,_ZN2sb2io6detail12tensorFormatINS_2ph7BarcodeIfEEEENS1_12TensorFormatEv
FN:96,_ZN2sb2io6detail12tensorFormatINS_6TensorIdEEEENS1_12TensorFormatEv
FN:96,_ZN2sb2io6detail12tensorFormatINS_6TensorIfEEEENS1_12TensorFormatEv
FN:96,_ZN2sb2io6detail12tensorFormatINS_3PcfIllEEEENS1_12TensorFormatEv
FN:96,_ZN2sb2io6detail12tensorFormatINS_3PcfIiiEEEENS1_12TensorFormatEv
FN:96,_ZN2sb2io6detail12tensorFormatINS_3PcfIddEEEENS1_12TensorFormatEv
FN:96,_ZN2sb2io6detail12tensorFormatINS_3PcfIffEEEENS1_12TensorFormatEv
FN:96,_ZN2sb2io6detail12tensorFormatIbEENS1_12TensorFormatEv
FN:96,_ZN2sb2io6detail12tensorFormatImEENS1_12TensorFormatEv
FN:96,_ZN2sb2io6detail12tensorFormatIjEENS1_12TensorFormatEv
FN:96,_ZN2sb2io6detail12tensorFormatIlEENS1_12TensorFormatEv
FN:96,_ZN2sb2io6detail12tensorFormatIiEENS1_12TensorFormatEv
FN:96,_ZN2sb2io6detail12tensorFormatIdEENS1_12TensorFormatEv
FN:96,_ZN2sb2io6detail12tensorFormatIfEENS1_12TensorFormatEv
FN:133,_ZN2sb2io6detail15getTensorFormatERKSt7variantIJNS_6TensorIfEENS3_IdEENS3_IiEENS3_IlEENS3_IjEENS3_ImEENS3_IbEENS3_INS_3PcfIffEEEENS3_INSB_IddEEEENS3_INSB_IiiEEEENS3_INSB_IllEEEENS3_IS4_EENS3_IS5_EENS3_INS_2ph7BarcodeIfEEEENS3_INSN_IdEEEENS3_INS_15SymmetricMatrixIfEEEENS3_INSS_IdEEEENS3_INS_14DistanceMatrixIfEEEENS3_INSX_IdEEEEEE
FN:154,_ZN2sb2io6detail18read_tensor_formatERSi
FN:90,_ZNK2sb2io6detail12TensorFormateqERKS2_
FN:217,_ZN2sb2io6detail11read_tensorIfEENS_6TensorIT_EERSi
FN:217,_ZN2sb2io6detail11read_tensorIdEENS_6TensorIT_EERSi
FN:217,_ZN2sb2io6detail11read_tensorIiEENS_6TensorIT_EERSi
FN:217,_ZN2sb2io6detail11read_tensorIlEENS_6TensorIT_EERSi
FN:217,_ZN2sb2io6detail11read_tensorIjEENS_6TensorIT_EERSi
FN:217,_ZN2sb2io6detail11read_tensorImEENS_6TensorIT_EERSi
FN:217,_ZN2sb2io6detail11read_tensorIbEENS_6TensorIT_EERSi
FN:217,_ZN2sb2io6detail11read_tensorINS_3PcfIffEEEENS_6TensorIT_EERSi
FN:217,_ZN2sb2io6detail11read_tensorINS_3PcfIddEEEENS_6TensorIT_EERSi
FN:217,_ZN2sb2io6detail11read_tensorINS_3PcfIiiEEEENS_6TensorIT_EERSi
FN:217,_ZN2sb2io6detail11read_tensorINS_3PcfIllEEEENS_6TensorIT_EERSi
FN:217,_ZN2sb2io6detail11read_tensorINS_6TensorIfEEEENS3_IT_EERSi
FN:163,_ZN2sb2io6detail12read_elementITkNS_8IsTensorENS_6TensorIfEEEET_RSi
FN:91,_ZNK2sb2io6detail12TensorFormatneERKS2_
FN:217,_ZN2sb2io6detail11read_tensorINS_6TensorIdEEEENS3_IT_EERSi
FN:163,_ZN2sb2io6detail12read_elementITkNS_8IsTensorENS_6TensorIdEEEET_RSi
FN:217,_ZN2sb2io6detail11read_tensorINS_15SymmetricMatrixIfEEEENS_6TensorIT_EERSi
FN:217,_ZN2sb2io6detail11read_tensorINS_15SymmetricMatrixIdEEEENS_6TensorIT_EERSi
FN:217,_ZN2sb2io6detail11read_tensorINS_14DistanceMatrixIfEEEENS_6TensorIT_EERSi
FN:217,_ZN2sb2io6detail11read_tensorINS_14DistanceMatrixIdEEEENS_6TensorIT_EERSi
FN:217,_ZN2sb2io6detail11read_tensorINS_2ph7BarcodeIfEEEENS_6TensorIT_EERSi
FN:217,_ZN2sb2io6detail11read_tensorINS_2ph7BarcodeIdEEEENS_6TensorIT_EERSi
FN:198,_ZN2sb2io6detail12write_tensorITkNS_8IsTensorENS_6TensorIfEEEEvRSoRKT_
FN:175,_ZN2sb2io6detail23write_contiguous_tensorITkNS_8IsTensorENS_6TensorIfEEEEvRSoRKT_
FN:134,_ZZN2sb2io6detail15getTensorFormatERKSt7variantIJNS_6TensorIfEENS3_IdEENS3_IiEENS3_IlEENS3_IjEENS3_ImEENS3_IbEENS3_INS_3PcfIffEEEENS3_INSB_IddEEEENS3_INSB_IiiEEEENS3_INSB_IllEEEENS3_IS4_EENS3_IS5_EENS3_INS_2ph7BarcodeIfEEEENS3_INSN_IdEEEENS3_INS_15SymmetricMatrixIfEEEENS3_INSS_IdEEEENS3_INS_14DistanceMatrixIfEEEENS3_INSX_IdEEEEEEENKUlOT_E_clIRKS4_EENS1_12TensorFormatES16_
FN:134,_ZZN2sb2io6detail15getTensorFormatERKSt7variantIJNS_6TensorIfEENS3_IdEENS3_IiEENS3_IlEENS3_IjEENS3_ImEENS3_IbEENS3_INS_3PcfIffEEEENS3_INSB_IddEEEENS3_INSB_IiiEEEENS3_INSB_IllEEEENS3_IS4_EENS3_IS5_EENS3_INS_2ph7BarcodeIfEEEENS3_INSN_IdEEEENS3_INS_15SymmetricMatrixIfEEEENS3_INSS_IdEEEENS3_INS_14DistanceMatrixIfEEEENS3_INSX_IdEEEEEEENKUlOT_E_clIRKS5_EENS1_12TensorFormatES16_
FN:134,_ZZN2sb2io6detail15getTensorFormatERKSt7variantIJNS_6TensorIfEENS3_IdEENS3_IiEENS3_IlEENS3_IjEENS3_ImEENS3_IbEENS3_INS_3PcfIffEEEENS3_INSB_IddEEEENS3_INSB_IiiEEEENS3_INSB_IllEEEENS3_IS4_EENS3_IS5_EENS3_INS_2ph7BarcodeIfEEEENS3_INSN_IdEEEENS3_INS_15SymmetricMatrixIfEEEENS3_INSS_IdEEEENS3_INS_14DistanceMatrixIfEEEENS3_INSX_IdEEEEEEENKUlOT_E_clIRKS6_EENS1_12TensorFormatES16_
FN:134,_ZZN2sb2io6detail15getTensorFormatERKSt7variantIJNS_6TensorIfEENS3_IdEENS3_IiEENS3_IlEENS3_IjEENS3_ImEENS3_IbEENS3_INS_3PcfIffEEEENS3_INSB_IddEEEENS3_INSB_IiiEEEENS3_INSB_IllEEEENS3_IS4_EENS3_IS5_EENS3_INS_2ph7BarcodeIfEEEENS3_INSN_IdEEEENS3_INS_15SymmetricMatrixIfEEEENS3_INSS_IdEEEENS3_INS_14DistanceMatrixIfEEEENS3_INSX_IdEEEEEEENKUlOT_E_clIRKS7_EENS1_12TensorFormatES16_
FN:134,_ZZN2sb2io6detail15getTensorFormatERKSt7variantIJNS_6TensorIfEENS3_IdEENS3_IiEENS3_IlEENS3_IjEENS3_ImEENS3_IbEENS3_INS_3PcfIffEEEENS3_INSB_IddEEEENS3_INSB_IiiEEEENS3_INSB_IllEEEENS3_IS4_EENS3_IS5_EENS3_INS_2ph7BarcodeIfEEEENS3_INSN_IdEEEENS3_INS_15SymmetricMatrixIfEEEENS3_INSS_IdEEEENS3_INS_14DistanceMatrixIfEEEENS3_INSX_IdEEEEEEENKUlOT_E_clIRKS8_EENS1_12TensorFormatES16_
FN:134,_ZZN2sb2io6detail15getTensorFormatERKSt7variantIJNS_6TensorIfEENS3_IdEENS3_IiEENS3_IlEENS3_IjEENS3_ImEENS3_IbEENS3_INS_3PcfIffEEEENS3_INSB_IddEEEENS3_INSB_IiiEEEENS3_INSB_IllEEEENS3_IS4_EENS3_IS5_EENS3_INS_2ph7BarcodeIfEEEENS3_INSN_IdEEEENS3_INS_15SymmetricMatrixIfEEEENS3_INSS_IdEEEENS3_INS_14DistanceMatrixIfEEEENS3_INSX_IdEEEEEEENKUlOT_E_clIRKS9_EENS1_12TensorFormatES16_
FN:134,_ZZN2sb2io6detail15getTensorFormatERKSt7variantIJNS_6TensorIfEENS3_IdEENS3_IiEENS3_IlEENS3_IjEENS3_ImEENS3_IbEENS3_INS_3PcfIffEEEENS3_INSB_IddEEEENS3_INSB_IiiEEEENS3_INSB_IllEEEENS3_IS4_EENS3_IS5_EENS3_INS_2ph7BarcodeIfEEEENS3_INSN_IdEEEENS3_INS_15SymmetricMatrixIfEEEENS3_INSS_IdEEEENS3_INS_14DistanceMatrixIfEEEENS3_INSX_IdEEEEEEENKUlOT_E_clIRKSA_EENS1_12TensorFormatES16_
FN:134,_ZZN2sb2io6detail15getTensorFormatERKSt7variantIJNS_6TensorIfEENS3_IdEENS3_IiEENS3_IlEENS3_IjEENS3_ImEENS3_IbEENS3_INS_3PcfIffEEEENS3_INSB_IddEEEENS3_INSB_IiiEEEENS3_INSB_IllEEEENS3_IS4_EENS3_IS5_EENS3_INS_2ph7BarcodeIfEEEENS3_INSN_IdEEEENS3_INS_15SymmetricMatrixIfEEEENS3_INSS_IdEEEENS3_INS_14DistanceMatrixIfEEEENS3_INSX_IdEEEEEEENKUlOT_E_clIRKSD_EENS1_12TensorFormatES16_
FN:134,_ZZN2sb2io6detail15getTensorFormatERKSt7variantIJNS_6TensorIfEENS3_IdEENS3_IiEENS3_IlEENS3_IjEENS3_ImEENS3_IbEENS3_INS_3PcfIffEEEENS3_INSB_IddEEEENS3_INSB_IiiEEEENS3_INSB_IllEEEENS3_IS4_EENS3_IS5_EENS3_INS_2ph7BarcodeIfEEEENS3_INSN_IdEEEENS3_INS_15SymmetricMatrixIfEEEENS3_INSS_IdEEEENS3_INS_14DistanceMatrixIfEEEENS3_INSX_IdEEEEEEENKUlOT_E_clIRKSF_EENS1_12TensorFormatES16_
FN:134,_ZZN2sb2io6detail15getTensorFormatERKSt7variantIJNS_6TensorIfEENS3_IdEENS3_IiEENS3_IlEENS3_IjEENS3_ImEENS3_IbEENS3_INS_3PcfIffEEEENS3_INSB_IddEEEENS3_INSB_IiiEEEENS3_INSB_IllEEEENS3_IS4_EENS3_IS5_EENS3_INS_2ph7BarcodeIfEEEENS3_INSN_IdEEEENS3_INS_15SymmetricMatrixIfEEEENS3_INSS_IdEEEENS3_INS_14DistanceMatrixIfEEEENS3_INSX_IdEEEEEEENKUlOT_E_clIRKSH_EENS1_12TensorFormatES16_
FN:134,_ZZN2sb2io6detail15getTensorFormatERKSt7variantIJNS_6TensorIfEENS3_IdEENS3_IiEENS3_IlEENS3_IjEENS3_ImEENS3_IbEENS3_INS_3PcfIffEEEENS3_INSB_IddEEEENS3_INSB_IiiEEEENS3_INSB_IllEEEENS3_IS4_EENS3_IS5_EENS3_INS_2ph7BarcodeIfEEEENS3_INSN_IdEEEENS3_INS_15SymmetricMatrixIfEEEENS3_INSS_IdEEEENS3_INS_14DistanceMatrixIfEEEENS3_INSX_IdEEEEEEENKUlOT_E_clIRKSJ_EENS1_12TensorFormatES16_
FN:134,_ZZN2sb2io6detail15getTensorFormatERKSt7variantIJNS_6TensorIfEENS3_IdEENS3_IiEENS3_IlEENS3_IjEENS3_ImEENS3_IbEENS3_INS_3PcfIffEEEENS3_INSB_IddEEEENS3_INSB_IiiEEEENS3_INSB_IllEEEENS3_IS4_EENS3_IS5_EENS3_INS_2ph7BarcodeIfEEEENS3_INSN_IdEEEENS3_INS_15SymmetricMatrixIfEEEENS3_INSS_IdEEEENS3_INS_14DistanceMatrixIfEEEENS3_INSX_IdEEEEEEENKUlOT_E_clIRKSK_EENS1_12TensorFormatES16_
FN:134,_ZZN2sb2io6detail15getTensorFormatERKSt7variantIJNS_6TensorIfEENS3_IdEENS3_IiEENS3_IlEENS3_IjEENS3_ImEENS3_IbEENS3_INS_3PcfIffEEEENS3_INSB_IddEEEENS3_INSB_IiiEEEENS3_INSB_IllEEEENS3_IS4_EENS3_IS5_EENS3_INS_2ph7BarcodeIfEEEENS3_INSN_IdEEEENS3_INS_15SymmetricMatrixIfEEEENS3_INSS_IdEEEENS3_INS_14DistanceMatrixIfEEEENS3_INSX_IdEEEEEEENKUlOT_E_clIRKSL_EENS1_12TensorFormatES16_
FN:134,_ZZN2sb2io6detail15getTensorFormatERKSt7variantIJNS_6TensorIfEENS3_IdEENS3_IiEENS3_IlEENS3_IjEENS3_ImEENS3_IbEENS3_INS_3PcfIffEEEENS3_INSB_IddEEEENS3_INSB_IiiEEEENS3_INSB_IllEEEENS3_IS4_EENS3_IS5_EENS3_INS_2ph7BarcodeIfEEEENS3_INSN_IdEEEENS3_INS_15SymmetricMatrixIfEEEENS3_INSS_IdEEEENS3_INS_14DistanceMatrixIfEEEENS3_INSX_IdEEEEEEENKUlOT_E_clIRKSP_EENS1_12TensorFormatES16_
FN:134,_ZZN2sb2io6detail15getTensorFormatERKSt7variantIJNS_6TensorIfEENS3_IdEENS3_IiEENS3_IlEENS3_IjEENS3_ImEENS3_IbEENS3_INS_3PcfIffEEEENS3_INSB_IddEEEENS3_INSB_IiiEEEENS3_INSB_IllEEEENS3_IS4_EENS3_IS5_EENS3_INS_2ph7BarcodeIfEEEENS3_INSN_IdEEEENS3_INS_15SymmetricMatrixIfEEEENS3_INSS_IdEEEENS3_INS_14DistanceMatrixIfEEEENS3_INSX_IdEEEEEEENKUlOT_E_clIRKSR_EENS1_12TensorFormatES16_
FN:134,_ZZN2sb2io6detail15getTensorFormatERKSt7variantIJNS_6TensorIfEENS3_IdEENS3_IiEENS3_IlEENS3_IjEENS3_ImEENS3_IbEENS3_INS_3PcfIffEEEENS3_INSB_IddEEEENS3_INSB_IiiEEEENS3_INSB_IllEEEENS3_IS4_EENS3_IS5_EENS3_INS_2ph7BarcodeIfEEEENS3_INSN_IdEEEENS3_INS_15SymmetricMatrixIfEEEENS3_INSS_IdEEEENS3_INS_14DistanceMatrixIfEEEENS3_INSX_IdEEEEEEENKUlOT_E_clIRKSU_EENS1_12TensorFormatES16_
FN:134,_ZZN2sb2io6detail15getTensorFormatERKSt7variantIJNS_6TensorIfEENS3_IdEENS3_IiEENS3_IlEENS3_IjEENS3_ImEENS3_IbEENS3_INS_3PcfIffEEEENS3_INSB_IddEEEENS3_INSB_IiiEEEENS3_INSB_IllEEEENS3_IS4_EENS3_IS5_EENS3_INS_2ph7BarcodeIfEEEENS3_INSN_IdEEEENS3_INS_15SymmetricMatrixIfEEEENS3_INSS_IdEEEENS3_INS_14DistanceMatrixIfEEEENS3_INSX_IdEEEEEEENKUlOT_E_clIRKSW_EENS1_12TensorFormatES16_
FN:134,_ZZN2sb2io6detail15getTensorFormatERKSt7variantIJNS_6TensorIfEENS3_IdEENS3_IiEENS3_IlEENS3_IjEENS3_ImEENS3_IbEENS3_INS_3PcfIffEEEENS3_INSB_IddEEEENS3_INSB_IiiEEEENS3_INSB_IllEEEENS3_IS4_EENS3_IS5_EENS3_INS_2ph7BarcodeIfEEEENS3_INSN_IdEEEENS3_INS_15SymmetricMatrixIfEEEENS3_INSS_IdEEEENS3_INS_14DistanceMatrixIfEEEENS3_INSX_IdEEEEEEENKUlOT_E_clIRKSZ_EENS1_12TensorFormatES16_
FN:134,_ZZN2sb2io6detail15getTensorFormatERKSt7variantIJNS_6TensorIfEENS3_IdEENS3_IiEENS3_IlEENS3_IjEENS3_ImEENS3_IbEENS3_INS_3PcfIffEEEENS3_INSB_IddEEEENS3_INSB_IiiEEEENS3_INSB_IllEEEENS3_IS4_EENS3_IS5_EENS3_INS_2ph7BarcodeIfEEEENS3_INSN_IdEEEENS3_INS_15SymmetricMatrixIfEEEENS3_INSS_IdEEEENS3_INS_14DistanceMatrixIfEEEENS3_INSX_IdEEEEEEENKUlOT_E_clIRKS11_EENS1_12TensorFormatES16_
FN:198,_ZN2sb2io6detail12write_tensorITkNS_8IsTensorENS_6TensorIdEEEEvRSoRKT_
FN:175,_ZN2sb2io6detail23write_contiguous_tensorITkNS_8IsTensorENS_6TensorIdEEEEvRSoRKT_
FN:198,_ZN2sb2io6detail12write_tensorITkNS_8IsTensorENS_6TensorIiEEEEvRSoRKT_
FN:175,_ZN2sb2io6detail23write_contiguous_tensorITkNS_8IsTensorENS_6TensorIiEEEEvRSoRKT_
FN:198,_ZN2sb2io6detail12write_tensorITkNS_8IsTensorENS_6TensorIlEEEEvRSoRKT_
FN:175,_ZN2sb2io6detail23write_contiguous_tensorITkNS_8IsTensorENS_6TensorIlEEEEvRSoRKT_
FN:198,_ZN2sb2io6detail12write_tensorITkNS_8IsTensorENS_6TensorIjEEEEvRSoRKT_
FN:175,_ZN2sb2io6detail23write_contiguous_tensorITkNS_8IsTensorENS_6TensorIjEEEEvRSoRKT_
FN:198,_ZN2sb2io6detail12write_tensorITkNS_8IsTensorENS_6TensorImEEEEvRSoRKT_
FN:175,_ZN2sb2io6detail23write_contiguous_tensorITkNS_8IsTensorENS_6TensorImEEEEvRSoRKT_
FN:198,_ZN2sb2io6detail12write_tensorITkNS_8IsTensorENS_6TensorIbEEEEvRSoRKT_
FN:175,_ZN2sb2io6detail23write_contiguous_tensorITkNS_8IsTensorENS_6TensorIbEEEEvRSoRKT_
FN:198,_ZN2sb2io6detail12write_tensorITkNS_8IsTensorENS_6TensorINS_3PcfIffEEEEEEvRSoRKT_
FN:175,_ZN2sb2io6detail23write_contiguous_tensorITkNS_8IsTensorENS_6TensorINS_3PcfIffEEEEEEvRSoRKT_
FN:198,_ZN2sb2io6detail12write_tensorITkNS_8IsTensorENS_6TensorINS_3PcfIddEEEEEEvRSoRKT_
FN:175,_ZN2sb2io6detail23write_contiguous_tensorITkNS_8IsTensorENS_6TensorINS_3PcfIddEEEEEEvRSoRKT_
FN:198,_ZN2sb2io6detail12write_tensorITkNS_8IsTensorENS_6TensorINS_3PcfIiiEEEEEEvRSoRKT_
FN:175,_ZN2sb2io6detail23write_contiguous_tensorITkNS_8IsTensorENS_6TensorINS_3PcfIiiEEEEEEvRSoRKT_
FN:198,_ZN2sb2io6detail12write_tensorITkNS_8IsTensorENS_6TensorINS_3PcfIllEEEEEEvRSoRKT_
FN:175,_ZN2sb2io6detail23write_contiguous_tensorITkNS_8IsTensorENS_6TensorINS_3PcfIllEEEEEEvRSoRKT_
FN:198,_ZN2sb2io6detail12write_tensorITkNS_8IsTensorENS_6TensorINS3_IfEEEEEEvRSoRKT_
FN:175,_ZN2sb2io6detail23write_contiguous_tensorITkNS_8IsTensorENS_6TensorINS3_IfEEEEEEvRSoRKT_
FN:146,_ZN2sb2io6detail13write_elementIfEEvRSoRKNS_6TensorIT_EE
FN:198,_ZN2sb2io6detail12write_tensorITkNS_8IsTensorENS_6TensorINS3_IdEEEEEEvRSoRKT_
FN:175,_ZN2sb2io6detail23write_contiguous_tensorITkNS_8IsTensorENS_6TensorINS3_IdEEEEEEvRSoRKT_
FN:146,_ZN2sb2io6detail13write_elementIdEEvRSoRKNS_6TensorIT_EE
FN:198,_ZN2sb2io6detail12write_tensorITkNS_8IsTensorENS_6TensorINS_2ph7BarcodeIfEEEEEEvRSoRKT_
FN:175,_ZN2sb2io6detail23write_contiguous_tensorITkNS_8IsTensorENS_6TensorINS_2ph7BarcodeIfEEEEEEvRSoRKT_
FN:198,_ZN2sb2io6detail12write_tensorITkNS_8IsTensorENS_6TensorINS_2ph7BarcodeIdEEEEEEvRSoRKT_
FN:175,_ZN2sb2io6detail23write_contiguous_tensorITkNS_8IsTensorENS_6TensorINS_2ph7BarcodeIdEEEEEEvRSoRKT_
FN:198,_ZN2sb2io6detail12write_tensorITkNS_8IsTensorENS_6TensorINS_15SymmetricMatrixIfEEEEEEvRSoRKT_
FN:175,_ZN2sb2io6detail23write_contiguous_tensorITkNS_8IsTensorENS_6TensorINS_15SymmetricMatrixIfEEEEEEvRSoRKT_
FN:198,_ZN2sb2io6detail12write_tensorITkNS_8IsTensorENS_6TensorINS_15SymmetricMatrixIdEEEEEEvRSoRKT_
FN:175,_ZN2sb2io6detail23write_contiguous_tensorITkNS_8IsTensorENS_6TensorINS_15SymmetricMatrixIdEEEEEEvRSoRKT_
FN:198,_ZN2sb2io6detail12write_tensorITkNS_8IsTensorENS_6TensorINS_14DistanceMatrixIfEEEEEEvRSoRKT_
FN:175,_ZN2sb2io6detail23write_contiguous_tensorITkNS_8IsTensorENS_6TensorINS_14DistanceMatrixIfEEEEEEvRSoRKT_
FN:198,_ZN2sb2io6detail12write_tensorITkNS_8IsTensorENS_6TensorINS_14DistanceMatrixIdEEEEEEvRSoRKT_
FN:175,_ZN2sb2io6detail23write_contiguous_tensorITkNS_8IsTensorENS_6TensorINS_14DistanceMatrixIdEEEEEEvRSoRKT_
FN:96,test_tensor_io_core.cpp:_ZN2sb2io6detail12tensorFormatIZN12_GLOBAL__N_153TensorIoCore_TensorFormatThrowsOnUnsupportedType_Test8TestBodyEvE11UnsupportedEENS1_12TensorFormatEv
FNDA:4,_ZNK2sb2io6detail12TensorFormat8toStringB5cxx11Ev
FNDA:12,_ZN2sb2io6detail12tensorFormatINS_14DistanceMatrixIdEEEENS1_12TensorFormatEv
FNDA:12,_ZN2sb2io6detail12tensorFormatINS_14DistanceMatrixIfEEEENS1_12TensorFormatEv
FNDA:16,_ZN2sb2io6detail12tensorFormatINS_15SymmetricMatrixIdEEEENS1_12TensorFormatEv
FNDA:17,_ZN2sb2io6detail12tensorFormatINS_15SymmetricMatrixIfEEEENS1_12TensorFormatEv
FNDA:12,_ZN2sb2io6detail12tensorFormatINS_2ph7BarcodeIdEEEENS1_12TensorFormatEv
FNDA:14,_ZN2sb2io6detail12tensorFormatINS_2ph7BarcodeIfEEEENS1_12TensorFormatEv
FNDA:15,_ZN2sb2io6detail12tensorFormatINS_6TensorIdEEEENS1_12TensorFormatEv
FNDA:18,_ZN2sb2io6detail12tensorFormatINS_6TensorIfEEEENS1_12TensorFormatEv
FNDA:27,_ZN2sb2io6detail12tensorFormatINS_3PcfIllEEEENS1_12TensorFormatEv
FNDA:30,_ZN2sb2io6detail12tensorFormatINS_3PcfIiiEEEENS1_12TensorFormatEv
FNDA:52,_ZN2sb2io6detail12tensorFormatINS_3PcfIddEEEENS1_12TensorFormatEv
FNDA:58,_ZN2sb2io6detail12tensorFormatINS_3PcfIffEEEENS1_12TensorFormatEv
FNDA:31,_ZN2sb2io6detail12tensorFormatIbEENS1_12TensorFormatEv
FNDA:30,_ZN2sb2io6detail12tensorFormatImEENS1_12TensorFormatEv
FNDA:30,_ZN2sb2io6detail12tensorFormatIjEENS1_12TensorFormatEv
FNDA:32,_ZN2sb2io6detail12tensorFormatIlEENS1_12TensorFormatEv
FNDA:33,_ZN2sb2io6detail12tensorFormatIiEENS1_12TensorFormatEv
FNDA:76,_ZN2sb2io6detail12tensorFormatIdEENS1_12TensorFormatEv
FNDA:84,_ZN2sb2io6detail12tensorFormatIfEENS1_12TensorFormatEv
FNDA:91,_ZN2sb2io6detail15getTensorFormatERKSt7variantIJNS_6TensorIfEENS3_IdEENS3_IiEENS3_IlEENS3_IjEENS3_ImEENS3_IbEENS3_INS_3PcfIffEEEENS3_INSB_IddEEEENS3_INSB_IiiEEEENS3_INSB_IllEEEENS3_IS4_EENS3_IS5_EENS3_INS_2ph7BarcodeIfEEEENS3_INSN_IdEEEENS3_INS_15SymmetricMatrixIfEEEENS3_INSS_IdEEEENS3_INS_14DistanceMatrixIfEEEENS3_INSX_IdEEEEEE
FNDA:75,_ZN2sb2io6detail18read_tensor_formatERSi
FNDA:696,_ZNK2sb2io6detail12TensorFormateqERKS2_
FNDA:20,_ZN2sb2io6detail11read_tensorIfEENS_6TensorIT_EERSi
FNDA:19,_ZN2sb2io6detail11read_tensorIdEENS_6TensorIT_EERSi
FNDA:1,_ZN2sb2io6detail11read_tensorIiEENS_6TensorIT_EERSi
FNDA:1,_ZN2sb2io6detail11read_tensorIlEENS_6TensorIT_EERSi
FNDA:0,_ZN2sb2io6detail11read_tensorIjEENS_6TensorIT_EERSi
FNDA:0,_ZN2sb2io6detail11read_tensorImEENS_6TensorIT_EERSi
FNDA:1,_ZN2sb2io6detail11read_tensorIbEENS_6TensorIT_EERSi
FNDA:10,_ZN2sb2io6detail11read_tensorINS_3PcfIffEEEENS_6TensorIT_EERSi
FNDA:10,_ZN2sb2io6detail11read_tensorINS_3PcfIddEEEENS_6TensorIT_EERSi
FNDA:1,_ZN2sb2io6detail11read_tensorINS_3PcfIiiEEEENS_6TensorIT_EERSi
FNDA:1,_ZN2sb2io6detail11read_tensorINS_3PcfIllEEEENS_6TensorIT_EERSi
FNDA:2,_ZN2sb2io6detail11read_tensorINS_6TensorIfEEEENS3_IT_EERSi
FNDA:5,_ZN2sb2io6detail12read_elementITkNS_8IsTensorENS_6TensorIfEEEET_RSi
FNDA:26,_ZNK2sb2io6detail12TensorFormatneERKS2_
FNDA:1,_ZN2sb2io6detail11read_tensorINS_6TensorIdEEEENS3_IT_EERSi
FNDA:3,_ZN2sb2io6detail12read_elementITkNS_8IsTensorENS_6TensorIdEEEET_RSi
FNDA:2,_ZN2sb2io6detail11read_tensorINS_15SymmetricMatrixIfEEEENS_6TensorIT_EERSi
FNDA:2,_ZN2sb2io6detail11read_tensorINS_15SymmetricMatrixIdEEEENS_6TensorIT_EERSi
FNDA:2,_ZN2sb2io6detail11read_tensorINS_14DistanceMatrixIfEEEENS_6TensorIT_EERSi
FNDA:2,_ZN2sb2io6detail11read_tensorINS_14DistanceMatrixIdEEEENS_6TensorIT_EERSi
FNDA:2,_ZN2sb2io6detail11read_tensorINS_2ph7BarcodeIfEEEENS_6TensorIT_EERSi
FNDA:2,_ZN2sb2io6detail11read_tensorINS_2ph7BarcodeIdEEEENS_6TensorIT_EERSi
FNDA:27,_ZN2sb2io6detail12write_tensorITkNS_8IsTensorENS_6TensorIfEEEEvRSoRKT_
FNDA:27,_ZN2sb2io6detail23write_contiguous_tensorITkNS_8IsTensorENS_6TensorIfEEEEvRSoRKT_
FNDA:27,_ZZN2sb2io6detail15getTensorFormatERKSt7variantIJNS_6TensorIfEENS3_IdEENS3_IiEENS3_IlEENS3_IjEENS3_ImEENS3_IbEENS3_INS_3PcfIffEEEENS3_INSB_IddEEEENS3_INSB_IiiEEEENS3_INSB_IllEEEENS3_IS4_EENS3_IS5_EENS3_INS_2ph7BarcodeIfEEEENS3_INSN_IdEEEENS3_INS_15SymmetricMatrixIfEEEENS3_INSS_IdEEEENS3_INS_14DistanceMatrixIfEEEENS3_INSX_IdEEEEEEENKUlOT_E_clIRKS4_EENS1_12TensorFormatES16_
FNDA:24,_ZZN2sb2io6detail15getTensorFormatERKSt7variantIJNS_6TensorIfEENS3_IdEENS3_IiEENS3_IlEENS3_IjEENS3_ImEENS3_IbEENS3_INS_3PcfIffEEEENS3_INSB_IddEEEENS3_INSB_IiiEEEENS3_INSB_IllEEEENS3_IS4_EENS3_IS5_EENS3_INS_2ph7BarcodeIfEEEENS3_INSN_IdEEEENS3_INS_15SymmetricMatrixIfEEEENS3_INSS_IdEEEENS3_INS_14DistanceMatrixIfEEEENS3_INSX_IdEEEEEEENKUlOT_E_clIRKS5_EENS1_12TensorFormatES16_
FNDA:1,_ZZN2sb2io6detail15getTensorFormatERKSt7variantIJNS_6TensorIfEENS3_IdEENS3_IiEENS3_IlEENS3_IjEENS3_ImEENS3_IbEENS3_INS_3PcfIffEEEENS3_INSB_IddEEEENS3_INSB_IiiEEEENS3_INSB_IllEEEENS3_IS4_EENS3_IS5_EENS3_INS_2ph7BarcodeIfEEEENS3_INSN_IdEEEENS3_INS_15SymmetricMatrixIfEEEENS3_INSS_IdEEEENS3_INS_14DistanceMatrixIfEEEENS3_INSX_IdEEEEEEENKUlOT_E_clIRKS6_EENS1_12TensorFormatES16_
FNDA:1,_ZZN2sb2io6detail15getTensorFormatERKSt7variantIJNS_6TensorIfEENS3_IdEENS3_IiEENS3_IlEENS3_IjEENS3_ImEENS3_IbEENS3_INS_3PcfIffEEEENS3_INSB_IddEEEENS3_INSB_IiiEEEENS3_INSB_IllEEEENS3_IS4_EENS3_IS5_EENS3_INS_2ph7BarcodeIfEEEENS3_INSN_IdEEEENS3_INS_15SymmetricMatrixIfEEEENS3_INSS_IdEEEENS3_INS_14DistanceMatrixIfEEEENS3_INSX_IdEEEEEEENKUlOT_E_clIRKS7_EENS1_12TensorFormatES16_
FNDA:0,_ZZN2sb2io6detail15getTensorFormatERKSt7variantIJNS_6TensorIfEENS3_IdEENS3_IiEENS3_IlEENS3_IjEENS3_ImEENS3_IbEENS3_INS_3PcfIffEEEENS3_INSB_IddEEEENS3_INSB_IiiEEEENS3_INSB_IllEEEENS3_IS4_EENS3_IS5_EENS3_INS_2ph7BarcodeIfEEEENS3_INSN_IdEEEENS3_INS_15SymmetricMatrixIfEEEENS3_INSS_IdEEEENS3_INS_14DistanceMatrixIfEEEENS3_INSX_IdEEEEEEENKUlOT_E_clIRKS8_EENS1_12TensorFormatES16_
FNDA:0,_ZZN2sb2io6detail15getTensorFormatERKSt7variantIJNS_6TensorIfEENS3_IdEENS3_IiEENS3_IlEENS3_IjEENS3_ImEENS3_IbEENS3_INS_3PcfIffEEEENS3_INSB_IddEEEENS3_INSB_IiiEEEENS3_INSB_IllEEEENS3_IS4_EENS3_IS5_EENS3_INS_2ph7BarcodeIfEEEENS3_INSN_IdEEEENS3_INS_15SymmetricMatrixIfEEEENS3_INSS_IdEEEENS3_INS_14DistanceMatrixIfEEEENS3_INSX_IdEEEEEEENKUlOT_E_clIRKS9_EENS1_12TensorFormatES16_
FNDA:1,_ZZN2sb2io6detail15getTensorFormatERKSt7variantIJNS_6TensorIfEENS3_IdEENS3_IiEENS3_IlEENS3_IjEENS3_ImEENS3_IbEENS3_INS_3PcfIffEEEENS3_INSB_IddEEEENS3_INSB_IiiEEEENS3_INSB_IllEEEENS3_IS4_EENS3_IS5_EENS3_INS_2ph7BarcodeIfEEEENS3_INSN_IdEEEENS3_INS_15SymmetricMatrixIfEEEENS3_INSS_IdEEEENS3_INS_14DistanceMatrixIfEEEENS3_INSX_IdEEEEEEENKUlOT_E_clIRKSA_EENS1_12TensorFormatES16_
FNDA:10,_ZZN2sb2io6detail15getTensorFormatERKSt7variantIJNS_6TensorIfEENS3_IdEENS3_IiEENS3_IlEENS3_IjEENS3_ImEENS3_IbEENS3_INS_3PcfIffEEEENS3_INSB_IddEEEENS3_INSB_IiiEEEENS3_INSB_IllEEEENS3_IS4_EENS3_IS5_EENS3_INS_2ph7BarcodeIfEEEENS3_INSN_IdEEEENS3_INS_15SymmetricMatrixIfEEEENS3_INSS_IdEEEENS3_INS_14DistanceMatrixIfEEEENS3_INSX_IdEEEEEEENKUlOT_E_clIRKSD_EENS1_12TensorFormatES16_
FNDA:10,_ZZN2sb2io6detail15getTensorFormatERKSt7variantIJNS_6TensorIfEENS3_IdEENS3_IiEENS3_IlEENS3_IjEENS3_ImEENS3_IbEENS3_INS_3PcfIffEEEENS3_INSB_IddEEEENS3_INSB_IiiEEEENS3_INSB_IllEEEENS3_IS4_EENS3_IS5_EENS3_INS_2ph7BarcodeIfEEEENS3_INSN_IdEEEENS3_INS_15SymmetricMatrixIfEEEENS3_INSS_IdEEEENS3_INS_14DistanceMatrixIfEEEENS3_INSX_IdEEEEEEENKUlOT_E_clIRKSF_EENS1_12TensorFormatES16_
FNDA:1,_ZZN2sb2io6detail15getTensorFormatERKSt7variantIJNS_6TensorIfEENS3_IdEENS3_IiEENS3_IlEENS3_IjEENS3_ImEENS3_IbEENS3_INS_3PcfIffEEEENS3_INSB_IddEEEENS3_INSB_IiiEEEENS3_INSB_IllEEEENS3_IS4_EENS3_IS5_EENS3_INS_2ph7BarcodeIfEEEENS3_INSN_IdEEEENS3_INS_15SymmetricMatrixIfEEEENS3_INSS_IdEEEENS3_INS_14DistanceMatrixIfEEEENS3_INSX_IdEEEEEEENKUlOT_E_clIRKSH_EENS1_12TensorFormatES16_
FNDA:1,_ZZN2sb2io6detail15getTensorFormatERKSt7variantIJNS_6TensorIfEENS3_IdEENS3_IiEENS3_IlEENS3_IjEENS3_ImEENS3_IbEENS3_INS_3PcfIffEEEENS3_INSB_IddEEEENS3_INSB_IiiEEEENS3_INSB_IllEEEENS3_IS4_EENS3_IS5_EENS3_INS_2ph7BarcodeIfEEEENS3_INSN_IdEEEENS3_INS_15SymmetricMatrixIfEEEENS3_INSS_IdEEEENS3_INS_14DistanceMatrixIfEEEENS3_INSX_IdEEEEEEENKUlOT_E_clIRKSJ_EENS1_12TensorFormatES16_
FNDA:2,_ZZN2sb2io6detail15getTensorFormatERKSt7variantIJNS_6TensorIfEENS3_IdEENS3_IiEENS3_IlEENS3_IjEENS3_ImEENS3_IbEENS3_INS_3PcfIffEEEENS3_INSB_IddEEEENS3_INSB_IiiEEEENS3_INSB_IllEEEENS3_IS4_EENS3_IS5_EENS3_INS_2ph7BarcodeIfEEEENS3_INSN_IdEEEENS3_INS_15SymmetricMatrixIfEEEENS3_INSS_IdEEEENS3_INS_14DistanceMatrixIfEEEENS3_INSX_IdEEEEEEENKUlOT_E_clIRKSK_EENS1_12TensorFormatES16_
FNDA:1,_ZZN2sb2io6detail15getTensorFormatERKSt7variantIJNS_6TensorIfEENS3_IdEENS3_IiEENS3_IlEENS3_IjEENS3_ImEENS3_IbEENS3_INS_3PcfIffEEEENS3_INSB_IddEEEENS3_INSB_IiiEEEENS3_INSB_IllEEEENS3_IS4_EENS3_IS5_EENS3_INS_2ph7BarcodeIfEEEENS3_INSN_IdEEEENS3_INS_15SymmetricMatrixIfEEEENS3_INSS_IdEEEENS3_INS_14DistanceMatrixIfEEEENS3_INSX_IdEEEEEEENKUlOT_E_clIRKSL_EENS1_12TensorFormatES16_
FNDA:2,_ZZN2sb2io6detail15getTensorFormatERKSt7variantIJNS_6TensorIfEENS3_IdEENS3_IiEENS3_IlEENS3_IjEENS3_ImEENS3_IbEENS3_INS_3PcfIffEEEENS3_INSB_IddEEEENS3_INSB_IiiEEEENS3_INSB_IllEEEENS3_IS4_EENS3_IS5_EENS3_INS_2ph7BarcodeIfEEEENS3_INSN_IdEEEENS3_INS_15SymmetricMatrixIfEEEENS3_INSS_IdEEEENS3_INS_14DistanceMatrixIfEEEENS3_INSX_IdEEEEEEENKUlOT_E_clIRKSP_EENS1_12TensorFormatES16_
FNDA:2,_ZZN2sb2io6detail15getTensorFormatERKSt7variantIJNS_6TensorIfEENS3_IdEENS3_IiEENS3_IlEENS3_IjEENS3_ImEENS3_IbEENS3_INS_3PcfIffEEEENS3_INSB_IddEEEENS3_INSB_IiiEEEENS3_INSB_IllEEEENS3_IS4_EENS3_IS5_EENS3_INS_2ph7BarcodeIfEEEENS3_INSN_IdEEEENS3_INS_15SymmetricMatrixIfEEEENS3_INSS_IdEEEENS3_INS_14DistanceMatrixIfEEEENS3_INSX_IdEEEEEEENKUlOT_E_clIRKSR_EENS1_12TensorFormatES16_
FNDA:2,_ZZN2sb2io6detail15getTensorFormatERKSt7variantIJNS_6TensorIfEENS3_IdEENS3_IiEENS3_IlEENS3_IjEENS3_ImEENS3_IbEENS3_INS_3PcfIffEEEENS3_INSB_IddEEEENS3_INSB_IiiEEEENS3_INSB_IllEEEENS3_IS4_EENS3_IS5_EENS3_INS_2ph7BarcodeIfEEEENS3_INSN_IdEEEENS3_INS_15SymmetricMatrixIfEEEENS3_INSS_IdEEEENS3_INS_14DistanceMatrixIfEEEENS3_INSX_IdEEEEEEENKUlOT_E_clIRKSU_EENS1_12TensorFormatES16_
FNDA:2,_ZZN2sb2io6detail15getTensorFormatERKSt7variantIJNS_6TensorIfEENS3_IdEENS3_IiEENS3_IlEENS3_IjEENS3_ImEENS3_IbEENS3_INS_3PcfIffEEEENS3_INSB_IddEEEENS3_INSB_IiiEEEENS3_INSB_IllEEEENS3_IS4_EENS3_IS5_EENS3_INS_2ph7BarcodeIfEEEENS3_INSN_IdEEEENS3_INS_15SymmetricMatrixIfEEEENS3_INSS_IdEEEENS3_INS_14DistanceMatrixIfEEEENS3_INSX_IdEEEEEEENKUlOT_E_clIRKSW_EENS1_12TensorFormatES16_
FNDA:2,_ZZN2sb2io6detail15getTensorFormatERKSt7variantIJNS_6TensorIfEENS3_IdEENS3_IiEENS3_IlEENS3_IjEENS3_ImEENS3_IbEENS3_INS_3PcfIffEEEENS3_INSB_IddEEEENS3_INSB_IiiEEEENS3_INSB_IllEEEENS3_IS4_EENS3_IS5_EENS3_INS_2ph7BarcodeIfEEEENS3_INSN_IdEEEENS3_INS_15SymmetricMatrixIfEEEENS3_INSS_IdEEEENS3_INS_14DistanceMatrixIfEEEENS3_INSX_IdEEEEEEENKUlOT_E_clIRKSZ_EENS1_12TensorFormatES16_
FNDA:2,_ZZN2sb2io6detail15getTensorFormatERKSt7variantIJNS_6TensorIfEENS3_IdEENS3_IiEENS3_IlEENS3_IjEENS3_ImEENS3_IbEENS3_INS_3PcfIffEEEENS3_INSB_IddEEEENS3_INSB_IiiEEEENS3_INSB_IllEEEENS3_IS4_EENS3_IS5_EENS3_INS_2ph7BarcodeIfEEEENS3_INSN_IdEEEENS3_INS_15SymmetricMatrixIfEEEENS3_INSS_IdEEEENS3_INS_14DistanceMatrixIfEEEENS3_INSX_IdEEEEEEENKUlOT_E_clIRKS11_EENS1_12TensorFormatES16_
FNDA:26,_ZN2sb2io6detail12write_tensorITkNS_8IsTensorENS_6TensorIdEEEEvRSoRKT_
FNDA:24,_ZN2sb2io6detail23write_contiguous_tensorITkNS_8IsTensorENS_6TensorIdEEEEvRSoRKT_
FNDA:1,_ZN2sb2io6detail12write_tensorITkNS_8IsTensorENS_6TensorIiEEEEvRSoRKT_
FNDA:1,_ZN2sb2io6detail23write_contiguous_tensorITkNS_8IsTensorENS_6TensorIiEEEEvRSoRKT_
FNDA:1,_ZN2sb2io6detail12write_tensorITkNS_8IsTensorENS_6TensorIlEEEEvRSoRKT_
FNDA:1,_ZN2sb2io6detail23write_contiguous_tensorITkNS_8IsTensorENS_6TensorIlEEEEvRSoRKT_
FNDA:0,_ZN2sb2io6detail12write_tensorITkNS_8IsTensorENS_6TensorIjEEEEvRSoRKT_
FNDA:0,_ZN2sb2io6detail23write_contiguous_tensorITkNS_8IsTensorENS_6TensorIjEEEEvRSoRKT_
FNDA:0,_ZN2sb2io6detail12write_tensorITkNS_8IsTensorENS_6TensorImEEEEvRSoRKT_
FNDA:0,_ZN2sb2io6detail23write_contiguous_tensorITkNS_8IsTensorENS_6TensorImEEEEvRSoRKT_
FNDA:1,_ZN2sb2io6detail12write_tensorITkNS_8IsTensorENS_6TensorIbEEEEvRSoRKT_
FNDA:1,_ZN2sb2io6detail23write_contiguous_tensorITkNS_8IsTensorENS_6TensorIbEEEEvRSoRKT_
FNDA:10,_ZN2sb2io6detail12write_tensorITkNS_8IsTensorENS_6TensorINS_3PcfIffEEEEEEvRSoRKT_
FNDA:10,_ZN2sb2io6detail23write_contiguous_tensorITkNS_8IsTensorENS_6TensorINS_3PcfIffEEEEEEvRSoRKT_
FNDA:10,_ZN2sb2io6detail12write_tensorITkNS_8IsTensorENS_6TensorINS_3PcfIddEEEEEEvRSoRKT_
FNDA:10,_ZN2sb2io6detail23write_contiguous_tensorITkNS_8IsTensorENS_6TensorINS_3PcfIddEEEEEEvRSoRKT_
FNDA:1,_ZN2sb2io6detail12write_tensorITkNS_8IsTensorENS_6TensorINS_3PcfIiiEEEEEEvRSoRKT_
FNDA:1,_ZN2sb2io6detail23write_contiguous_tensorITkNS_8IsTensorENS_6TensorINS_3PcfIiiEEEEEEvRSoRKT_
FNDA:1,_ZN2sb2io6detail12write_tensorITkNS_8IsTensorENS_6TensorINS_3PcfIllEEEEEEvRSoRKT_
FNDA:1,_ZN2sb2io6detail23write_contiguous_tensorITkNS_8IsTensorENS_6TensorINS_3PcfIllEEEEEEvRSoRKT_
FNDA:2,_ZN2sb2io6detail12write_tensorITkNS_8IsTensorENS_6TensorINS3_IfEEEEEEvRSoRKT_
FNDA:2,_ZN2sb2io6detail23write_contiguous_tensorITkNS_8IsTensorENS_6TensorINS3_IfEEEEEEvRSoRKT_
FNDA:5,_ZN2sb2io6detail13write_elementIfEEvRSoRKNS_6TensorIT_EE
FNDA:1,_ZN2sb2io6detail12write_tensorITkNS_8IsTensorENS_6TensorINS3_IdEEEEEEvRSoRKT_
FNDA:1,_ZN2sb2io6detail23write_contiguous_tensorITkNS_8IsTensorENS_6TensorINS3_IdEEEEEEvRSoRKT_
FNDA:3,_ZN2sb2io6detail13write_elementIdEEvRSoRKNS_6TensorIT_EE
FNDA:2,_ZN2sb2io6detail12write_tensorITkNS_8IsTensorENS_6TensorINS_2ph7BarcodeIfEEEEEEvRSoRKT_
FNDA:2,_ZN2sb2io6detail23write_contiguous_tensorITkNS_8IsTensorENS_6TensorINS_2ph7BarcodeIfEEEEEEvRSoRKT_
FNDA:2,_ZN2sb2io6detail12write_tensorITkNS_8IsTensorENS_6TensorINS_2ph7BarcodeIdEEEEEEvRSoRKT_
FNDA:2,_ZN2sb2io6detail23write_contiguous_tensorITkNS_8IsTensorENS_6TensorINS_2ph7BarcodeIdEEEEEEvRSoRKT_
FNDA:2,_ZN2sb2io6detail12write_tensorITkNS_8IsTensorENS_6TensorINS_15SymmetricMatrixIfEEEEEEvRSoRKT_
FNDA:2,_ZN2sb2io6detail23write_contiguous_tensorITkNS_8IsTensorENS_6TensorINS_15SymmetricMatrixIfEEEEEEvRSoRKT_
FNDA:2,_ZN2sb2io6detail12write_tensorITkNS_8IsTensorENS_6TensorINS_15SymmetricMatrixIdEEEEEEvRSoRKT_
FNDA:2,_ZN2sb2io6detail23write_contiguous_tensorITkNS_8IsTensorENS_6TensorINS_15SymmetricMatrixIdEEEEEEvRSoRKT_
FNDA:2,_ZN2sb2io6detail12write_tensorITkNS_8IsTensorENS_6TensorINS_14DistanceMatrixIfEEEEEEvRSoRKT_
FNDA:2,_ZN2sb2io6detail23write_contiguous_tensorITkNS_8IsTensorENS_6TensorINS_14DistanceMatrixIfEEEEEEvRSoRKT_
FNDA:2,_ZN2sb2io6detail12write_tensorITkNS_8IsTensorENS_6TensorINS_14DistanceMatrixIdEEEEEEvRSoRKT_
FNDA:2,_ZN2sb2io6detail23write_contiguous_tensorITkNS_8IsTensorENS_6TensorINS_14DistanceMatrixIdEEEEEEvRSoRKT_
FNDA:1,test_tensor_io_core.cpp:_ZN2sb2io6detail12tensorFormatIZN12_GLOBAL__N_153TensorIoCore_TensorFormatThrowsOnUnsupportedType_Test8TestBodyEvE11UnsupportedEENS1_12TensorFormatEv
FNF:12
FNH:12
DA:86,4
DA:87,4
DA:88,4
DA:90,696
DA:91,26
DA:96,600
DA:97,600
DA:98,600
DA:100,600
DA:101,76
DA:103,33
DA:104,32
DA:106,30
DA:107,30
DA:109,31
DA:111,58
DA:112,52
DA:114,30
DA:115,27
DA:117,18
DA:118,15
DA:120,17
DA:121,16
DA:123,12
DA:124,12
DA:126,14
DA:127,12
DA:129,0
DA:130,600
DA:133,91
DA:134,91
DA:135,91
DA:136,91
DA:137,91
DA:138,91
DA:139,91
DA:146,8
DA:147,8
DA:148,8
DA:154,75
DA:155,75
DA:156,75
DA:157,75
DA:158,75
DA:159,75
DA:163,8
DA:164,8
DA:165,8
DA:166,8
DA:167,0
DA:168,0
DA:169,0
DA:170,8
DA:171,8
DA:175,91
DA:176,91
DA:177,91
DA:178,91
DA:180,91
DA:181,220
DA:182,129
DA:183,129
DA:185,129
DA:186,129
DA:188,91
DA:189,571
DA:190,480
DA:192,480
DA:193,480
DA:194,91
DA:198,93
DA:199,93
DA:200,4
DA:201,4
DA:202,4
DA:203,0
DA:205,0
DA:206,0
DA:207,4
DA:208,4
DA:209,4
DA:210,89
DA:211,89
DA:217,79
DA:218,79
DA:219,79
DA:220,79
DA:221,194
DA:222,115
DA:223,115
DA:224,115
DA:225,115
DA:227,79
DA:228,79
DA:229,1
DA:230,1
DA:231,1
DA:233,78
DA:234,503
DA:235,425
DA:237,10
DA:239,12
DA:241,403
DA:242,425
DA:244,78
DA:245,79
BRDA:166,0,0,0
BRDA:166,0,1,8
BRDA:181,0,0,129
BRDA:181,0,1,91
BRDA:189,0,0,480
BRDA:189,0,1,91
BRDA:199,0,0,4
BRDA:199,0,1,89
BRDA:202,0,0,0
BRDA:202,0,1,4
BRDA:221,0,0,115
BRDA:221,0,1,79
BRDA:228,0,0,1
BRDA:228,0,1,78
BRDA:234,0,0,425
BRDA:234,0,1,78
BRF:16
BRH:14
LF:91
LH:85
end_of_record
SF:/home/runner/work/stablebear/stablebear/include/sbear/math.hpp
FN:41,_ZN2sb3powINS_3PcfIffEEfQrQRKT_T0__XcldtfL0p_3powfL0p0_EEEEDaS5_S6_
FN:41,_ZN2sb3powINS_3PcfIddEEdQrQRKT_T0__XcldtfL0p_3powfL0p0_EEEEDaS5_S6_
FN:41,_ZN2sb3powINS_3PcfIiiEEiQrQRKT_T0__XcldtfL0p_3powfL0p0_EEEEDaS5_S6_
FN:41,_ZN2sb3powINS_3PcfIllEElQrQRKT_T0__XcldtfL0p_3powfL0p0_EEEEDaS5_S6_
FN:23,_ZN2sb3powIbbQaasr3stdE15is_arithmetic_vIT_Esr3stdE15is_arithmetic_vIT0_EEEDaS1_S2_
FN:23,_ZN2sb3powIddQaasr3stdE15is_arithmetic_vIT_Esr3stdE15is_arithmetic_vIT0_EEEDaS1_S2_
FN:23,_ZN2sb3powIffQaasr3stdE15is_arithmetic_vIT_Esr3stdE15is_arithmetic_vIT0_EEEDaS1_S2_
FN:23,_ZN2sb3powIiiQaasr3stdE15is_arithmetic_vIT_Esr3stdE15is_arithmetic_vIT0_EEEDaS1_S2_
FN:23,_ZN2sb3powIllQaasr3stdE15is_arithmetic_vIT_Esr3stdE15is_arithmetic_vIT0_EEEDaS1_S2_
FN:23,_ZN2sb3powIjjQaasr3stdE15is_arithmetic_vIT_Esr3stdE15is_arithmetic_vIT0_EEEDaS1_S2_
FN:23,_ZN2sb3powImmQaasr3stdE15is_arithmetic_vIT_Esr3stdE15is_arithmetic_vIT0_EEEDaS1_S2_
FNDA:14,_ZN2sb3powINS_3PcfIffEEfQrQRKT_T0__XcldtfL0p_3powfL0p0_EEEEDaS5_S6_
FNDA:14,_ZN2sb3powINS_3PcfIddEEdQrQRKT_T0__XcldtfL0p_3powfL0p0_EEEEDaS5_S6_
FNDA:0,_ZN2sb3powINS_3PcfIiiEEiQrQRKT_T0__XcldtfL0p_3powfL0p0_EEEEDaS5_S6_
FNDA:0,_ZN2sb3powINS_3PcfIllEElQrQRKT_T0__XcldtfL0p_3powfL0p0_EEEEDaS5_S6_
FNDA:0,_ZN2sb3powIbbQaasr3stdE15is_arithmetic_vIT_Esr3stdE15is_arithmetic_vIT0_EEEDaS1_S2_
FNDA:20,_ZN2sb3powIddQaasr3stdE15is_arithmetic_vIT_Esr3stdE15is_arithmetic_vIT0_EEEDaS1_S2_
FNDA:19,_ZN2sb3powIffQaasr3stdE15is_arithmetic_vIT_Esr3stdE15is_arithmetic_vIT0_EEEDaS1_S2_
FNDA:0,_ZN2sb3powIiiQaasr3stdE15is_arithmetic_vIT_Esr3stdE15is_arithmetic_vIT0_EEEDaS1_S2_
FNDA:0,_ZN2sb3powIllQaasr3stdE15is_arithmetic_vIT_Esr3stdE15is_arithmetic_vIT0_EEEDaS1_S2_
FNDA:0,_ZN2sb3powIjjQaasr3stdE15is_arithmetic_vIT_Esr3stdE15is_arithmetic_vIT0_EEEDaS1_S2_
FNDA:0,_ZN2sb3powImmQaasr3stdE15is_arithmetic_vIT_Esr3stdE15is_arithmetic_vIT0_EEEDaS1_S2_
FNF:2
FNH:2
DA:23,39
DA:24,39
DA:25,39
DA:41,28
DA:42,28
DA:43,28
BRF:0
BRH:0
LF:6
LH:6
end_of_record
SF:/home/runner/work/stablebear/stablebear/include/sbear/persistence/accumulated_persistence.hpp
FN:30,_ZN2sb2ph34barcode_to_accumulated_persistenceIfEENS_3PcfIT_S3_EERKNS0_7BarcodeIS3_EES3_
FN:64,_ZZN2sb2ph34barcode_to_accumulated_persistenceIfEENS_3PcfIT_S3_EERKNS0_7BarcodeIS3_EES3_ENKUlRKZNS1_IfEES4_S8_S3_E5EntrySB_E_clESB_SB_
FN:94,_ZN2sb2ph33make_accumulated_persistence_taskIfEEDaRKNS_6TensorINS0_7BarcodeIT_EEEERNS2_INS_3PcfIS4_S4_EEEES4_
FN:95,_ZZN2sb2ph33make_accumulated_persistence_taskIfEEDaRKNS_6TensorINS0_7BarcodeIT_EEEERNS2_INS_3PcfIS4_S4_EEEES4_ENKUlRKNS3_IfEEE_clESF_
FN:30,_ZN2sb2ph34barcode_to_accumulated_persistenceIdEENS_3PcfIT_S3_EERKNS0_7BarcodeIS3_EES3_
FN:64,_ZZN2sb2ph34barcode_to_accumulated_persistenceIdEENS_3PcfIT_S3_EERKNS0_7BarcodeIS3_EES3_ENKUlRKZNS1_IdEES4_S8_S3_E5EntrySB_E_clESB_SB_
FN:94,_ZN2sb2ph33make_accumulated_persistence_taskIdEEDaRKNS_6TensorINS0_7BarcodeIT_EEEERNS2_INS_3PcfIS4_S4_EEEES4_
FN:95,_ZZN2sb2ph33make_accumulated_persistence_taskIdEEDaRKNS_6TensorINS0_7BarcodeIT_EEEERNS2_INS_3PcfIS4_S4_EEEES4_ENKUlRKNS3_IdEEE_clESF_
FNDA:0,_ZN2sb2ph34barcode_to_accumulated_persistenceIfEENS_3PcfIT_S3_EERKNS0_7BarcodeIS3_EES3_
FNDA:0,_ZZN2sb2ph34barcode_to_accumulated_persistenceIfEENS_3PcfIT_S3_EERKNS0_7BarcodeIS3_EES3_ENKUlRKZNS1_IfEES4_S8_S3_E5EntrySB_E_clESB_SB_
FNDA:0,_ZN2sb2ph33make_accumulated_persistence_taskIfEEDaRKNS_6TensorINS0_7BarcodeIT_EEEERNS2_INS_3PcfIS4_S4_EEEES4_
FNDA:0,_ZZN2sb2ph33make_accumulated_persistence_taskIfEEDaRKNS_6TensorINS0_7BarcodeIT_EEEERNS2_INS_3PcfIS4_S4_EEEES4_ENKUlRKNS3_IfEEE_clESF_
FNDA:32,_ZN2sb2ph34barcode_to_accumulated_persistenceIdEENS_3PcfIT_S3_EERKNS0_7BarcodeIS3_EES3_
FNDA:184,_ZZN2sb2ph34barcode_to_accumulated_persistenceIdEENS_3PcfIT_S3_EERKNS0_7BarcodeIS3_EES3_ENKUlRKZNS1_IdEES4_S8_S3_E5EntrySB_E_clESB_SB_
FNDA:1,_ZN2sb2ph33make_accumulated_persistence_taskIdEEDaRKNS_6TensorINS0_7BarcodeIT_EEEERNS2_INS_3PcfIS4_S4_EEEES4_
FNDA:12,_ZZN2sb2ph33make_accumulated_persistence_taskIdEEDaRKNS_6TensorINS0_7BarcodeIT_EEEERNS2_INS_3PcfIS4_S4_EEEES4_ENKUlRKNS3_IdEEE_clESF_
FNF:4
FNH:4
DA:30,32
DA:31,32
DA:32,1
DA:33,1
DA:34,1
DA:37,31
DA:38,31
DA:39,31
DA:40,31
DA:41,31
DA:43,31
DA:44,31
DA:46,31
DA:47,118
DA:48,118
DA:49,2
DA:51,116
DA:52,1
DA:54,115
DA:55,115
DA:56,115
DA:57,115
DA:59,31
DA:60,0
DA:61,0
DA:62,0
DA:64,184
DA:65,184
DA:66,184
DA:68,31
DA:69,31
DA:71,31
DA:73,31
DA:74,31
DA:76,31
DA:77,115
DA:78,115
DA:79,109
DA:80,109
DA:81,109
DA:82,109
DA:83,115
DA:84,115
DA:86,31
DA:88,31
DA:89,31
DA:94,1
DA:95,12
DA:96,12
DA:97,12
DA:98,1
DA:99,1
DA:100,1
DA:101,1
BRDA:31,0,0,1
BRDA:31,0,1,31
BRDA:46,0,0,118
BRDA:46,0,1,31
BRDA:48,0,0,2
BRDA:48,0,1,116
BRDA:51,0,0,1
BRDA:51,0,1,115
BRDA:59,0,0,0
BRDA:59,0,1,31
BRDA:76,0,0,115
BRDA:76,0,1,31
BRDA:78,0,0,109
BRDA:78,0,1,6
BRF:14
BRH:13
LF:60
LH:57
end_of_record
SF:/home/runner/work/stablebear/stablebear/include/sbear/persistence/barcode.hpp
FN:26,_ZN2sb2ph7BarcodeIfEC2Ev
FN:33,_ZN2sb2ph7BarcodeIfEC2EOSt6vectorINS0_15PersistencePairIfEESaIS5_EE
FN:26,_ZN2sb2ph7BarcodeIdEC2Ev
FN:33,_ZN2sb2ph7BarcodeIdEC2EOSt6vectorINS0_15PersistencePairIdEESaIS5_EE
FN:125,_ZNK2sb2ph7BarcodeIfE4barsEv
FN:125,_ZNK2sb2ph7BarcodeIdE4barsEv
FN:133,_ZN2sb2phlsIfEERSoS2_RKNS0_7BarcodeIT_EE
FN:84,_ZNK2sb2ph7BarcodeIfE16is_isomorphic_toERKS2_dd
FN:103,_ZZNK2sb2ph7BarcodeIfE16is_isomorphic_toERKS2_ddENKUlffE_clEff
FN:19,_ZN2sb2ph7BarcodeIfE11is_infiniteEf
FN:133,_ZN2sb2phlsIdEERSoS2_RKNS0_7BarcodeIT_EE
FN:84,_ZNK2sb2ph7BarcodeIdE16is_isomorphic_toERKS2_dd
FN:103,_ZZNK2sb2ph7BarcodeIdE16is_isomorphic_toERKS2_ddENKUlddE_clEdd
FN:19,_ZN2sb2ph7BarcodeIdE11is_infiniteEd
FN:65,_ZNK2sb2ph7BarcodeIfEeqERKS2_
FN:65,_ZNK2sb2ph7BarcodeIdEeqERKS2_
FN:52,_ZN2sb2ph7BarcodeIfEaSEOSt6vectorINS0_15PersistencePairIfEESaIS5_EE
FN:52,_ZN2sb2ph7BarcodeIdEaSEOSt6vectorINS0_15PersistencePairIdEESaIS5_EE
FN:29,_ZN2sb2ph7BarcodeIfEC2ERKSt6vectorINS0_15PersistencePairIfEESaIS5_EE
FN:29,_ZN2sb2ph7BarcodeIdEC2ERKSt6vectorINS0_15PersistencePairIdEESaIS5_EE
FNDA:251,_ZN2sb2ph7BarcodeIfEC2Ev
FNDA:16,_ZN2sb2ph7BarcodeIfEC2EOSt6vectorINS0_15PersistencePairIfEESaIS5_EE
FNDA:1246,_ZN2sb2ph7BarcodeIdEC2Ev
FNDA:324,_ZN2sb2ph7BarcodeIdEC2EOSt6vectorINS0_15PersistencePairIdEESaIS5_EE
FNDA:49,_ZNK2sb2ph7BarcodeIfE4barsEv
FNDA:1980,_ZNK2sb2ph7BarcodeIdE4barsEv
FNDA:1,_ZN2sb2phlsIfEERSoS2_RKNS0_7BarcodeIT_EE
FNDA:5,_ZNK2sb2ph7BarcodeIfE16is_isomorphic_toERKS2_dd
FNDA:14,_ZZNK2sb2ph7BarcodeIfE16is_isomorphic_toERKS2_ddENKUlffE_clEff
FNDA:42,_ZN2sb2ph7BarcodeIfE11is_infiniteEf
FNDA:1,_ZN2sb2phlsIdEERSoS2_RKNS0_7BarcodeIT_EE
FNDA:169,_ZNK2sb2ph7BarcodeIdE16is_isomorphic_toERKS2_dd
FNDA:1464,_ZZNK2sb2ph7BarcodeIdE16is_isomorphic_toERKS2_ddENKUlddE_clEdd
FNDA:7867,_ZN2sb2ph7BarcodeIdE11is_infiniteEd
FNDA:6,_ZNK2sb2ph7BarcodeIfEeqERKS2_
FNDA:3,_ZNK2sb2ph7BarcodeIdEeqERKS2_
FNDA:8,_ZN2sb2ph7BarcodeIfEaSEOSt6vectorINS0_15PersistencePairIfEESaIS5_EE
FNDA:310,_ZN2sb2ph7BarcodeIdEaSEOSt6vectorINS0_15PersistencePairIdEESaIS5_EE
FNDA:5,_ZN2sb2ph7BarcodeIfEC2ERKSt6vectorINS0_15PersistencePairIfEESaIS5_EE
FNDA:5,_ZN2sb2ph7BarcodeIdEC2ERKSt6vectorINS0_15PersistencePairIdEESaIS5_EE
FNF:10
FNH:10
DA:19,7909
DA:20,7909
DA:21,7909
DA:26,1497
DA:29,10
DA:30,10
DA:33,340
DA:34,340
DA:52,318
DA:53,318
DA:54,318
DA:55,318
DA:65,9
DA:66,9
DA:67,9
DA:84,174
DA:85,174
DA:86,1
DA:87,1
DA:88,1
DA:90,173
DA:91,173
DA:93,173
DA:94,173
DA:98,173
DA:99,3
DA:100,3
DA:101,3
DA:103,1478
DA:104,1478
DA:105,1478
DA:106,1478
DA:107,75
DA:108,1403
DA:109,1403
DA:110,1403
DA:111,1478
DA:113,903
DA:114,739
DA:115,739
DA:116,739
DA:117,6
DA:118,6
DA:119,6
DA:120,739
DA:122,164
DA:123,170
DA:125,2029
DA:133,2
DA:134,2
DA:136,2
DA:137,2
DA:139,6
DA:140,4
DA:141,4
DA:143,4
DA:145,4
DA:146,2
DA:147,2
DA:148,2
DA:149,2
DA:150,2
DA:151,2
DA:152,2
DA:154,4
DA:156,4
DA:157,2
DA:158,2
DA:159,2
DA:160,2
DA:161,2
DA:162,2
DA:163,2
DA:165,4
DA:167,4
DA:168,2
DA:169,2
DA:170,0
DA:171,0
DA:172,0
DA:173,0
DA:174,2
DA:175,2
DA:176,2
DA:177,2
DA:178,2
DA:180,4
DA:181,2
DA:183,2
DA:184,2
BRDA:20,0,0,162
BRDA:20,0,1,7747
BRDA:20,1,2,10
BRDA:20,1,3,7737
BRDA:85,0,0,1
BRDA:85,0,1,173
BRDA:98,0,0,3
BRDA:98,0,1,170
BRDA:98,1,2,3
BRDA:98,1,3,0
BRDA:106,0,0,75
BRDA:106,0,1,1403
BRDA:106,1,2,0
BRDA:106,1,3,1403
BRDA:107,0,0,75
BRDA:107,0,1,0
BRDA:107,1,2,72
BRDA:107,1,3,3
BRDA:113,0,0,739
BRDA:113,0,1,164
BRDA:115,0,0,0
BRDA:115,0,1,739
BRDA:116,0,0,6
BRDA:116,0,1,733
BRDA:139,0,0,4
BRDA:139,0,1,2
BRDA:145,0,0,2
BRDA:145,0,1,2
BRDA:145,1,2,0
BRDA:145,1,3,2
BRDA:156,0,0,2
BRDA:156,0,1,2
BRDA:156,1,2,0
BRDA:156,1,3,2
BRDA:167,0,0,2
BRDA:167,0,1,2
BRDA:169,0,0,0
BRDA:169,0,1,2
BRF:38
BRH:31
LF:99
LH:95
end_of_record
SF:/home/runner/work/stablebear/stablebear/include/sbear/persistence/barcode_summary.hpp
FN:25,_ZN2sb2ph18BarcodeSummaryTaskIfPFNS_3PcfIffEERKNS0_7BarcodeIfEEEEC2ERKNS_6TensorIS5_EERNSB_IS3_EES9_NSt7__cxx1112basic_stringIcSt11char_traitsIcESaIcEEE
FN:32,_ZN2sb2ph18BarcodeSummaryTaskIfPFNS_3PcfIffEERKNS0_7BarcodeIfEEEE9run_asyncERNS_8ExecutorE
FN:39,_ZZN2sb2ph18BarcodeSummaryTaskIfPFNS_3PcfIffEERKNS0_7BarcodeIfEEEE9run_asyncERNS_8ExecutorEENKUlRKSt6vectorImSaImEEE_clESH_
FN:40,_ZZZN2sb2ph18BarcodeSummaryTaskIfPFNS_3PcfIffEERKNS0_7BarcodeIfEEEE9run_asyncERNS_8ExecutorEENKUlRKSt6vectorImSaImEEE_clESH_ENKUlvE_clEv
FN:25,_ZN2sb2ph18BarcodeSummaryTaskIfZNS0_33make_accumulated_persistence_taskIfEEDaRKNS_6TensorINS0_7BarcodeIT_EEEERNS3_INS_3PcfIS5_S5_EEEES5_EUlRKNS4_IfEEE_EC2ERKNS3_ISE_EERNS3_INSA_IffEEEESH_NSt7__cxx1112basic_stringIcSt11char_traitsIcESaIcEEE
FN:32,_ZN2sb2ph18BarcodeSummaryTaskIfZNS0_33make_accumulated_persistence_taskIfEEDaRKNS_6TensorINS0_7BarcodeIT_EEEERNS3_INS_3PcfIS5_S5_EEEES5_EUlRKNS4_IfEEE_E9run_asyncERNS_8ExecutorE
FN:39,_ZZN2sb2ph18BarcodeSummaryTaskIfZNS0_33make_accumulated_persistence_taskIfEEDaRKNS_6TensorINS0_7BarcodeIT_EEEERNS3_INS_3PcfIS5_S5_EEEES5_EUlRKNS4_IfEEE_E9run_asyncERNS_8ExecutorEENKUlRKSt6vectorImSaImEEE_clESP_
FN:40,_ZZZN2sb2ph18BarcodeSummaryTaskIfZNS0_33make_accumulated_persistence_taskIfEEDaRKNS_6TensorINS0_7BarcodeIT_EEEERNS3_INS_3PcfIS5_S5_EEEES5_EUlRKNS4_IfEEE_E9run_asyncERNS_8ExecutorEENKUlRKSt6vectorImSaImEEE_clESP_ENKUlvE_clEv
FN:25,_ZN2sb2ph18BarcodeSummaryTaskIdPFNS_3PcfIddEERKNS0_7BarcodeIdEEEEC2ERKNS_6TensorIS5_EERNSB_IS3_EES9_NSt7__cxx1112basic_stringIcSt11char_traitsIcESaIcEEE
FN:32,_ZN2sb2ph18BarcodeSummaryTaskIdPFNS_3PcfIddEERKNS0_7BarcodeIdEEEE9run_asyncERNS_8ExecutorE
FN:39,_ZZN2sb2ph18BarcodeSummaryTaskIdPFNS_3PcfIddEERKNS0_7BarcodeIdEEEE9run_asyncERNS_8ExecutorEENKUlRKSt6vectorImSaImEEE_clESH_
FN:40,_ZZZN2sb2ph18BarcodeSummaryTaskIdPFNS_3PcfIddEERKNS0_7BarcodeIdEEEE9run_asyncERNS_8ExecutorEENKUlRKSt6vectorImSaImEEE_clESH_ENKUlvE_clEv
FN:25,_ZN2sb2ph18BarcodeSummaryTaskIdZNS0_33make_accumulated_persistence_taskIdEEDaRKNS_6TensorINS0_7BarcodeIT_EEEERNS3_INS_3PcfIS5_S5_EEEES5_EUlRKNS4_IdEEE_EC2ERKNS3_ISE_EERNS3_INSA_IddEEEESH_NSt7__cxx1112basic_stringIcSt11char_traitsIcESaIcEEE
FN:32,_ZN2sb2ph18BarcodeSummaryTaskIdZNS0_33make_accumulated_persistence_taskIdEEDaRKNS_6TensorINS0_7BarcodeIT_EEEERNS3_INS_3PcfIS5_S5_EEEES5_EUlRKNS4_IdEEE_E9run_asyncERNS_8ExecutorE
FN:39,_ZZN2sb2ph18BarcodeSummaryTaskIdZNS0_33make_accumulated_persistence_taskIdEEDaRKNS_6TensorINS0_7BarcodeIT_EEEERNS3_INS_3PcfIS5_S5_EEEES5_EUlRKNS4_IdEEE_E9run_asyncERNS_8ExecutorEENKUlRKSt6vectorImSaImEEE_clESP_
FN:40,_ZZZN2sb2ph18BarcodeSummaryTaskIdZNS0_33make_accumulated_persistence_taskIdEEDaRKNS_6TensorINS0_7BarcodeIT_EEEERNS3_INS_3PcfIS5_S5_EEEES5_EUlRKNS4_IdEEE_E9run_asyncERNS_8ExecutorEENKUlRKSt6vectorImSaImEEE_clESP_ENKUlvE_clEv
FNDA:1,_ZN2sb2ph18BarcodeSummaryTaskIfPFNS_3PcfIffEERKNS0_7BarcodeIfEEEEC2ERKNS_6TensorIS5_EERNSB_IS3_EES9_NSt7__cxx1112basic_stringIcSt11char_traitsIcESaIcEEE
FNDA:1,_ZN2sb2ph18BarcodeSummaryTaskIfPFNS_3PcfIffEERKNS0_7BarcodeIfEEEE9run_asyncERNS_8ExecutorE
FNDA:2,_ZZN2sb2ph18BarcodeSummaryTaskIfPFNS_3PcfIffEERKNS0_7BarcodeIfEEEE9run_asyncERNS_8ExecutorEENKUlRKSt6vectorImSaImEEE_clESH_
FNDA:2,_ZZZN2sb2ph18BarcodeSummaryTaskIfPFNS_3PcfIffEERKNS0_7BarcodeIfEEEE9run_asyncERNS_8ExecutorEENKUlRKSt6vectorImSaImEEE_clESH_ENKUlvE_clEv
FNDA:0,_ZN2sb2ph18BarcodeSummaryTaskIfZNS0_33make_accumulated_persistence_taskIfEEDaRKNS_6TensorINS0_7BarcodeIT_EEEERNS3_INS_3PcfIS5_S5_EEEES5_EUlRKNS4_IfEEE_EC2ERKNS3_ISE_EERNS3_INSA_IffEEEESH_NSt7__cxx1112basic_stringIcSt11char_traitsIcESaIcEEE
FNDA:0,_ZN2sb2ph18BarcodeSummaryTaskIfZNS0_33make_accumulated_persistence_taskIfEEDaRKNS_6TensorINS0_7BarcodeIT_EEEERNS3_INS_3PcfIS5_S5_EEEES5_EUlRKNS4_IfEEE_E9run_asyncERNS_8ExecutorE
FNDA:0,_ZZN2sb2ph18BarcodeSummaryTaskIfZNS0_33make_accumulated_persistence_taskIfEEDaRKNS_6TensorINS0_7BarcodeIT_EEEERNS3_INS_3PcfIS5_S5_EEEES5_EUlRKNS4_IfEEE_E9run_asyncERNS_8ExecutorEENKUlRKSt6vectorImSaImEEE_clESP_
FNDA:0,_ZZZN2sb2ph18BarcodeSummaryTaskIfZNS0_33make_accumulated_persistence_taskIfEEDaRKNS_6TensorINS0_7BarcodeIT_EEEERNS3_INS_3PcfIS5_S5_EEEES5_EUlRKNS4_IfEEE_E9run_asyncERNS_8ExecutorEENKUlRKSt6vectorImSaImEEE_clESP_ENKUlvE_clEv
FNDA:4,_ZN2sb2ph18BarcodeSummaryTaskIdPFNS_3PcfIddEERKNS0_7BarcodeIdEEEEC2ERKNS_6TensorIS5_EERNSB_IS3_EES9_NSt7__cxx1112basic_stringIcSt11char_traitsIcESaIcEEE
FNDA:4,_ZN2sb2ph18BarcodeSummaryTaskIdPFNS_3PcfIddEERKNS0_7BarcodeIdEEEE9run_asyncERNS_8ExecutorE
FNDA:234,_ZZN2sb2ph18BarcodeSummaryTaskIdPFNS_3PcfIddEERKNS0_7BarcodeIdEEEE9run_asyncERNS_8ExecutorEENKUlRKSt6vectorImSaImEEE_clESH_
FNDA:234,_ZZZN2sb2ph18BarcodeSummaryTaskIdPFNS_3PcfIddEERKNS0_7BarcodeIdEEEE9run_asyncERNS_8ExecutorEENKUlRKSt6vectorImSaImEEE_clESH_ENKUlvE_clEv
FNDA:1,_ZN2sb2ph18BarcodeSummaryTaskIdZNS0_33make_accumulated_persistence_taskIdEEDaRKNS_6TensorINS0_7BarcodeIT_EEEERNS3_INS_3PcfIS5_S5_EEEES5_EUlRKNS4_IdEEE_EC2ERKNS3_ISE_EERNS3_INSA_IddEEEESH_NSt7__cxx1112basic_stringIcSt11char_traitsIcESaIcEEE
FNDA:1,_ZN2sb2ph18BarcodeSummaryTaskIdZNS0_33make_accumulated_persistence_taskIdEEDaRKNS_6TensorINS0_7BarcodeIT_EEEERNS3_INS_3PcfIS5_S5_EEEES5_EUlRKNS4_IdEEE_E9run_asyncERNS_8ExecutorE
FNDA:12,_ZZN2sb2ph18BarcodeSummaryTaskIdZNS0_33make_accumulated_persistence_taskIdEEDaRKNS_6TensorINS0_7BarcodeIT_EEEERNS3_INS_3PcfIS5_S5_EEEES5_EUlRKNS4_IdEEE_E9run_asyncERNS_8ExecutorEENKUlRKSt6vectorImSaImEEE_clESP_
FNDA:12,_ZZZN2sb2ph18BarcodeSummaryTaskIdZNS0_33make_accumulated_persistence_taskIdEEDaRKNS_6TensorINS0_7BarcodeIT_EEEERNS3_INS_3PcfIS5_S5_EEEES5_EUlRKNS4_IdEEE_E9run_asyncERNS_8ExecutorEENKUlRKSt6vectorImSaImEEE_clESP_ENKUlvE_clEv
FNF:4
FNH:4
DA:25,6
DA:26,6
DA:27,6
DA:28,6
DA:32,6
DA:33,6
DA:35,6
DA:37,6
DA:39,248
DA:40,248
DA:41,248
DA:42,248
DA:43,248
DA:44,248
DA:46,6
DA:47,6
BRF:0
BRH:0
LF:26
LH:26
end_of_record
SF:/home/runner/work/stablebear/stablebear/include/sbear/persistence/betti_curve.hpp
FN:23,_ZN2sb2ph22barcode_to_betti_curveIfEENS_3PcfIT_S3_EERKNS0_7BarcodeIS3_EE
FN:48,_ZZN2sb2ph22barcode_to_betti_curveIfEENS_3PcfIT_S3_EERKNS0_7BarcodeIS3_EEENKUlRKZNS1_IfEES4_S8_E5EventSB_E_clESB_SB_
FN:77,_ZN2sb2ph21make_betti_curve_taskIfEEDaRKNS_6TensorINS0_7BarcodeIT_EEEERNS2_INS_3PcfIS4_S4_EEEE
FN:23,_ZN2sb2ph22barcode_to_betti_curveIdEENS_3PcfIT_S3_EERKNS0_7BarcodeIS3_EE
FN:48,_ZZN2sb2ph22barcode_to_betti_curveIdEENS_3PcfIT_S3_EERKNS0_7BarcodeIS3_EEENKUlRKZNS1_IdEES4_S8_E5EventSB_E_clESB_SB_
FN:77,_ZN2sb2ph21make_betti_curve_taskIdEEDaRKNS_6TensorINS0_7BarcodeIT_EEEERNS2_INS_3PcfIS4_S4_EEEE
FNDA:0,_ZN2sb2ph22barcode_to_betti_curveIfEENS_3PcfIT_S3_EERKNS0_7BarcodeIS3_EE
FNDA:0,_ZZN2sb2ph22barcode_to_betti_curveIfEENS_3PcfIT_S3_EERKNS0_7BarcodeIS3_EEENKUlRKZNS1_IfEES4_S8_E5EventSB_E_clESB_SB_
FNDA:0,_ZN2sb2ph21make_betti_curve_taskIfEEDaRKNS_6TensorINS0_7BarcodeIT_EEEERNS2_INS_3PcfIS4_S4_EEEE
FNDA:31,_ZN2sb2ph22barcode_to_betti_curveIdEENS_3PcfIT_S3_EERKNS0_7BarcodeIS3_EE
FNDA:738,_ZZN2sb2ph22barcode_to_betti_curveIdEENS_3PcfIT_S3_EERKNS0_7BarcodeIS3_EEENKUlRKZNS1_IdEES4_S8_E5EventSB_E_clESB_SB_
FNDA:1,_ZN2sb2ph21make_betti_curve_taskIdEEDaRKNS_6TensorINS0_7BarcodeIT_EEEERNS2_INS_3PcfIS4_S4_EEEE
FNF:3
FNH:3
DA:23,31
DA:24,31
DA:25,2
DA:26,2
DA:27,2
DA:30,29
DA:31,29
DA:32,29
DA:33,29
DA:34,29
DA:36,29
DA:37,29
DA:39,29
DA:40,132
DA:41,132
DA:42,132
DA:43,128
DA:44,128
DA:45,128
DA:46,132
DA:48,738
DA:49,738
DA:50,738
DA:52,29
DA:53,29
DA:55,29
DA:57,29
DA:58,29
DA:60,29
DA:61,262
DA:62,262
DA:63,255
DA:64,255
DA:65,255
DA:66,255
DA:67,262
DA:68,262
DA:70,29
DA:72,29
DA:73,31
DA:77,1
DA:78,1
DA:79,1
DA:80,1
DA:81,1
BRDA:24,0,0,2
BRDA:24,0,1,29
BRDA:39,0,0,132
BRDA:39,0,1,29
BRDA:42,0,0,128
BRDA:42,0,1,4
BRDA:49,0,0,284
BRDA:49,0,1,454
BRDA:49,1,2,4
BRDA:49,1,3,450
BRDA:49,2,4,0
BRDA:49,2,5,4
BRDA:60,0,0,262
BRDA:60,0,1,29
BRDA:62,0,0,255
BRDA:62,0,1,7
BRF:16
BRH:15
LF:48
LH:48
end_of_record
SF:/home/runner/work/stablebear/stablebear/include/sbear/persistence/compute_persistence.hpp
FN:157,_ZN2sb2ph14RipserTaskImplINS_6TensorIfEEfEC2ERKNS2_IS3_EERNS2_INS0_7BarcodeIfEEEEmb
FN:162,_ZN2sb2ph14RipserTaskImplINS_6TensorIfEEfE9run_asyncERNS_8ExecutorE
FN:169,_ZZN2sb2ph14RipserTaskImplINS_6TensorIfEEfE9run_asyncERNS_8ExecutorEENKUlRKSt6vectorImSaImEEE_clESB_
FN:93,_ZN2sb2ph6detail41compute_persistence_euclidean_single_implIfEEvRKNS_6TensorINS3_IT_EEEERNS3_INS0_7BarcodeIS4_EEEEmRKSt6vectorImSaImEEb
FN:102,_ZZN2sb2ph6detail41compute_persistence_euclidean_single_implIfEEvRKNS_6TensorINS3_IT_EEEERNS3_INS0_7BarcodeIS4_EEEEmRKSt6vectorImSaImEEbENKUlmE_clEm
FN:26,_ZN2sb2ph6detail10run_ripserINS0_4rips25euclidean_distance_matrixEfEEvRKT_mRNS_6TensorINS0_7BarcodeIT0_EEEEmRKSt6vectorImSaImEEb
FN:157,_ZN2sb2ph14RipserTaskImplINS_14DistanceMatrixIfEEfEC2ERKNS_6TensorIS3_EERNS5_INS0_7BarcodeIfEEEEmb
FN:162,_ZN2sb2ph14RipserTaskImplINS_14DistanceMatrixIfEEfE9run_asyncERNS_8ExecutorE
FN:169,_ZZN2sb2ph14RipserTaskImplINS_14DistanceMatrixIfEEfE9run_asyncERNS_8ExecutorEENKUlRKSt6vectorImSaImEEE_clESB_
FN:133,_ZN2sb2ph6detail39compute_persistence_distmat_single_implIfEEvRKNS_6TensorINS_14DistanceMatrixIT_EEEERNS3_INS0_7BarcodeIS5_EEEEmRKSt6vectorImSaImEEb
FN:26,_ZN2sb2ph6detail10run_ripserINS_14DistanceMatrixIfEEfEEvRKT_mRNS_6TensorINS0_7BarcodeIT0_EEEEmRKSt6vectorImSaImEEb
FN:157,_ZN2sb2ph14RipserTaskImplINS_6TensorIdEEdEC2ERKNS2_IS3_EERNS2_INS0_7BarcodeIdEEEEmb
FN:162,_ZN2sb2ph14RipserTaskImplINS_6TensorIdEEdE9run_asyncERNS_8ExecutorE
FN:169,_ZZN2sb2ph14RipserTaskImplINS_6TensorIdEEdE9run_asyncERNS_8ExecutorEENKUlRKSt6vectorImSaImEEE_clESB_
FN:93,_ZN2sb2ph6detail41compute_persistence_euclidean_single_implIdEEvRKNS_6TensorINS3_IT_EEEERNS3_INS0_7BarcodeIS4_EEEEmRKSt6vectorImSaImEEb
FN:102,_ZZN2sb2ph6detail41compute_persistence_euclidean_single_implIdEEvRKNS_6TensorINS3_IT_EEEERNS3_INS0_7BarcodeIS4_EEEEmRKSt6vectorImSaImEEbENKUlmE_clEm
FN:26,_ZN2sb2ph6detail10run_ripserINS0_4rips25euclidean_distance_matrixEdEEvRKT_mRNS_6TensorINS0_7BarcodeIT0_EEEEmRKSt6vectorImSaImEEb
FN:157,_ZN2sb2ph14RipserTaskImplINS_14DistanceMatrixIdEEdEC2ERKNS_6TensorIS3_EERNS5_INS0_7BarcodeIdEEEEmb
FN:162,_ZN2sb2ph14RipserTaskImplINS_14DistanceMatrixIdEEdE9run_asyncERNS_8ExecutorE
FN:169,_ZZN2sb2ph14RipserTaskImplINS_14DistanceMatrixIdEEdE9run_asyncERNS_8ExecutorEENKUlRKSt6vectorImSaImEEE_clESB_
FN:133,_ZN2sb2ph6detail39compute_persistence_distmat_single_implIdEEvRKNS_6TensorINS_14DistanceMatrixIT_EEEERNS3_INS0_7BarcodeIS5_EEEEmRKSt6vectorImSaImEEb
FN:26,_ZN2sb2ph6detail10run_ripserINS_14DistanceMatrixIdEEdEEvRKT_mRNS_6TensorINS0_7BarcodeIT0_EEEEmRKSt6vectorImSaImEEb
FNDA:3,_ZN2sb2ph14RipserTaskImplINS_6TensorIfEEfEC2ERKNS2_IS3_EERNS2_INS0_7BarcodeIfEEEEmb
FNDA:3,_ZN2sb2ph14RipserTaskImplINS_6TensorIfEEfE9run_asyncERNS_8ExecutorE
FNDA:43,_ZZN2sb2ph14RipserTaskImplINS_6TensorIfEEfE9run_asyncERNS_8ExecutorEENKUlRKSt6vectorImSaImEEE_clESB_
FNDA:44,_ZN2sb2ph6detail41compute_persistence_euclidean_single_implIfEEvRKNS_6TensorINS3_IT_EEEERNS3_INS0_7BarcodeIS4_EEEEmRKSt6vectorImSaImEEb
FNDA:4,_ZZN2sb2ph6detail41compute_persistence_euclidean_single_implIfEEvRKNS_6TensorINS3_IT_EEEERNS3_INS0_7BarcodeIS4_EEEEmRKSt6vectorImSaImEEbENKUlmE_clEm
FNDA:2,_ZN2sb2ph6detail10run_ripserINS0_4rips25euclidean_distance_matrixEfEEvRKT_mRNS_6TensorINS0_7BarcodeIT0_EEEEmRKSt6vectorImSaImEEb
FNDA:1,_ZN2sb2ph14RipserTaskImplINS_14DistanceMatrixIfEEfEC2ERKNS_6TensorIS3_EERNS5_INS0_7BarcodeIfEEEEmb
FNDA:1,_ZN2sb2ph14RipserTaskImplINS_14DistanceMatrixIfEEfE9run_asyncERNS_8ExecutorE
FNDA:1,_ZZN2sb2ph14RipserTaskImplINS_14DistanceMatrixIfEEfE9run_asyncERNS_8ExecutorEENKUlRKSt6vectorImSaImEEE_clESB_
FNDA:1,_ZN2sb2ph6detail39compute_persistence_distmat_single_implIfEEvRKNS_6TensorINS_14DistanceMatrixIT_EEEERNS3_INS0_7BarcodeIS5_EEEEmRKSt6vectorImSaImEEb
FNDA:1,_ZN2sb2ph6detail10run_ripserINS_14DistanceMatrixIfEEfEEvRKT_mRNS_6TensorINS0_7BarcodeIT0_EEEEmRKSt6vectorImSaImEEb
FNDA:84,_ZN2sb2ph14RipserTaskImplINS_6TensorIdEEdEC2ERKNS2_IS3_EERNS2_INS0_7BarcodeIdEEEEmb
FNDA:84,_ZN2sb2ph14RipserTaskImplINS_6TensorIdEEdE9run_asyncERNS_8ExecutorE
FNDA:192,_ZZN2sb2ph14RipserTaskImplINS_6TensorIdEEdE9run_asyncERNS_8ExecutorEENKUlRKSt6vectorImSaImEEE_clESB_
FNDA:193,_ZN2sb2ph6detail41compute_persistence_euclidean_single_implIdEEvRKNS_6TensorINS3_IT_EEEERNS3_INS0_7BarcodeIS4_EEEEmRKSt6vectorImSaImEEb
FNDA:298,_ZZN2sb2ph6detail41compute_persistence_euclidean_single_implIdEEvRKNS_6TensorINS3_IT_EEEERNS3_INS0_7BarcodeIS4_EEEEmRKSt6vectorImSaImEEbENKUlmE_clEm
FNDA:145,_ZN2sb2ph6detail10run_ripserINS0_4rips25euclidean_distance_matrixEdEEvRKT_mRNS_6TensorINS0_7BarcodeIT0_EEEEmRKSt6vectorImSaImEEb
FNDA:5,_ZN2sb2ph14RipserTaskImplINS_14DistanceMatrixIdEEdEC2ERKNS_6TensorIS3_EERNS5_INS0_7BarcodeIdEEEEmb
FNDA:5,_ZN2sb2ph14RipserTaskImplINS_14DistanceMatrixIdEEdE9run_asyncERNS_8ExecutorE
FNDA:7,_ZZN2sb2ph14RipserTaskImplINS_14DistanceMatrixIdEEdE9run_asyncERNS_8ExecutorEENKUlRKSt6vectorImSaImEEE_clESB_
FNDA:7,_ZN2sb2ph6detail39compute_persistence_distmat_single_implIdEEvRKNS_6TensorINS_14DistanceMatrixIT_EEEERNS3_INS0_7BarcodeIS5_EEEEmRKSt6vectorImSaImEEb
FNDA:7,_ZN2sb2ph6detail10run_ripserINS_14DistanceMatrixIdEEdEEvRKT_mRNS_6TensorINS0_7BarcodeIT0_EEEEmRKSt6vectorImSaImEEb
FNF:7
FNH:7
DA:26,155
DA:31,155
DA:32,5
DA:33,15
DA:34,10
DA:35,10
DA:36,10
DA:38,10
DA:39,10
DA:40,4
DA:41,4
DA:42,4
DA:43,10
DA:44,10
DA:45,5
DA:46,5
DA:48,150
DA:49,1585
DA:50,1435
DA:51,1435
DA:52,15678
DA:53,14243
DA:54,14243
DA:55,14243
DA:56,1435
DA:57,1435
DA:59,150
DA:60,150
DA:62,150
DA:63,150
DA:64,150
DA:66,458
DA:67,308
DA:68,308
DA:69,308
DA:70,308
DA:72,308
DA:73,308
DA:77,308
DA:78,148
DA:79,148
DA:80,148
DA:82,308
DA:83,1421
DA:84,1421
DA:85,1421
DA:87,308
DA:88,308
DA:89,150
DA:93,237
DA:94,237
DA:95,0
DA:96,0
DA:97,0
DA:99,237
DA:100,237
DA:102,302
DA:103,83
DA:104,83
DA:105,83
DA:107,154
DA:108,4
DA:109,4
DA:110,4
DA:111,4
DA:113,150
DA:114,150
DA:116,1539
DA:117,1389
DA:118,1389
DA:119,1389
DA:120,1389
DA:121,7792
DA:122,6403
DA:123,6403
DA:124,6403
DA:125,1389
DA:127,150
DA:128,150
DA:129,150
DA:133,8
DA:134,8
DA:135,0
DA:136,0
DA:137,0
DA:139,8
DA:140,8
DA:142,8
DA:143,0
DA:144,0
DA:145,0
DA:147,8
DA:148,8
DA:157,93
DA:158,93
DA:162,93
DA:163,93
DA:164,93
DA:165,93
DA:167,93
DA:169,243
DA:170,243
DA:171,0
DA:173,243
DA:174,243
DA:175,243
DA:176,243
DA:179,235
DA:181,8
DA:182,243
DA:183,243
DA:184,93
BRDA:31,0,0,5
BRDA:31,0,1,150
BRDA:33,0,0,10
BRDA:33,0,1,5
BRDA:39,0,0,5
BRDA:39,0,1,5
BRDA:39,1,2,4
BRDA:39,1,3,1
BRDA:39,2,4,4
BRDA:39,2,5,0
BRDA:49,0,0,1435
BRDA:49,0,1,150
BRDA:52,0,0,14243
BRDA:52,0,1,1435
BRDA:66,0,0,308
BRDA:66,0,1,150
BRDA:77,0,0,150
BRDA:77,0,1,158
BRDA:77,1,2,148
BRDA:77,1,3,2
BRDA:82,0,0,1421
BRDA:82,0,1,308
BRDA:94,0,0,0
BRDA:94,0,1,237
BRDA:102,0,0,84
BRDA:102,0,1,153
BRDA:102,1,2,2
BRDA:102,1,3,151
BRDA:107,0,0,4
BRDA:107,0,1,150
BRDA:116,0,0,1389
BRDA:116,0,1,150
BRDA:121,0,0,6403
BRDA:121,0,1,1389
BRDA:134,0,0,0
BRDA:134,0,1,8
BRDA:142,0,0,0
BRDA:142,0,1,8
BRDA:170,0,0,0
BRDA:170,0,1,243
BRF:40
BRH:35
LF:125
LH:115
end_of_record
SF:/home/runner/work/stablebear/stablebear/include/sbear/persistence/persistence_pair.hpp
FN:18,_ZN2sb2ph15PersistencePairIfEC2Eff
FN:18,_ZN2sb2ph15PersistencePairIdEC2Edd
FN:33,_ZNK2sb2ph15PersistencePairIfEltERKS2_
FN:23,_ZNK2sb2ph15PersistencePairIfEeqERKS2_
FN:33,_ZNK2sb2ph15PersistencePairIdEltERKS2_
FN:23,_ZNK2sb2ph15PersistencePairIdEeqERKS2_
FNDA:50,_ZN2sb2ph15PersistencePairIfEC2Eff
FNDA:5330,_ZN2sb2ph15PersistencePairIdEC2Edd
FNDA:15,_ZNK2sb2ph15PersistencePairIfEltERKS2_
FNDA:4,_ZNK2sb2ph15PersistencePairIfEeqERKS2_
FNDA:3237,_ZNK2sb2ph15PersistencePairIdEltERKS2_
FNDA:5,_ZNK2sb2ph15PersistencePairIdEeqERKS2_
FNF:3
FNH:3
DA:18,5380
DA:23,9
DA:24,9
DA:25,9
DA:33,3252
DA:34,3252
DA:35,3252
BRDA:24,0,0,7
BRDA:24,0,1,2
BRDA:24,1,2,4
BRDA:24,1,3,3
BRDA:34,0,0,37
BRDA:34,0,1,3215
BRDA:34,1,2,3181
BRDA:34,1,3,34
BRDA:34,2,4,1135
BRDA:34,2,5,2046
BRF:10
BRH:10
LF:7
LH:7
end_of_record
SF:/home/runner/work/stablebear/stablebear/include/sbear/persistence/ripser/ripser.hpp
FN:915,_ZN2sb2ph4rips29simplex_coboundary_enumeratorINS1_26compressed_distance_matrixILNS1_24compressed_matrix_layoutE0EEEEC2ENS1_16diameter_entry_tElRKNS1_6ripserIS5_EE
FN:922,_ZN2sb2ph4rips29simplex_coboundary_enumeratorINS1_26compressed_distance_matrixILNS1_24compressed_matrix_layoutE0EEEEC2ERKNS1_6ripserIS5_EE
FN:925,_ZN2sb2ph4rips29simplex_coboundary_enumeratorINS1_26compressed_distance_matrixILNS1_24compressed_matrix_layoutE0EEEE11set_simplexENS1_16diameter_entry_tEl
FN:935,_ZN2sb2ph4rips29simplex_coboundary_enumeratorINS1_26compressed_distance_matrixILNS1_24compressed_matrix_layoutE0EEEE8has_nextEb
FN:939,_ZN2sb2ph4rips29simplex_coboundary_enumeratorINS1_26compressed_distance_matrixILNS1_24compressed_matrix_layoutE0EEEE4nextEv
FN:215,_ZN2sb2ph4rips9get_indexERKNS1_16diameter_entry_tE
FN:183,_ZN2sb2ph4rips9get_indexERKl
FN:213,_ZN2sb2ph4rips9get_entryERKNS1_16diameter_entry_tE
FN:128,_ZNK2sb2ph4rips20binomial_coeff_tableclEll
FN:219,_ZN2sb2ph4rips12get_diameterERKNS1_16diameter_entry_tE
FN:281,_ZNK2sb2ph4rips26compressed_distance_matrixILNS1_24compressed_matrix_layoutE0EEclEll
FN:216,_ZN2sb2ph4rips15get_coefficientERKNS1_16diameter_entry_tE
FN:184,_ZN2sb2ph4rips15get_coefficientERKl
FN:203,_ZN2sb2ph4rips16diameter_entry_tC2Edlt
FN:185,_ZN2sb2ph4rips10make_entryElt
FN:555,_ZNK2sb2ph4rips6ripserINS1_26compressed_distance_matrixILNS1_24compressed_matrix_layoutE0EEEE20get_simplex_verticesISt16reverse_iteratorIN9__gnu_cxx17__normal_iteratorIPlSt6vectorIlSaIlEEEEEEET_lllSH_
FN:545,_ZNK2sb2ph4rips6ripserINS1_26compressed_distance_matrixILNS1_24compressed_matrix_layoutE0EEEE14get_max_vertexElll
FN:402,_ZN2sb2ph4rips7get_maxIZNKS1_6ripserINS1_26compressed_distance_matrixILNS1_24compressed_matrix_layoutE0EEEE14get_max_vertexElllEUllE_EElllT_
FN:546,_ZZNK2sb2ph4rips6ripserINS1_26compressed_distance_matrixILNS1_24compressed_matrix_layoutE0EEEE14get_max_vertexElllENKUllE_clEl
FN:329,_ZN2sb2ph4rips25euclidean_distance_matrixC2EOSt6vectorIS3_IdSaIdEESaIS5_EE
FN:333,_ZNK2sb2ph4rips25euclidean_distance_matrixclEll
FN:338,_ZZNK2sb2ph4rips25euclidean_distance_matrixclEllENKUlddE_clEdd
FN:249,_ZN2sb2ph4rips26compressed_distance_matrixILNS1_24compressed_matrix_layoutE0EEC2INS1_25euclidean_distance_matrixEEERKT_
FN:341,_ZNK2sb2ph4rips25euclidean_distance_matrix4sizeEv
FN:264,_ZN2sb2ph4rips26compressed_distance_matrixILNS1_24compressed_matrix_layoutE0EE9init_rowsEv
FN:257,_ZNK2sb2ph4rips26compressed_distance_matrixILNS1_24compressed_matrix_layoutE0EE4sizeEv
FN:523,_ZN2sb2ph4rips6ripserINS1_26compressed_distance_matrixILNS1_24compressed_matrix_layoutE0EEEEC2EOS5_ldft
FN:118,_ZN2sb2ph4rips20binomial_coeff_tableC2Ell
FN:101,_ZN2sb2ph4rips14check_overflowEl
FN:147,_ZN2sb2ph4rips29multiplicative_inverse_vectorEt
FN:471,_ZN2sb2ph4rips6ripserINS1_26compressed_distance_matrixILNS1_24compressed_matrix_layoutE0EEEE27simplex_boundary_enumeratorC2ElRKS6_
FN:210,_ZN2sb2ph4rips16diameter_entry_tC2ERKl
FN:466,_ZN2sb2ph4rips6ripserINS1_26compressed_distance_matrixILNS1_24compressed_matrix_layoutE0EEEE27simplex_boundary_enumeratorC2ENS1_16diameter_entry_tElRKS6_
FN:894,_ZN2sb2ph4rips6ripserINS1_26compressed_distance_matrixILNS1_24compressed_matrix_layoutE0EEEE16compute_barcodesEv
FN:675,_ZN2sb2ph4rips6ripserINS1_26compressed_distance_matrixILNS1_24compressed_matrix_layoutE0EEEE19compute_dim_0_pairsERSt6vectorISt4pairIdlESaIS9_EESC_
FN:349,_ZN2sb2ph4rips10union_findC2El
FN:1027,_ZN2sb2ph4rips6ripserINS1_26compressed_distance_matrixILNS1_24compressed_matrix_layoutE0EEEE9get_edgesEv
FN:230,_ZN2sb2ph4rips33greater_diameter_or_smaller_indexISt4pairIdlEEEbRKT_S7_
FN:194,_ZN2sb2ph4rips9get_indexERKSt4pairIdlE
FN:353,_ZN2sb2ph4rips10union_find4findEl
FN:193,_ZN2sb2ph4rips12get_diameterERKSt4pairIdlE
FN:363,_ZN2sb2ph4rips10union_find4linkEll
FN:611,_ZN2sb2ph4rips6ripserINS1_26compressed_distance_matrixILNS1_24compressed_matrix_layoutE0EEEE25get_zero_apparent_cofacetENS1_16diameter_entry_tEl
FN:592,_ZN2sb2ph4rips6ripserINS1_26compressed_distance_matrixILNS1_24compressed_matrix_layoutE0EEEE22get_zero_pivot_cofacetENS1_16diameter_entry_tEl
FN:581,_ZN2sb2ph4rips6ripserINS1_26compressed_distance_matrixILNS1_24compressed_matrix_layoutE0EEEE20get_zero_pivot_facetENS1_16diameter_entry_tEl
FN:473,_ZN2sb2ph4rips6ripserINS1_26compressed_distance_matrixILNS1_24compressed_matrix_layoutE0EEEE27simplex_boundary_enumerator11set_simplexENS1_16diameter_entry_tEl
FN:482,_ZN2sb2ph4rips6ripserINS1_26compressed_distance_matrixILNS1_24compressed_matrix_layoutE0EEEE27simplex_boundary_enumerator8has_nextEv
FN:484,_ZN2sb2ph4rips6ripserINS1_26compressed_distance_matrixILNS1_24compressed_matrix_layoutE0EEEE27simplex_boundary_enumerator4nextEv
FN:566,_ZNK2sb2ph4rips6ripserINS1_26compressed_distance_matrixILNS1_24compressed_matrix_layoutE0EEEE16compute_diameterEll
FN:208,_ZN2sb2ph4rips16diameter_entry_tC2ERKSt4pairIdlE
FN:796,_ZN2sb2ph4rips6ripserINS1_26compressed_distance_matrixILNS1_24compressed_matrix_layoutE0EEEE13compute_pairsERKSt6vectorISt4pairIdlESaIS9_EERSt13unordered_mapIlmNS6_10entry_hashENS6_11equal_indexESaIS8_IKlmEEEl
FN:205,_ZN2sb2ph4rips16diameter_entry_tC2ERKSt4pairIdlEt
FN:392,_ZN2sb2ph4rips24compressed_sparse_matrixINS1_16diameter_entry_tEE13append_columnEv
FN:745,_ZN2sb2ph4rips6ripserINS1_26compressed_distance_matrixILNS1_24compressed_matrix_layoutE0EEEE29init_coboundary_and_get_pivotISt14priority_queueINS1_16diameter_entry_tESt6vectorIS9_SaIS9_EENS1_38greater_diameter_or_smaller_index_compIS9_EEEEES9_S9_RT_RKlRSt13unordered_mapIlmNS6_10entry_hashENS6_11equal_indexESaISt4pairISI_mEEE
FN:225,_ZN2sb2ph4rips38greater_diameter_or_smaller_index_compINS1_16diameter_entry_tEEclERKS3_S6_
FN:230,_ZN2sb2ph4rips33greater_diameter_or_smaller_indexINS1_16diameter_entry_tEEEbRKT_S6_
FN:513,_ZNK2sb2ph4rips6ripserINS1_26compressed_distance_matrixILNS1_24compressed_matrix_layoutE0EEEE11equal_indexclERKlS9_
FN:509,_ZNK2sb2ph4rips6ripserINS1_26compressed_distance_matrixILNS1_24compressed_matrix_layoutE0EEEE10entry_hashclERKl
FN:214,_ZN2sb2ph4rips9get_entryERNS1_16diameter_entry_tE
FN:785,_ZN2sb2ph4rips6ripserINS1_26compressed_distance_matrixILNS1_24compressed_matrix_layoutE0EEEE14add_coboundaryISt14priority_queueINS1_16diameter_entry_tESt6vectorIS9_SaIS9_EENS1_38greater_diameter_or_smaller_index_compIS9_EEEEEvRNS1_24compressed_sparse_matrixIS9_EERKSA_ISt4pairIdlESaISK_EEmtRKmRT_SS_
FN:387,_ZN2sb2ph4rips24compressed_sparse_matrixINS1_16diameter_entry_tEE8subrangeEl
FN:374,_ZN2sb2ph4rips5beginIN9__gnu_cxx17__normal_iteratorIPNS1_16diameter_entry_tESt6vectorIS5_SaIS5_EEEEEET_RSt4pairISB_SB_E
FN:375,_ZN2sb2ph4rips3endIN9__gnu_cxx17__normal_iteratorIPNS1_16diameter_entry_tESt6vectorIS5_SaIS5_EEEEEET_RSt4pairISB_SB_E
FN:736,_ZN2sb2ph4rips6ripserINS1_26compressed_distance_matrixILNS1_24compressed_matrix_layoutE0EEEE9get_pivotISt14priority_queueINS1_16diameter_entry_tESt6vectorIS9_SaIS9_EENS1_38greater_diameter_or_smaller_index_compIS9_EEEEES9_RT_
FN:603,_ZN2sb2ph4rips6ripserINS1_26compressed_distance_matrixILNS1_24compressed_matrix_layoutE0EEEE23get_zero_apparent_facetENS1_16diameter_entry_tEl
FN:220,_ZN2sb2ph4rips15set_coefficientERNS1_16diameter_entry_tEt
FN:186,_ZN2sb2ph4rips15set_coefficientERlt
FN:769,_ZN2sb2ph4rips6ripserINS1_26compressed_distance_matrixILNS1_24compressed_matrix_layoutE0EEEE22add_simplex_coboundaryISt14priority_queueINS1_16diameter_entry_tESt6vectorIS9_SaIS9_EENS1_38greater_diameter_or_smaller_index_compIS9_EEEEEvS9_RKlRT_SJ_
FN:711,_ZN2sb2ph4rips6ripserINS1_26compressed_distance_matrixILNS1_24compressed_matrix_layoutE0EEEE9pop_pivotISt14priority_queueINS1_16diameter_entry_tESt6vectorIS9_SaIS9_EENS1_38greater_diameter_or_smaller_index_compIS9_EEEEES9_RT_
FN:394,_ZN2sb2ph4rips24compressed_sparse_matrixINS1_16diameter_entry_tEE9push_backES3_
FN:385,_ZNK2sb2ph4rips24compressed_sparse_matrixINS1_16diameter_entry_tEE4sizeEv
FN:626,_ZN2sb2ph4rips6ripserINS1_26compressed_distance_matrixILNS1_24compressed_matrix_layoutE0EEEE26assemble_columns_to_reduceERSt6vectorISt4pairIdlESaIS9_EESC_RSt13unordered_mapIlmNS6_10entry_hashENS6_11equal_indexESaIS8_IKlmEEEl
FN:619,_ZN2sb2ph4rips6ripserINS1_26compressed_distance_matrixILNS1_24compressed_matrix_layoutE0EEEE24is_in_zero_apparent_pairENS1_16diameter_entry_tEl
FN:541,_ZN2sb2ph4rips6ripserINS1_26compressed_distance_matrixILNS1_24compressed_matrix_layoutE0EEEE13get_intervalsEm
FN:249,_ZN2sb2ph4rips26compressed_distance_matrixILNS1_24compressed_matrix_layoutE0EEC2INS_14DistanceMatrixIfEEEERKT_
FN:249,_ZN2sb2ph4rips26compressed_distance_matrixILNS1_24compressed_matrix_layoutE0EEC2INS_14DistanceMatrixIdEEEERKT_
FN:297,_ZN2sb2ph4rips22sparse_distance_matrixC2EOSt6vectorIS3_ISt4pairIldESaIS5_EESaIS7_EEl
FN:314,_ZNK2sb2ph4rips22sparse_distance_matrixclEll
FN:322,_ZNK2sb2ph4rips22sparse_distance_matrix4sizeEv
FN:140,_ZN2sb2ph4rips8is_primeEt
FN:190,_ZN2sb2ph4rips9get_entryERKl
FN:197,_ZN2sb2ph4rips9get_indexERKSt4pairIldE
FN:198,_ZN2sb2ph4rips12get_diameterERKSt4pairIldE
FN:272,_ZN2sb2ph4rips26compressed_distance_matrixILNS1_24compressed_matrix_layoutE1EE9init_rowsEv
FN:286,_ZNK2sb2ph4rips26compressed_distance_matrixILNS1_24compressed_matrix_layoutE1EEclEll
FN:1038,_ZN2sb2ph4rips6ripserINS1_22sparse_distance_matrixEE9get_edgesEv
FN:257,_ZNK2sb2ph4rips26compressed_distance_matrixILNS1_24compressed_matrix_layoutE1EE4sizeEv
FN:549,_ZNK2sb2ph4rips6ripserINS1_22sparse_distance_matrixEE14get_edge_indexEll
FNDA:0,_ZN2sb2ph4rips29simplex_coboundary_enumeratorINS1_26compressed_distance_matrixILNS1_24compressed_matrix_layoutE0EEEEC2ENS1_16diameter_entry_tElRKNS1_6ripserIS5_EE
FNDA:459,_ZN2sb2ph4rips29simplex_coboundary_enumeratorINS1_26compressed_distance_matrixILNS1_24compressed_matrix_layoutE0EEEEC2ERKNS1_6ripserIS5_EE
FNDA:4207,_ZN2sb2ph4rips29simplex_coboundary_enumeratorINS1_26compressed_distance_matrixILNS1_24compressed_matrix_layoutE0EEEE11set_simplexENS1_16diameter_entry_tEl
FNDA:15646,_ZN2sb2ph4rips29simplex_coboundary_enumeratorINS1_26compressed_distance_matrixILNS1_24compressed_matrix_layoutE0EEEE8has_nextEb
FNDA:14992,_ZN2sb2ph4rips29simplex_coboundary_enumeratorINS1_26compressed_distance_matrixILNS1_24compressed_matrix_layoutE0EEEE4nextEv
FNDA:28936,_ZN2sb2ph4rips9get_indexERKNS1_16diameter_entry_tE
FNDA:29173,_ZN2sb2ph4rips9get_indexERKl
FNDA:49564,_ZN2sb2ph4rips9get_entryERKNS1_16diameter_entry_tE
FNDA:164077,_ZNK2sb2ph4rips20binomial_coeff_tableclEll
FNDA:64586,_ZN2sb2ph4rips12get_diameterERKNS1_16diameter_entry_tE
FNDA:44304,_ZNK2sb2ph4rips26compressed_distance_matrixILNS1_24compressed_matrix_layoutE0EEclEll
FNDA:21308,_ZN2sb2ph4rips15get_coefficientERKNS1_16diameter_entry_tE
FNDA:21343,_ZN2sb2ph4rips15get_coefficientERKl
FNDA:22398,_ZN2sb2ph4rips16diameter_entry_tC2Edlt
FNDA:25759,_ZN2sb2ph4rips10make_entryElt
FNDA:21241,_ZNK2sb2ph4rips6ripserINS1_26compressed_distance_matrixILNS1_24compressed_matrix_layoutE0EEEE20get_simplex_verticesISt16reverse_iteratorIN9__gnu_cxx17__normal_iteratorIPlSt6vectorIlSaIlEEEEEEET_lllSH_
FNDA:28087,_ZNK2sb2ph4rips6ripserINS1_26compressed_distance_matrixILNS1_24compressed_matrix_layoutE0EEEE14get_max_vertexElll
FNDA:28006,_ZN2sb2ph4rips7get_maxIZNKS1_6ripserINS1_26compressed_distance_matrixILNS1_24compressed_matrix_layoutE0EEEE14get_max_vertexElllEUllE_EElllT_
FNDA:93420,_ZZNK2sb2ph4rips6ripserINS1_26compressed_distance_matrixILNS1_24compressed_matrix_layoutE0EEEE14get_max_vertexElllENKUllE_clEl
FNDA:147,_ZN2sb2ph4rips25euclidean_distance_matrixC2EOSt6vectorIS3_IdSaIdEESaIS5_EE
FNDA:20117,_ZNK2sb2ph4rips25euclidean_distance_matrixclEll
FNDA:91263,_ZZNK2sb2ph4rips25euclidean_distance_matrixclEllENKUlddE_clEdd
FNDA:142,_ZN2sb2ph4rips26compressed_distance_matrixILNS1_24compressed_matrix_layoutE0EEC2INS1_25euclidean_distance_matrixEEERKT_
FNDA:426,_ZNK2sb2ph4rips25euclidean_distance_matrix4sizeEv
FNDA:150,_ZN2sb2ph4rips26compressed_distance_matrixILNS1_24compressed_matrix_layoutE0EE9init_rowsEv
FNDA:15735,_ZNK2sb2ph4rips26compressed_distance_matrixILNS1_24compressed_matrix_layoutE0EE4sizeEv
FNDA:150,_ZN2sb2ph4rips6ripserINS1_26compressed_distance_matrixILNS1_24compressed_matrix_layoutE0EEEEC2EOS5_ldft
FNDA:150,_ZN2sb2ph4rips20binomial_coeff_tableC2Ell
FNDA:1584,_ZN2sb2ph4rips14check_overflowEl
FNDA:150,_ZN2sb2ph4rips29multiplicative_inverse_vectorEt
FNDA:150,_ZN2sb2ph4rips6ripserINS1_26compressed_distance_matrixILNS1_24compressed_matrix_layoutE0EEEE27simplex_boundary_enumeratorC2ElRKS6_
FNDA:1378,_ZN2sb2ph4rips16diameter_entry_tC2ERKl
FNDA:150,_ZN2sb2ph4rips6ripserINS1_26compressed_distance_matrixILNS1_24compressed_matrix_layoutE0EEEE27simplex_boundary_enumeratorC2ENS1_16diameter_entry_tElRKS6_
FNDA:150,_ZN2sb2ph4rips6ripserINS1_26compressed_distance_matrixILNS1_24compressed_matrix_layoutE0EEEE16compute_barcodesEv
FNDA:150,_ZN2sb2ph4rips6ripserINS1_26compressed_distance_matrixILNS1_24compressed_matrix_layoutE0EEEE19compute_dim_0_pairsERSt6vectorISt4pairIdlESaIS9_EESC_
FNDA:150,_ZN2sb2ph4rips10union_findC2El
FNDA:150,_ZN2sb2ph4rips6ripserINS1_26compressed_distance_matrixILNS1_24compressed_matrix_layoutE0EEEE9get_edgesEv
FNDA:26203,_ZN2sb2ph4rips33greater_diameter_or_smaller_indexISt4pairIdlEEEbRKT_S7_
FNDA:8083,_ZN2sb2ph4rips9get_indexERKSt4pairIdlE
FNDA:11495,_ZN2sb2ph4rips10union_find4findEl
FNDA:74867,_ZN2sb2ph4rips12get_diameterERKSt4pairIdlE
FNDA:1285,_ZN2sb2ph4rips10union_find4linkEll
FNDA:3400,_ZN2sb2ph4rips6ripserINS1_26compressed_distance_matrixILNS1_24compressed_matrix_layoutE0EEEE25get_zero_apparent_cofacetENS1_16diameter_entry_tEl
FNDA:3767,_ZN2sb2ph4rips6ripserINS1_26compressed_distance_matrixILNS1_24compressed_matrix_layoutE0EEEE22get_zero_pivot_cofacetENS1_16diameter_entry_tEl
FNDA:3589,_ZN2sb2ph4rips6ripserINS1_26compressed_distance_matrixILNS1_24compressed_matrix_layoutE0EEEE20get_zero_pivot_facetENS1_16diameter_entry_tEl
FNDA:3589,_ZN2sb2ph4rips6ripserINS1_26compressed_distance_matrixILNS1_24compressed_matrix_layoutE0EEEE27simplex_boundary_enumerator11set_simplexENS1_16diameter_entry_tEl
FNDA:6208,_ZN2sb2ph4rips6ripserINS1_26compressed_distance_matrixILNS1_24compressed_matrix_layoutE0EEEE27simplex_boundary_enumerator8has_nextEv
FNDA:6212,_ZN2sb2ph4rips6ripserINS1_26compressed_distance_matrixILNS1_24compressed_matrix_layoutE0EEEE27simplex_boundary_enumerator4nextEv
FNDA:6189,_ZNK2sb2ph4rips6ripserINS1_26compressed_distance_matrixILNS1_24compressed_matrix_layoutE0EEEE16compute_diameterEll
FNDA:3184,_ZN2sb2ph4rips16diameter_entry_tC2ERKSt4pairIdlE
FNDA:157,_ZN2sb2ph4rips6ripserINS1_26compressed_distance_matrixILNS1_24compressed_matrix_layoutE0EEEE13compute_pairsERKSt6vectorISt4pairIdlESaIS9_EERSt13unordered_mapIlmNS6_10entry_hashENS6_11equal_indexESaIS8_IKlmEEEl
FNDA:339,_ZN2sb2ph4rips16diameter_entry_tC2ERKSt4pairIdlEt
FNDA:144,_ZN2sb2ph4rips24compressed_sparse_matrixINS1_16diameter_entry_tEE13append_columnEv
FNDA:144,_ZN2sb2ph4rips6ripserINS1_26compressed_distance_matrixILNS1_24compressed_matrix_layoutE0EEEE29init_coboundary_and_get_pivotISt14priority_queueINS1_16diameter_entry_tESt6vectorIS9_SaIS9_EENS1_38greater_diameter_or_smaller_index_compIS9_EEEEES9_S9_RT_RKlRSt13unordered_mapIlmNS6_10entry_hashENS6_11equal_indexESaISt4pairISI_mEEE
FNDA:3205,_ZN2sb2ph4rips38greater_diameter_or_smaller_index_compINS1_16diameter_entry_tEEclERKS3_S6_
FNDA:3205,_ZN2sb2ph4rips33greater_diameter_or_smaller_indexINS1_16diameter_entry_tEEEbRKT_S6_
FNDA:10,_ZNK2sb2ph4rips6ripserINS1_26compressed_distance_matrixILNS1_24compressed_matrix_layoutE0EEEE11equal_indexclERKlS9_
FNDA:223,_ZNK2sb2ph4rips6ripserINS1_26compressed_distance_matrixILNS1_24compressed_matrix_layoutE0EEEE10entry_hashclERKl
FNDA:508,_ZN2sb2ph4rips9get_entryERNS1_16diameter_entry_tE
FNDA:2,_ZN2sb2ph4rips6ripserINS1_26compressed_distance_matrixILNS1_24compressed_matrix_layoutE0EEEE14add_coboundaryISt14priority_queueINS1_16diameter_entry_tESt6vectorIS9_SaIS9_EENS1_38greater_diameter_or_smaller_index_compIS9_EEEEEvRNS1_24compressed_sparse_matrixIS9_EERKSA_ISt4pairIdlESaISK_EEmtRKmRT_SS_
FNDA:2,_ZN2sb2ph4rips24compressed_sparse_matrixINS1_16diameter_entry_tEE8subrangeEl
FNDA:2,_ZN2sb2ph4rips5beginIN9__gnu_cxx17__normal_iteratorIPNS1_16diameter_entry_tESt6vectorIS5_SaIS5_EEEEEET_RSt4pairISB_SB_E
FNDA:2,_ZN2sb2ph4rips3endIN9__gnu_cxx17__normal_iteratorIPNS1_16diameter_entry_tESt6vectorIS5_SaIS5_EEEEEET_RSt4pairISB_SB_E
FNDA:242,_ZN2sb2ph4rips6ripserINS1_26compressed_distance_matrixILNS1_24compressed_matrix_layoutE0EEEE9get_pivotISt14priority_queueINS1_16diameter_entry_tESt6vectorIS9_SaIS9_EENS1_38greater_diameter_or_smaller_index_compIS9_EEEEES9_RT_
FNDA:366,_ZN2sb2ph4rips6ripserINS1_26compressed_distance_matrixILNS1_24compressed_matrix_layoutE0EEEE23get_zero_apparent_facetENS1_16diameter_entry_tEl
FNDA:102,_ZN2sb2ph4rips15set_coefficientERNS1_16diameter_entry_tEt
FNDA:102,_ZN2sb2ph4rips15set_coefficientERlt
FNDA:104,_ZN2sb2ph4rips6ripserINS1_26compressed_distance_matrixILNS1_24compressed_matrix_layoutE0EEEE22add_simplex_coboundaryISt14priority_queueINS1_16diameter_entry_tESt6vectorIS9_SaIS9_EENS1_38greater_diameter_or_smaller_index_compIS9_EEEEEvS9_RKlRT_SJ_
FNDA:486,_ZN2sb2ph4rips6ripserINS1_26compressed_distance_matrixILNS1_24compressed_matrix_layoutE0EEEE9pop_pivotISt14priority_queueINS1_16diameter_entry_tESt6vectorIS9_SaIS9_EENS1_38greater_diameter_or_smaller_index_compIS9_EEEEES9_RT_
FNDA:100,_ZN2sb2ph4rips24compressed_sparse_matrixINS1_16diameter_entry_tEE9push_backES3_
FNDA:100,_ZNK2sb2ph4rips24compressed_sparse_matrixINS1_16diameter_entry_tEE4sizeEv
FNDA:9,_ZN2sb2ph4rips6ripserINS1_26compressed_distance_matrixILNS1_24compressed_matrix_layoutE0EEEE26assemble_columns_to_reduceERSt6vectorISt4pairIdlESaIS9_EESC_RSt13unordered_mapIlmNS6_10entry_hashENS6_11equal_indexESaIS8_IKlmEEEl
FNDA:216,_ZN2sb2ph4rips6ripserINS1_26compressed_distance_matrixILNS1_24compressed_matrix_layoutE0EEEE24is_in_zero_apparent_pairENS1_16diameter_entry_tEl
FNDA:308,_ZN2sb2ph4rips6ripserINS1_26compressed_distance_matrixILNS1_24compressed_matrix_layoutE0EEEE13get_intervalsEm
FNDA:1,_ZN2sb2ph4rips26compressed_distance_matrixILNS1_24compressed_matrix_layoutE0EEC2INS_14DistanceMatrixIfEEEERKT_
FNDA:7,_ZN2sb2ph4rips26compressed_distance_matrixILNS1_24compressed_matrix_layoutE0EEC2INS_14DistanceMatrixIdEEEERKT_
FNDA:0,_ZN2sb2ph4rips22sparse_distance_matrixC2EOSt6vectorIS3_ISt4pairIldESaIS5_EESaIS7_EEl
FNDA:0,_ZNK2sb2ph4rips22sparse_distance_matrixclEll
FNDA:0,_ZNK2sb2ph4rips22sparse_distance_matrix4sizeEv
FNDA:0,_ZN2sb2ph4rips8is_primeEt
FNDA:0,_ZN2sb2ph4rips9get_entryERKl
FNDA:0,_ZN2sb2ph4rips9get_indexERKSt4pairIldE
FNDA:0,_ZN2sb2ph4rips12get_diameterERKSt4pairIldE
FNDA:0,_ZN2sb2ph4rips26compressed_distance_matrixILNS1_24compressed_matrix_layoutE1EE9init_rowsEv
FNDA:0,_ZNK2sb2ph4rips26compressed_distance_matrixILNS1_24compressed_matrix_layoutE1EEclEll
FNDA:0,_ZN2sb2ph4rips6ripserINS1_22sparse_distance_matrixEE9get_edgesEv
FNDA:0,_ZNK2sb2ph4rips26compressed_distance_matrixILNS1_24compressed_matrix_layoutE1EE4sizeEv
FNDA:0,_ZNK2sb2ph4rips6ripserINS1_22sparse_distance_matrixEE14get_edge_indexEll
FNF:84
FNH:72
DA:101,1584
DA:102,1584
DA:106,1584
DA:107,0
DA:108,0
DA:109,0
DA:110,0
DA:111,1584
DA:118,150
DA:119,1734
DA:120,1584
DA:121,5007
DA:122,3423
DA:123,1584
DA:124,1584
DA:125,1584
DA:126,150
DA:128,164077
DA:134,164077
DA:136,161027
DA:137,164077
DA:140,0
DA:141,0
DA:142,0
DA:143,0
DA:144,0
DA:145,0
DA:147,150
DA:148,150
DA:149,150
DA:153,150
DA:154,150
DA:155,150
DA:183,29173
DA:184,21343
DA:185,25759
DA:186,102
DA:190,0
DA:193,74867
DA:194,8083
DA:197,0
DA:198,0
DA:203,22398
DA:205,339
DA:206,339
DA:208,3184
DA:209,3184
DA:210,1378
DA:213,49564
DA:214,508
DA:215,28936
DA:216,21308
DA:217,21308
DA:218,21308
DA:219,64586
DA:220,102
DA:221,102
DA:222,102
DA:225,3205
DA:226,3205
DA:227,3205
DA:230,29408
DA:231,29408
DA:232,29408
DA:233,29408
DA:249,150
DA:250,150
DA:252,1433
DA:253,7688
DA:254,150
DA:257,15735
DA:264,150
DA:265,150
DA:266,1435
DA:267,1285
DA:268,1285
DA:269,1285
DA:270,150
DA:272,0
DA:273,0
DA:274,0
DA:275,0
DA:276,0
DA:277,0
DA:278,0
DA:281,44304
DA:282,44304
DA:283,44304
DA:286,0
DA:287,0
DA:288,0
DA:297,0
DA:314,0
DA:315,0
DA:316,0
DA:317,0
DA:318,0
DA:319,0
DA:320,0
DA:322,0
DA:329,147
DA:330,1392
DA:331,147
DA:333,20117
DA:334,20117
DA:335,20117
DA:336,19894
DA:337,19894
DA:338,91263
DA:339,20086
DA:341,426
DA:349,150
DA:350,1574
DA:351,150
DA:353,11495
DA:354,11495
DA:355,18371
DA:356,11910
DA:357,415
DA:358,415
DA:359,415
DA:360,11495
DA:361,11495
DA:363,1285
DA:364,1285
DA:365,1285
DA:366,380
DA:367,905
DA:368,905
DA:369,905
DA:370,905
DA:371,1285
DA:374,2
DA:375,2
DA:385,100
DA:387,2
DA:388,2
DA:389,2
DA:390,2
DA:392,144
DA:394,100
DA:395,100
DA:396,100
DA:397,100
DA:398,100
DA:402,28006
DA:403,28006
DA:404,22221
DA:405,89667
DA:406,67446
DA:407,67446
DA:408,29349
DA:409,29349
DA:410,29349
DA:411,38097
DA:412,67446
DA:413,22221
DA:414,28006
DA:415,28006
DA:466,150
DA:467,150
DA:468,150
DA:471,150
DA:473,3589
DA:474,3589
DA:475,3589
DA:476,3589
DA:477,3589
DA:478,3589
DA:479,3589
DA:480,3589
DA:482,6208
DA:484,6212
DA:485,6212
DA:487,6212
DA:489,6212
DA:491,6212
DA:492,6212
DA:494,6212
DA:495,6212
DA:497,6212
DA:499,6212
DA:500,6212
DA:509,223
DA:513,10
DA:514,10
DA:515,10
DA:523,150
DA:524,150
DA:525,150
DA:526,150
DA:527,150
DA:528,150
DA:529,150
DA:530,150
DA:531,150
DA:532,150
DA:533,150
DA:541,308
DA:542,308
DA:543,308
DA:545,28087
DA:546,93420
DA:547,28087
DA:549,0
DA:550,0
DA:551,0
DA:555,21241
DA:556,21241
DA:557,43322
DA:558,22081
DA:559,22081
DA:560,22081
DA:561,22081
DA:562,21241
DA:563,21241
DA:564,21241
DA:566,6189
DA:567,6189
DA:569,6189
DA:570,6189
DA:572,19007
DA:573,19886
DA:574,7068
DA:575,7068
DA:576,6189
DA:577,6189
DA:581,3589
DA:584,3589
DA:585,6215
DA:586,6211
DA:587,6211
DA:588,6211
DA:589,4
DA:590,3589
DA:592,3767
DA:595,3767
DA:596,12907
DA:597,12729
DA:598,12729
DA:599,12729
DA:600,178
DA:601,3767
DA:603,366
DA:604,366
DA:605,366
DA:606,366
DA:607,366
DA:608,366
DA:609,366
DA:611,3400
DA:612,3400
DA:613,3400
DA:614,3400
DA:615,3400
DA:616,3400
DA:617,3400
DA:619,216
DA:620,216
DA:621,216
DA:622,216
DA:626,9
DA:633,9
DA:634,9
DA:636,9
DA:638,193
DA:639,193
DA:641,598
DA:650,405
DA:651,405
DA:652,216
DA:653,216
DA:654,216
DA:655,4
DA:656,216
DA:657,405
DA:658,193
DA:660,9
DA:667,9
DA:668,9
DA:672,9
DA:675,150
DA:679,150
DA:680,150
DA:681,150
DA:682,150
DA:683,150
DA:684,150
DA:685,4469
DA:686,4469
DA:687,4469
DA:689,4469
DA:690,1284
DA:691,1284
DA:692,1279
DA:696,1279
DA:697,1279
DA:699,1284
DA:700,3187
DA:701,140
DA:702,4469
DA:703,150
DA:709,150
DA:711,486
DA:712,486
DA:726,599
DA:727,455
DA:728,455
DA:729,455
DA:730,113
DA:731,113
DA:732,144
DA:733,486
DA:734,486
DA:736,242
DA:737,242
DA:738,242
DA:739,242
DA:740,242
DA:745,144
DA:748,144
DA:749,144
DA:750,144
DA:751,1263
DA:752,1123
DA:753,1123
DA:754,609
DA:755,609
DA:756,4
DA:757,4
DA:758,4
DA:759,0
DA:760,0
DA:761,609
DA:762,1123
DA:763,597
DA:764,140
DA:765,144
DA:769,104
DA:772,104
DA:773,104
DA:774,948
DA:775,844
DA:776,844
DA:777,844
DA:778,104
DA:785,2
DA:786,2
DA:787,2
DA:789,2
DA:790,2
DA:791,2
DA:792,2
DA:793,2
DA:796,157
DA:802,157
DA:807,301
DA:808,157
DA:810,144
DA:811,144
DA:813,144
DA:815,144
DA:816,144
DA:817,144
DA:819,144
DA:820,144
DA:822,246
DA:831,246
DA:832,246
DA:833,246
DA:834,2
DA:835,2
DA:836,2
DA:837,2
DA:838,2
DA:839,2
DA:841,2
DA:842,2
DA:844,2
DA:845,244
DA:846,100
DA:848,100
DA:850,100
DA:851,144
DA:853,144
DA:862,144
DA:863,140
DA:865,144
DA:867,244
DA:868,244
DA:869,244
DA:870,244
DA:871,100
DA:872,100
DA:873,144
DA:874,144
DA:875,246
DA:882,0
DA:883,0
DA:884,0
DA:885,246
DA:886,144
DA:890,157
DA:894,150
DA:895,150
DA:897,150
DA:899,307
DA:900,157
DA:901,157
DA:903,157
DA:905,157
DA:906,9
DA:907,9
DA:908,157
DA:909,150
DA:915,0
DA:916,0
DA:917,0
DA:918,0
DA:919,0
DA:922,459
DA:923,459
DA:925,4207
DA:926,4207
DA:927,4207
DA:928,4207
DA:929,4207
DA:930,4207
DA:931,4207
DA:932,4207
DA:933,4207
DA:935,15646
DA:936,15646
DA:937,15646
DA:939,14992
DA:940,18404
DA:941,3417
DA:942,3417
DA:943,3417
DA:944,3417
DA:945,3417
DA:946,3417
DA:947,14987
DA:948,31147
DA:949,14987
DA:950,14987
DA:951,14987
DA:952,14987
DA:953,14992
DA:1027,150
DA:1028,150
DA:1029,150
DA:1030,6569
DA:1031,6419
DA:1032,6419
DA:1033,6419
DA:1034,6419
DA:1035,150
DA:1036,150
DA:1038,0
DA:1039,0
DA:1040,0
DA:1041,0
DA:1042,0
DA:1043,0
DA:1044,0
DA:1045,0
DA:1046,0
BRDA:106,0,0,0
BRDA:106,0,1,1584
BRDA:119,0,0,1584
BRDA:119,0,1,150
BRDA:121,0,0,3423
BRDA:121,0,1,1584
BRDA:123,0,0,607
BRDA:123,0,1,977
BRDA:134,0,0,482280
BRDA:134,0,1,5311
BRDA:153,0,0,0
BRDA:153,0,1,150
BRDA:231,0,0,17886
BRDA:231,0,1,11522
BRDA:232,0,0,503
BRDA:232,0,1,11019
BRDA:232,1,2,134
BRDA:232,1,3,369
BRDA:252,0,0,1283
BRDA:252,0,1,150
BRDA:253,0,0,6405
BRDA:253,0,1,1283
BRDA:266,0,0,1285
BRDA:266,0,1,150
BRDA:282,0,0,0
BRDA:282,0,1,44304
BRDA:282,1,2,17287
BRDA:282,1,3,27017
BRDA:330,0,0,1392
BRDA:330,0,1,148
BRDA:330,1,2,1393
BRDA:330,1,3,4294967295
BRDA:334,0,0,20086
BRDA:334,0,1,31
BRDA:335,0,0,19894
BRDA:335,0,1,192
BRDA:350,0,0,1424
BRDA:350,0,1,150
BRDA:355,0,0,6876
BRDA:355,0,1,11495
BRDA:356,0,0,415
BRDA:356,0,1,11495
BRDA:364,0,0,0
BRDA:364,0,1,1285
BRDA:365,0,0,380
BRDA:365,0,1,905
BRDA:369,0,0,514
BRDA:369,0,1,391
BRDA:388,0,0,2
BRDA:388,0,1,0
BRDA:395,0,0,100
BRDA:395,0,1,0
BRDA:403,0,0,22221
BRDA:403,0,1,5785
BRDA:405,0,0,67446
BRDA:405,0,1,22221
BRDA:407,0,0,29349
BRDA:407,0,1,38097
BRDA:492,0,0,2008
BRDA:492,0,1,4204
BRDA:557,0,0,22081
BRDA:557,0,1,21241
BRDA:572,0,0,12818
BRDA:572,0,1,6189
BRDA:573,0,0,7068
BRDA:573,0,1,12818
BRDA:585,0,0,6211
BRDA:585,0,1,4
BRDA:587,0,0,3585
BRDA:587,0,1,2626
BRDA:596,0,0,12729
BRDA:596,0,1,178
BRDA:598,0,0,3589
BRDA:598,0,1,9140
BRDA:605,0,0,366
BRDA:605,0,1,0
BRDA:606,0,0,206
BRDA:606,0,1,160
BRDA:613,0,0,3223
BRDA:613,0,1,177
BRDA:614,0,0,3143
BRDA:614,0,1,80
BRDA:620,0,0,98
BRDA:620,0,1,118
BRDA:621,0,0,106
BRDA:621,0,1,12
BRDA:638,0,0,193
BRDA:638,0,1,9
BRDA:641,0,0,405
BRDA:641,0,1,193
BRDA:651,0,0,216
BRDA:651,0,1,189
BRDA:652,0,0,75
BRDA:652,0,1,141
BRDA:653,0,0,16
BRDA:653,0,1,416
BRDA:654,0,0,4
BRDA:654,0,1,8
BRDA:660,0,0,2
BRDA:660,0,1,7
BRDA:685,0,0,4469
BRDA:685,0,1,150
BRDA:689,0,0,1284
BRDA:689,0,1,3185
BRDA:691,0,0,1279
BRDA:691,0,1,5
BRDA:700,0,0,3327
BRDA:700,0,1,3043
BRDA:700,1,2,140
BRDA:700,1,3,3047
BRDA:703,0,0,148
BRDA:703,0,1,2
BRDA:726,0,0,455
BRDA:726,0,1,144
BRDA:729,0,0,88
BRDA:729,0,1,367
BRDA:729,1,2,254
BRDA:729,1,3,113
BRDA:738,0,0,242
BRDA:738,0,1,0
BRDA:751,0,0,1123
BRDA:751,0,1,140
BRDA:753,0,0,609
BRDA:753,0,1,514
BRDA:755,0,0,609
BRDA:755,0,1,0
BRDA:755,1,2,4
BRDA:755,1,3,605
BRDA:756,0,0,8
BRDA:756,0,1,0
BRDA:757,0,0,4
BRDA:757,0,1,0
BRDA:763,0,0,597
BRDA:763,0,1,140
BRDA:774,0,0,844
BRDA:774,0,1,104
BRDA:776,0,0,476
BRDA:776,0,1,368
BRDA:789,0,0,2
BRDA:789,0,1,2
BRDA:807,0,0,144
BRDA:807,0,1,157
BRDA:822,0,0,246
BRDA:822,0,1,0
BRDA:831,0,0,246
BRDA:831,0,1,0
BRDA:833,0,0,2
BRDA:833,0,1,244
BRDA:845,0,0,100
BRDA:845,0,1,144
BRDA:862,0,0,140
BRDA:862,0,1,4
BRDA:867,0,0,244
BRDA:867,0,1,0
BRDA:869,0,0,144
BRDA:869,0,1,100
BRDA:870,0,0,100
BRDA:870,0,1,0
BRDA:899,0,0,157
BRDA:899,0,1,150
BRDA:905,0,0,9
BRDA:905,0,1,148
BRDA:917,0,0,-
BRDA:917,0,1,-
BRDA:936,0,0,15257
BRDA:936,0,1,389
BRDA:936,1,2,14667
BRDA:936,1,3,590
BRDA:936,2,4,405
BRDA:936,2,5,185
BRDA:940,0,0,3417
BRDA:940,0,1,14987
BRDA:945,0,0,3412
BRDA:945,0,1,5
BRDA:948,0,0,31147
BRDA:948,0,1,14987
BRDA:951,0,0,4833
BRDA:951,0,1,10154
BRDA:1030,0,0,6419
BRDA:1030,0,1,150
BRDA:1033,0,0,4463
BRDA:1033,0,1,1956
BRF:190
BRH:174
LF:470
LH:416
end_of_record
SF:/home/runner/work/stablebear/stablebear/include/sbear/persistence/stable_rank.hpp
FN:18,_ZN2sb2ph22barcode_to_stable_rankIfEENS_3PcfIT_S3_EERKNS0_7BarcodeIS3_EE
FN:27,_ZZN2sb2ph22barcode_to_stable_rankIfEENS_3PcfIT_S3_EERKNS0_7BarcodeIS3_EEENKUlRKNS0_15PersistencePairIfEEE_clESC_
FN:73,_ZN2sb2ph21make_stable_rank_taskIfEEDaRKNS_6TensorINS0_7BarcodeIT_EEEERNS2_INS_3PcfIS4_S4_EEEE
FN:18,_ZN2sb2ph22barcode_to_stable_rankIdEENS_3PcfIT_S3_EERKNS0_7BarcodeIS3_EE
FN:27,_ZZN2sb2ph22barcode_to_stable_rankIdEENS_3PcfIT_S3_EERKNS0_7BarcodeIS3_EEENKUlRKNS0_15PersistencePairIdEEE_clESC_
FN:73,_ZN2sb2ph21make_stable_rank_taskIdEEDaRKNS_6TensorINS0_7BarcodeIT_EEEERNS2_INS_3PcfIS4_S4_EEEE
FNDA:6,_ZN2sb2ph22barcode_to_stable_rankIfEENS_3PcfIT_S3_EERKNS0_7BarcodeIS3_EE
FNDA:6,_ZZN2sb2ph22barcode_to_stable_rankIfEENS_3PcfIT_S3_EERKNS0_7BarcodeIS3_EEENKUlRKNS0_15PersistencePairIfEEE_clESC_
FNDA:1,_ZN2sb2ph21make_stable_rank_taskIfEEDaRKNS_6TensorINS0_7BarcodeIT_EEEERNS2_INS_3PcfIS4_S4_EEEE
FNDA:440,_ZN2sb2ph22barcode_to_stable_rankIdEENS_3PcfIT_S3_EERKNS0_7BarcodeIS3_EE
FNDA:4291,_ZZN2sb2ph22barcode_to_stable_rankIdEENS_3PcfIT_S3_EERKNS0_7BarcodeIS3_EEENKUlRKNS0_15PersistencePairIdEEE_clESC_
FNDA:3,_ZN2sb2ph21make_stable_rank_taskIdEEDaRKNS_6TensorINS0_7BarcodeIT_EEEERNS2_INS_3PcfIS4_S4_EEEE
FNF:3
FNH:3
DA:18,446
DA:19,446
DA:20,4
DA:21,4
DA:22,4
DA:24,442
DA:25,442
DA:27,4297
DA:28,4297
DA:29,0
DA:30,0
DA:31,0
DA:33,4297
DA:34,4297
DA:36,442
DA:38,442
DA:39,442
DA:41,442
DA:43,442
DA:45,442
DA:47,442
DA:48,442
DA:49,4283
DA:50,4283
DA:51,0
DA:52,0
DA:53,0
DA:55,4283
DA:56,3803
DA:57,3803
DA:58,3803
DA:59,3803
DA:60,4283
DA:61,4283
DA:63,442
DA:64,435
DA:65,435
DA:66,435
DA:68,442
DA:69,446
DA:73,4
DA:74,4
DA:75,4
DA:76,4
DA:77,4
BRDA:19,0,0,4
BRDA:19,0,1,442
BRDA:28,0,0,0
BRDA:28,0,1,4297
BRDA:48,0,0,4283
BRDA:48,0,1,442
BRDA:50,0,0,0
BRDA:50,0,1,4283
BRDA:55,0,0,3803
BRDA:55,0,1,480
BRDA:63,0,0,435
BRDA:63,0,1,7
BRF:12
BRH:10
LF:52
LH:46
end_of_record
SF:/home/runner/work/stablebear/stablebear/include/sbear/point_process/poisson.hpp
FN:28,_ZN2sb2pp14sample_poissonIfNS_14Xoroshiro128ppEEEvRNS_6TensorINS3_IT_EEEEmS4_RKSt6vectorIS4_SaIS4_EESC_RNS_15RandomGeneratorIT0_EERNS_8ExecutorE
FN:70,_ZZN2sb2pp14sample_poissonIfNS_14Xoroshiro128ppEEEvRNS_6TensorINS3_IT_EEEEmS4_RKSt6vectorIS4_SaIS4_EESC_RNS_15RandomGeneratorIT0_EERNS_8ExecutorEENKUlRKS8_ImSaImEERS4_E_clIS2_EEDaSM_SN_
FN:28,_ZN2sb2pp14sample_poissonIdNS_14Xoroshiro128ppEEEvRNS_6TensorINS3_IT_EEEEmS4_RKSt6vectorIS4_SaIS4_EESC_RNS_15RandomGeneratorIT0_EERNS_8ExecutorE
FN:70,_ZZN2sb2pp14sample_poissonIdNS_14Xoroshiro128ppEEEvRNS_6TensorINS3_IT_EEEEmS4_RKSt6vectorIS4_SaIS4_EESC_RNS_15RandomGeneratorIT0_EERNS_8ExecutorEENKUlRKS8_ImSaImEERS4_E_clIS2_EEDaSM_SN_
FNDA:1,_ZN2sb2pp14sample_poissonIfNS_14Xoroshiro128ppEEEvRNS_6TensorINS3_IT_EEEEmS4_RKSt6vectorIS4_SaIS4_EESC_RNS_15RandomGeneratorIT0_EERNS_8ExecutorE
FNDA:3,_ZZN2sb2pp14sample_poissonIfNS_14Xoroshiro128ppEEEvRNS_6TensorINS3_IT_EEEEmS4_RKSt6vectorIS4_SaIS4_EESC_RNS_15RandomGeneratorIT0_EERNS_8ExecutorEENKUlRKS8_ImSaImEERS4_E_clIS2_EEDaSM_SN_
FNDA:22,_ZN2sb2pp14sample_poissonIdNS_14Xoroshiro128ppEEEvRNS_6TensorINS3_IT_EEEEmS4_RKSt6vectorIS4_SaIS4_EESC_RNS_15RandomGeneratorIT0_EERNS_8ExecutorE
FNDA:366,_ZZN2sb2pp14sample_poissonIdNS_14Xoroshiro128ppEEEvRNS_6TensorINS3_IT_EEEEmS4_RKSt6vectorIS4_SaIS4_EESC_RNS_15RandomGeneratorIT0_EERNS_8ExecutorEENKUlRKS8_ImSaImEERS4_E_clIS2_EEDaSM_SN_
FNF:2
FNH:2
DA:28,23
DA:29,23
DA:30,0
DA:31,0
DA:32,0
DA:34,23
DA:35,4
DA:36,4
DA:37,4
DA:39,47
DA:40,34
DA:41,34
DA:42,34
DA:43,4
DA:44,4
DA:45,4
DA:46,30
DA:47,2
DA:48,2
DA:49,2
DA:50,30
DA:52,13
DA:53,40
DA:54,27
DA:55,27
DA:56,27
DA:58,13
DA:64,13
DA:65,0
DA:66,0
DA:67,0
DA:68,0
DA:70,369
DA:72,369
DA:73,369
DA:75,369
DA:77,23226
DA:78,22857
DA:79,68456
DA:80,45599
DA:81,45599
DA:82,45599
DA:83,45599
DA:84,22857
DA:86,369
DA:87,369
DA:88,13
BRDA:29,0,0,0
BRDA:29,0,1,23
BRDA:29,1,2,0
BRDA:29,1,3,23
BRDA:34,0,0,3
BRDA:34,0,1,20
BRDA:34,1,2,1
BRDA:34,1,3,19
BRDA:39,0,0,34
BRDA:39,0,1,13
BRDA:41,0,0,2
BRDA:41,0,1,32
BRDA:42,0,0,2
BRDA:42,0,1,30
BRDA:46,0,0,2
BRDA:46,0,1,28
BRDA:53,0,0,27
BRDA:53,0,1,13
BRDA:64,0,0,0
BRDA:64,0,1,13
BRDA:77,0,0,22857
BRDA:77,0,1,369
BRDA:79,0,0,45599
BRDA:79,0,1,22857
BRF:24
BRH:21
LF:61
LH:54
end_of_record
SF:/home/runner/work/stablebear/stablebear/include/sbear/random.hpp
FN:19,py_random.cpp:_ZN2sb14noisy_functionIffZN12_GLOBAL__N_116PyRandomBindingsIffE9noisy_sinERNS_6TensorINS_3PcfIffEEEEmPNS_15RandomGeneratorINS_14Xoroshiro128ppEEEEUlfE_EEvRNS4_INS5_IT_T0_EEEEmT1_SF_RSB_
FN:31,py_random.cpp:_ZZN2sb14noisy_functionIffZN12_GLOBAL__N_116PyRandomBindingsIffE9noisy_sinERNS_6TensorINS_3PcfIffEEEEmPNS_15RandomGeneratorINS_14Xoroshiro128ppEEEEUlfE_EEvRNS4_INS5_IT_T0_EEEEmT1_SF_RSB_ENKUlRKSt6vectorImSaImEERSE_E_clISA_EEDaSP_SQ_
FN:39,py_random.cpp:_ZZZN2sb14noisy_functionIffZN12_GLOBAL__N_116PyRandomBindingsIffE9noisy_sinERNS_6TensorINS_3PcfIffEEEEmPNS_15RandomGeneratorINS_14Xoroshiro128ppEEEEUlfE_EEvRNS4_INS5_IT_T0_EEEEmT1_SF_RSB_ENKUlRKSt6vectorImSaImEERSE_E_clISA_EEDaSP_SQ_ENKUlvE_clEv
FN:40,py_random.cpp:_ZZZN2sb14noisy_functionIffZN12_GLOBAL__N_116PyRandomBindingsIffE9noisy_sinERNS_6TensorINS_3PcfIffEEEEmPNS_15RandomGeneratorINS_14Xoroshiro128ppEEEEUlfE_EEvRNS4_INS5_IT_T0_EEEEmT1_SF_RSB_ENKUlRKSt6vectorImSaImEERSE_E_clISA_EEDaSP_SQ_ENKUlvE0_clEv
FN:19,py_random.cpp:_ZN2sb14noisy_functionIffZN12_GLOBAL__N_116PyRandomBindingsIffE9noisy_cosERNS_6TensorINS_3PcfIffEEEEmPNS_15RandomGeneratorINS_14Xoroshiro128ppEEEEUlfE_EEvRNS4_INS5_IT_T0_EEEEmT1_SF_RSB_
FN:31,py_random.cpp:_ZZN2sb14noisy_functionIffZN12_GLOBAL__N_116PyRandomBindingsIffE9noisy_cosERNS_6TensorINS_3PcfIffEEEEmPNS_15RandomGeneratorINS_14Xoroshiro128ppEEEEUlfE_EEvRNS4_INS5_IT_T0_EEEEmT1_SF_RSB_ENKUlRKSt6vectorImSaImEERSE_E_clISA_EEDaSP_SQ_
FN:39,py_random.cpp:_ZZZN2sb14noisy_functionIffZN12_GLOBAL__N_116PyRandomBindingsIffE9noisy_cosERNS_6TensorINS_3PcfIffEEEEmPNS_15RandomGeneratorINS_14Xoroshiro128ppEEEEUlfE_EEvRNS4_INS5_IT_T0_EEEEmT1_SF_RSB_ENKUlRKSt6vectorImSaImEERSE_E_clISA_EEDaSP_SQ_ENKUlvE_clEv
FN:40,py_random.cpp:_ZZZN2sb14noisy_functionIffZN12_GLOBAL__N_116PyRandomBindingsIffE9noisy_cosERNS_6TensorINS_3PcfIffEEEEmPNS_15RandomGeneratorINS_14Xoroshiro128ppEEEEUlfE_EEvRNS4_INS5_IT_T0_EEEEmT1_SF_RSB_ENKUlRKSt6vectorImSaImEERSE_E_clISA_EEDaSP_SQ_ENKUlvE0_clEv
FN:19,py_random.cpp:_ZN2sb14noisy_functionIddZN12_GLOBAL__N_116PyRandomBindingsIddE9noisy_sinERNS_6TensorINS_3PcfIddEEEEmPNS_15RandomGeneratorINS_14Xoroshiro128ppEEEEUldE_EEvRNS4_INS5_IT_T0_EEEEmT1_SF_RSB_
FN:31,py_random.cpp:_ZZN2sb14noisy_functionIddZN12_GLOBAL__N_116PyRandomBindingsIddE9noisy_sinERNS_6TensorINS_3PcfIddEEEEmPNS_15RandomGeneratorINS_14Xoroshiro128ppEEEEUldE_EEvRNS4_INS5_IT_T0_EEEEmT1_SF_RSB_ENKUlRKSt6vectorImSaImEERSE_E_clISA_EEDaSP_SQ_
FN:39,py_random.cpp:_ZZZN2sb14noisy_functionIddZN12_GLOBAL__N_116PyRandomBindingsIddE9noisy_sinERNS_6TensorINS_3PcfIddEEEEmPNS_15RandomGeneratorINS_14Xoroshiro128ppEEEEUldE_EEvRNS4_INS5_IT_T0_EEEEmT1_SF_RSB_ENKUlRKSt6vectorImSaImEERSE_E_clISA_EEDaSP_SQ_ENKUlvE_clEv
FN:40,py_random.cpp:_ZZZN2sb14noisy_functionIddZN12_GLOBAL__N_116PyRandomBindingsIddE9noisy_sinERNS_6TensorINS_3PcfIddEEEEmPNS_15RandomGeneratorINS_14Xoroshiro128ppEEEEUldE_EEvRNS4_INS5_IT_T0_EEEEmT1_SF_RSB_ENKUlRKSt6vectorImSaImEERSE_E_clISA_EEDaSP_SQ_ENKUlvE0_clEv
FN:19,py_random.cpp:_ZN2sb14noisy_functionIddZN12_GLOBAL__N_116PyRandomBindingsIddE9noisy_cosERNS_6TensorINS_3PcfIddEEEEmPNS_15RandomGeneratorINS_14Xoroshiro128ppEEEEUldE_EEvRNS4_INS5_IT_T0_EEEEmT1_SF_RSB_
FN:31,py_random.cpp:_ZZN2sb14noisy_functionIddZN12_GLOBAL__N_116PyRandomBindingsIddE9noisy_cosERNS_6TensorINS_3PcfIddEEEEmPNS_15RandomGeneratorINS_14Xoroshiro128ppEEEEUldE_EEvRNS4_INS5_IT_T0_EEEEmT1_SF_RSB_ENKUlRKSt6vectorImSaImEERSE_E_clISA_EEDaSP_SQ_
FN:39,py_random.cpp:_ZZZN2sb14noisy_functionIddZN12_GLOBAL__N_116PyRandomBindingsIddE9noisy_cosERNS_6TensorINS_3PcfIddEEEEmPNS_15RandomGeneratorINS_14Xoroshiro128ppEEEEUldE_EEvRNS4_INS5_IT_T0_EEEEmT1_SF_RSB_ENKUlRKSt6vectorImSaImEERSE_E_clISA_EEDaSP_SQ_ENKUlvE_clEv
FN:40,py_random.cpp:_ZZZN2sb14noisy_functionIddZN12_GLOBAL__N_116PyRandomBindingsIddE9noisy_cosERNS_6TensorINS_3PcfIddEEEEmPNS_15RandomGeneratorINS_14Xoroshiro128ppEEEEUldE_EEvRNS4_INS5_IT_T0_EEEEmT1_SF_RSB_ENKUlRKSt6vectorImSaImEERSE_E_clISA_EEDaSP_SQ_ENKUlvE0_clEv
FNDA:36,py_random.cpp:_ZN2sb14noisy_functionIffZN12_GLOBAL__N_116PyRandomBindingsIffE9noisy_sinERNS_6TensorINS_3PcfIffEEEEmPNS_15RandomGeneratorINS_14Xoroshiro128ppEEEEUlfE_EEvRNS4_INS5_IT_T0_EEEEmT1_SF_RSB_
FNDA:1094,py_random.cpp:_ZZN2sb14noisy_functionIffZN12_GLOBAL__N_116PyRandomBindingsIffE9noisy_sinERNS_6TensorINS_3PcfIffEEEEmPNS_15RandomGeneratorINS_14Xoroshiro128ppEEEEUlfE_EEvRNS4_INS5_IT_T0_EEEEmT1_SF_RSB_ENKUlRKSt6vectorImSaImEERSE_E_clISA_EEDaSP_SQ_
FNDA:21103,py_random.cpp:_ZZZN2sb14noisy_functionIffZN12_GLOBAL__N_116PyRandomBindingsIffE9noisy_sinERNS_6TensorINS_3PcfIffEEEEmPNS_15RandomGeneratorINS_14Xoroshiro128ppEEEEUlfE_EEvRNS4_INS5_IT_T0_EEEEmT1_SF_RSB_ENKUlRKSt6vectorImSaImEERSE_E_clISA_EEDaSP_SQ_ENKUlvE_clEv
FNDA:21103,py_random.cpp:_ZZZN2sb14noisy_functionIffZN12_GLOBAL__N_116PyRandomBindingsIffE9noisy_sinERNS_6TensorINS_3PcfIffEEEEmPNS_15RandomGeneratorINS_14Xoroshiro128ppEEEEUlfE_EEvRNS4_INS5_IT_T0_EEEEmT1_SF_RSB_ENKUlRKSt6vectorImSaImEERSE_E_clISA_EEDaSP_SQ_ENKUlvE0_clEv
FNDA:5,py_random.cpp:_ZN2sb14noisy_functionIffZN12_GLOBAL__N_116PyRandomBindingsIffE9noisy_cosERNS_6TensorINS_3PcfIffEEEEmPNS_15RandomGeneratorINS_14Xoroshiro128ppEEEEUlfE_EEvRNS4_INS5_IT_T0_EEEEmT1_SF_RSB_
FNDA:32,py_random.cpp:_ZZN2sb14noisy_functionIffZN12_GLOBAL__N_116PyRandomBindingsIffE9noisy_cosERNS_6TensorINS_3PcfIffEEEEmPNS_15RandomGeneratorINS_14Xoroshiro128ppEEEEUlfE_EEvRNS4_INS5_IT_T0_EEEEmT1_SF_RSB_ENKUlRKSt6vectorImSaImEERSE_E_clISA_EEDaSP_SQ_
FNDA:583,py_random.cpp:_ZZZN2sb14noisy_functionIffZN12_GLOBAL__N_116PyRandomBindingsIffE9noisy_cosERNS_6TensorINS_3PcfIffEEEEmPNS_15RandomGeneratorINS_14Xoroshiro128ppEEEEUlfE_EEvRNS4_INS5_IT_T0_EEEEmT1_SF_RSB_ENKUlRKSt6vectorImSaImEERSE_E_clISA_EEDaSP_SQ_ENKUlvE_clEv
FNDA:583,py_random.cpp:_ZZZN2sb14noisy_functionIffZN12_GLOBAL__N_116PyRandomBindingsIffE9noisy_cosERNS_6TensorINS_3PcfIffEEEEmPNS_15RandomGeneratorINS_14Xoroshiro128ppEEEEUlfE_EEvRNS4_INS5_IT_T0_EEEEmT1_SF_RSB_ENKUlRKSt6vectorImSaImEERSE_E_clISA_EEDaSP_SQ_ENKUlvE0_clEv
FNDA:7,py_random.cpp:_ZN2sb14noisy_functionIddZN12_GLOBAL__N_116PyRandomBindingsIddE9noisy_sinERNS_6TensorINS_3PcfIddEEEEmPNS_15RandomGeneratorINS_14Xoroshiro128ppEEEEUldE_EEvRNS4_INS5_IT_T0_EEEEmT1_SF_RSB_
FNDA:57,py_random.cpp:_ZZN2sb14noisy_functionIddZN12_GLOBAL__N_116PyRandomBindingsIddE9noisy_sinERNS_6TensorINS_3PcfIddEEEEmPNS_15RandomGeneratorINS_14Xoroshiro128ppEEEEUldE_EEvRNS4_INS5_IT_T0_EEEEmT1_SF_RSB_ENKUlRKSt6vectorImSaImEERSE_E_clISA_EEDaSP_SQ_
FNDA:1140,py_random.cpp:_ZZZN2sb14noisy_functionIddZN12_GLOBAL__N_116PyRandomBindingsIddE9noisy_sinERNS_6TensorINS_3PcfIddEEEEmPNS_15RandomGeneratorINS_14Xoroshiro128ppEEEEUldE_EEvRNS4_INS5_IT_T0_EEEEmT1_SF_RSB_ENKUlRKSt6vectorImSaImEERSE_E_clISA_EEDaSP_SQ_ENKUlvE_clEv
FNDA:1140,py_random.cpp:_ZZZN2sb14noisy_functionIddZN12_GLOBAL__N_116PyRandomBindingsIddE9noisy_sinERNS_6TensorINS_3PcfIddEEEEmPNS_15RandomGeneratorINS_14Xoroshiro128ppEEEEUldE_EEvRNS4_INS5_IT_T0_EEEEmT1_SF_RSB_ENKUlRKSt6vectorImSaImEERSE_E_clISA_EEDaSP_SQ_ENKUlvE0_clEv
FNDA:1,py_random.cpp:_ZN2sb14noisy_functionIddZN12_GLOBAL__N_116PyRandomBindingsIddE9noisy_cosERNS_6TensorINS_3PcfIddEEEEmPNS_15RandomGeneratorINS_14Xoroshiro128ppEEEEUldE_EEvRNS4_INS5_IT_T0_EEEEmT1_SF_RSB_
FNDA:3,py_random.cpp:_ZZN2sb14noisy_functionIddZN12_GLOBAL__N_116PyRandomBindingsIddE9noisy_cosERNS_6TensorINS_3PcfIddEEEEmPNS_15RandomGeneratorINS_14Xoroshiro128ppEEEEUldE_EEvRNS4_INS5_IT_T0_EEEEmT1_SF_RSB_ENKUlRKSt6vectorImSaImEERSE_E_clISA_EEDaSP_SQ_
FNDA:60,py_random.cpp:_ZZZN2sb14noisy_functionIddZN12_GLOBAL__N_116PyRandomBindingsIddE9noisy_cosERNS_6TensorINS_3PcfIddEEEEmPNS_15RandomGeneratorINS_14Xoroshiro128ppEEEEUldE_EEvRNS4_INS5_IT_T0_EEEEmT1_SF_RSB_ENKUlRKSt6vectorImSaImEERSE_E_clISA_EEDaSP_SQ_ENKUlvE_clEv
FNDA:60,py_random.cpp:_ZZZN2sb14noisy_functionIddZN12_GLOBAL__N_116PyRandomBindingsIddE9noisy_cosERNS_6TensorINS_3PcfIddEEEEmPNS_15RandomGeneratorINS_14Xoroshiro128ppEEEEUldE_EEvRNS4_INS5_IT_T0_EEEEmT1_SF_RSB_ENKUlRKSt6vectorImSaImEERSE_E_clISA_EEDaSP_SQ_ENKUlvE0_clEv
FNF:4
FNH:4
DA:19,49
DA:20,49
DA:21,49
DA:26,49
DA:27,2
DA:28,2
DA:29,2
DA:31,1186
DA:33,1186
DA:34,1186
DA:36,1186
DA:37,1186
DA:39,22886
DA:40,22886
DA:42,1186
DA:43,1186
DA:45,1186
DA:46,1186
DA:47,24072
DA:48,22886
DA:49,22886
DA:50,22886
DA:51,22886
DA:53,1186
DA:55,1186
DA:56,1186
DA:57,47
BRDA:26,0,0,2
BRDA:26,0,1,47
BRDA:47,0,0,22886
BRDA:47,0,1,1186
BRF:4
BRH:4
LF:48
LH:48
end_of_record
SF:/home/runner/work/stablebear/stablebear/include/sbear/random_generator.hpp
FN:16,_ZN2sb6detail10splitmix64Em
FN:56,_ZN2sb6detail11make_engineINS_14Xoroshiro128ppEEET_m
FN:123,_ZN2sb17default_generatorEv
FN:129,_ZN2sb4seedEm
FN:99,_ZN2sb15RandomGeneratorINS_14Xoroshiro128ppEE4seedEm
FN:87,_ZN2sb15RandomGeneratorINS_14Xoroshiro128ppEEC2Ev
FN:93,_ZN2sb15RandomGeneratorINS_14Xoroshiro128ppEEC2Em
FN:109,_ZN2sb15RandomGeneratorINS_14Xoroshiro128ppEE7reserveEm
FN:75,_ZN2sb15RandomGeneratorINS_14Xoroshiro128ppEE5BlockC2Em
FN:78,_ZNK2sb15RandomGeneratorINS_14Xoroshiro128ppEE5Block13sub_generatorEm
FNDA:9458,_ZN2sb6detail10splitmix64Em
FNDA:4810,_ZN2sb6detail11make_engineINS_14Xoroshiro128ppEEET_m
FNDA:41,_ZN2sb17default_generatorEv
FNDA:7,_ZN2sb4seedEm
FNDA:9,_ZN2sb15RandomGeneratorINS_14Xoroshiro128ppEE4seedEm
FNDA:1,_ZN2sb15RandomGeneratorINS_14Xoroshiro128ppEEC2Ev
FNDA:45,_ZN2sb15RandomGeneratorINS_14Xoroshiro128ppEEC2Em
FNDA:78,_ZN2sb15RandomGeneratorINS_14Xoroshiro128ppEE7reserveEm
FNDA:78,_ZN2sb15RandomGeneratorINS_14Xoroshiro128ppEE5BlockC2Em
FNDA:4808,_ZNK2sb15RandomGeneratorINS_14Xoroshiro128ppEE5Block13sub_generatorEm
FNF:10
FNH:10
DA:16,9458
DA:40,9458
DA:41,9458
DA:42,9458
DA:43,9458
DA:44,9458
DA:56,4810
DA:57,4810
DA:58,4810
DA:59,4810
DA:60,4810
DA:75,78
DA:78,4808
DA:79,4808
DA:80,4808
DA:87,1
DA:88,1
DA:89,1
DA:90,1
DA:93,45
DA:94,45
DA:95,45
DA:96,45
DA:99,9
DA:100,9
DA:101,9
DA:102,9
DA:109,78
DA:110,78
DA:111,78
DA:112,78
DA:113,78
DA:123,41
DA:124,41
DA:125,41
DA:126,41
DA:129,7
DA:130,7
DA:131,7
BRF:0
BRH:0
LF:39
LH:39
end_of_record
SF:/home/runner/work/stablebear/stablebear/include/sbear/settings.hpp
FN:26,_ZN2sb8settingsEv
FNDA:158,_ZN2sb8settingsEv
FNF:1
FNH:1
DA:26,158
DA:27,158
DA:28,158
DA:29,158
BRF:0
BRH:0
LF:4
LH:4
end_of_record
SF:/home/runner/work/stablebear/stablebear/include/sbear/special_tensors.hpp
FN:29,_ZN2sb14mapping_tensorIiQ10ArithmeticIT_EEENS_6TensorIS1_EERKSt6vectorImSaImEE
FN:39,_ZZN2sb14mapping_tensorIiQ10ArithmeticIT_EEENS_6TensorIS1_EERKSt6vectorImSaImEEENKUlS8_E_clES8_
FNDA:1,_ZN2sb14mapping_tensorIiQ10ArithmeticIT_EEENS_6TensorIS1_EERKSt6vectorImSaImEE
FNDA:12,_ZZN2sb14mapping_tensorIiQ10ArithmeticIT_EEENS_6TensorIS1_EERKSt6vectorImSaImEEENKUlS8_E_clES8_
FNF:2
FNH:2
DA:29,1
DA:30,1
DA:31,1
DA:32,0
DA:33,0
DA:34,0
DA:35,1
DA:36,1
DA:37,1
DA:39,12
DA:40,12
DA:41,12
DA:42,12
DA:44,1
DA:45,1
BRDA:31,0,0,0
BRDA:31,0,1,1
BRF:2
BRH:1
LF:19
LH:16
end_of_record
SF:/home/runner/work/stablebear/stablebear/include/sbear/symmetric_matrix.hpp
FN:32,_ZN2sb15SymmetricMatrixIfEC2EmRKf
FN:81,_ZN2sb15SymmetricMatrixIfE12storage_sizeEm
FN:54,_ZN2sb15SymmetricMatrixIfEclEmm
FN:92,_ZNK2sb15SymmetricMatrixIfE16compressed_indexEmm
FN:32,_ZN2sb15SymmetricMatrixIdEC2EmRKd
FN:81,_ZN2sb15SymmetricMatrixIdE12storage_sizeEm
FN:54,_ZN2sb15SymmetricMatrixIdEclEmm
FN:92,_ZNK2sb15SymmetricMatrixIdE16compressed_indexEmm
FN:38,_ZN2sb15SymmetricMatrixIfEC2Ev
FN:86,_ZN2sb15SymmetricMatrixIfE12mutable_dataEv
FN:51,_ZNK2sb15SymmetricMatrixIfE13storage_countEv
FN:38,_ZN2sb15SymmetricMatrixIdEC2Ev
FN:86,_ZN2sb15SymmetricMatrixIdE12mutable_dataEv
FN:51,_ZNK2sb15SymmetricMatrixIdE13storage_countEv
FN:50,_ZNK2sb15SymmetricMatrixIfE4sizeEv
FN:78,_ZNK2sb15SymmetricMatrixIfE4dataEv
FN:50,_ZNK2sb15SymmetricMatrixIdE4sizeEv
FN:78,_ZNK2sb15SymmetricMatrixIdE4dataEv
FN:59,_ZNK2sb15SymmetricMatrixIfEclEmm
FN:59,_ZNK2sb15SymmetricMatrixIdEclEmm
FN:44,_ZNK2sb15SymmetricMatrixIfE4copyEv
FN:64,_ZNK2sb15SymmetricMatrixIfEeqERKS1_
FN:71,_ZNK2sb15SymmetricMatrixIfEneERKS1_
FN:44,_ZNK2sb15SymmetricMatrixIdE4copyEv
FN:64,_ZNK2sb15SymmetricMatrixIdEeqERKS1_
FN:71,_ZNK2sb15SymmetricMatrixIdEneERKS1_
FNDA:226,_ZN2sb15SymmetricMatrixIfEC2EmRKf
FNDA:555,_ZN2sb15SymmetricMatrixIfE12storage_sizeEm
FNDA:144,_ZN2sb15SymmetricMatrixIfEclEmm
FNDA:283,_ZNK2sb15SymmetricMatrixIfE16compressed_indexEmm
FNDA:310,_ZN2sb15SymmetricMatrixIdEC2EmRKd
FNDA:782,_ZN2sb15SymmetricMatrixIdE12storage_sizeEm
FNDA:149,_ZN2sb15SymmetricMatrixIdEclEmm
FNDA:389,_ZNK2sb15SymmetricMatrixIdE16compressed_indexEmm
FNDA:145,_ZN2sb15SymmetricMatrixIfEC2Ev
FNDA:3,_ZN2sb15SymmetricMatrixIfE12mutable_dataEv
FNDA:78,_ZNK2sb15SymmetricMatrixIfE13storage_countEv
FNDA:189,_ZN2sb15SymmetricMatrixIdEC2Ev
FNDA:4,_ZN2sb15SymmetricMatrixIdE12mutable_dataEv
FNDA:119,_ZNK2sb15SymmetricMatrixIdE13storage_countEv
FNDA:101,_ZNK2sb15SymmetricMatrixIfE4sizeEv
FNDA:60,_ZNK2sb15SymmetricMatrixIfE4dataEv
FNDA:147,_ZNK2sb15SymmetricMatrixIdE4sizeEv
FNDA:108,_ZNK2sb15SymmetricMatrixIdE4dataEv
FNDA:139,_ZNK2sb15SymmetricMatrixIfEclEmm
FNDA:240,_ZNK2sb15SymmetricMatrixIdEclEmm
FNDA:21,_ZNK2sb15SymmetricMatrixIfE4copyEv
FNDA:4,_ZNK2sb15SymmetricMatrixIfEeqERKS1_
FNDA:0,_ZNK2sb15SymmetricMatrixIfEneERKS1_
FNDA:39,_ZNK2sb15SymmetricMatrixIdE4copyEv
FNDA:4,_ZNK2sb15SymmetricMatrixIdEeqERKS1_
FNDA:0,_ZNK2sb15SymmetricMatrixIdEneERKS1_
FNF:13
FNH:12
DA:32,536
DA:33,536
DA:34,536
DA:35,536
DA:36,536
DA:38,334
DA:44,60
DA:45,60
DA:46,60
DA:47,60
DA:48,60
DA:50,248
DA:51,197
DA:54,293
DA:55,293
DA:56,293
DA:59,379
DA:60,379
DA:61,379
DA:64,8
DA:65,8
DA:66,0
DA:67,8
DA:68,8
DA:71,0
DA:72,0
DA:73,0
DA:74,0
DA:75,0
DA:76,0
DA:78,168
DA:81,1337
DA:82,1337
DA:83,1337
DA:86,7
DA:92,672
DA:93,672
DA:94,0
DA:95,0
DA:96,0
DA:97,0
DA:98,0
DA:100,672
DA:101,672
DA:102,672
DA:103,672
BRDA:65,0,0,0
BRDA:65,0,1,8
BRDA:72,0,0,-
BRDA:72,0,1,-
BRDA:93,0,0,0
BRDA:93,0,1,672
BRDA:93,1,2,0
BRDA:93,1,3,672
BRF:8
BRH:3
LF:46
LH:34
end_of_record
SF:/home/runner/work/stablebear/stablebear/include/sbear/task.hpp
FN:22,_ZN2sb13StoppableTaskIvE12request_stopEv
FN:85,_ZN2sb13StoppableTaskIvE8wait_forENSt6chrono8durationIlSt5ratioILl1ELl1000EEEE
FN:136,_ZN2sb13StoppableTaskIvE7consumeEv
FN:150,_ZN2sb13StoppableTaskIvE16rethrow_capturedEv
FN:57,_ZNK2sb13StoppableTaskIvE10work_totalEv
FN:52,_ZNK2sb13StoppableTaskIvE14work_completedEv
FN:62,_ZNK2sb13StoppableTaskIvE9work_stepEv
FN:67,_ZNK2sb13StoppableTaskIvE14work_step_descB5cxx11Ev
FN:73,_ZNK2sb13StoppableTaskIvE14work_step_unitB5cxx11Ev
FN:130,_ZN2sb13StoppableTaskIvE17on_stop_requestedEv
FN:19,_ZN2sb13StoppableTaskIvED2Ev
FN:116,_ZN2sb13StoppableTaskIvE9next_stepEmSt17basic_string_viewIcSt11char_traitsIcEES5_
FN:29,_ZNK2sb13StoppableTaskIvE14stop_requestedEv
FN:44,_ZN2sb13StoppableTaskIvE11start_asyncERNS_8ExecutorE
FN:179,_ZN2sb9EmptyTaskIvE9run_asyncERNS_8ExecutorE
FN:111,_ZN2sb13StoppableTaskIvE12add_progressEm
FN:39,_ZN2sb13StoppableTaskIvE6futureEv
FNDA:172,_ZN2sb13StoppableTaskIvE12request_stopEv
FNDA:344,_ZN2sb13StoppableTaskIvE8wait_forENSt6chrono8durationIlSt5ratioILl1ELl1000EEEE
FNDA:173,_ZN2sb13StoppableTaskIvE7consumeEv
FNDA:344,_ZN2sb13StoppableTaskIvE16rethrow_capturedEv
FNDA:0,_ZNK2sb13StoppableTaskIvE10work_totalEv
FNDA:0,_ZNK2sb13StoppableTaskIvE14work_completedEv
FNDA:0,_ZNK2sb13StoppableTaskIvE9work_stepEv
FNDA:0,_ZNK2sb13StoppableTaskIvE14work_step_descB5cxx11Ev
FNDA:0,_ZNK2sb13StoppableTaskIvE14work_step_unitB5cxx11Ev
FNDA:171,_ZN2sb13StoppableTaskIvE17on_stop_requestedEv
FNDA:175,_ZN2sb13StoppableTaskIvED2Ev
FNDA:146,_ZN2sb13StoppableTaskIvE9next_stepEmSt17basic_string_viewIcSt11char_traitsIcEES5_
FNDA:408,_ZNK2sb13StoppableTaskIvE14stop_requestedEv
FNDA:175,_ZN2sb13StoppableTaskIvE11start_asyncERNS_8ExecutorE
FNDA:5,_ZN2sb9EmptyTaskIvE9run_asyncERNS_8ExecutorE
FNDA:648,_ZN2sb13StoppableTaskIvE12add_progressEm
FNDA:2,_ZN2sb13StoppableTaskIvE6futureEv
FNF:17
FNH:12
DA:19,175
DA:22,172
DA:23,172
DA:24,172
DA:26,172
DA:29,408
DA:30,408
DA:31,408
DA:39,2
DA:40,2
DA:41,2
DA:44,175
DA:45,175
DA:46,175
DA:47,175
DA:48,175
DA:49,175
DA:52,0
DA:53,0
DA:54,0
DA:57,0
DA:58,0
DA:59,0
DA:62,0
DA:63,0
DA:64,0
DA:67,0
DA:68,0
DA:69,0
DA:70,0
DA:73,0
DA:74,0
DA:75,0
DA:76,0
DA:85,344
DA:86,344
DA:87,173
DA:88,173
DA:89,0
DA:90,0
DA:91,0
DA:92,173
DA:93,173
DA:94,344
DA:95,344
DA:96,344
DA:111,648
DA:112,648
DA:113,648
DA:116,146
DA:117,146
DA:118,146
DA:119,146
DA:120,146
DA:121,146
DA:122,146
DA:123,146
DA:124,146
DA:125,146
DA:130,171
DA:136,173
DA:137,173
DA:138,173
DA:139,173
DA:140,173
DA:141,173
DA:142,173
DA:143,4
DA:144,4
DA:145,173
DA:150,344
DA:151,344
DA:152,4
DA:153,4
DA:154,4
DA:155,4
DA:156,4
DA:157,344
DA:179,5
DA:180,5
DA:182,5
DA:183,5
DA:190,5
DA:191,5
BRDA:86,0,0,173
BRDA:86,0,1,171
BRDA:88,0,0,0
BRDA:88,0,1,173
BRDA:151,0,0,4
BRDA:151,0,1,340
BRF:6
BRH:5
LF:84
LH:64
end_of_record
SF:/home/runner/work/stablebear/stablebear/include/sbear/tensor.hpp
FN:40,_ZN2sb3allEv
FN:43,_ZN2sb5indexEl
FN:48,_ZN2sb5rangeESt8optionalIlES1_S1_
FN:368,_ZN2sb16broadcast_shapesERKSt6vectorImSaImEES4_
FN:326,_ZN2sb15shape_to_stringImEENSt7__cxx1112basic_stringIcSt11char_traitsIcESaIcEEERKSt6vectorIT_SaIS8_EE
FN:167,_ZNK2sb6TensorIbE5shapeEv
FN:167,_ZNK2sb6TensorIlE5shapeEv
FN:167,_ZNK2sb6TensorINS_3PcfIffEEE5shapeEv
FN:167,_ZNK2sb6TensorINS_3PcfIddEEE5shapeEv
FN:167,_ZNK2sb6TensorIfE5shapeEv
FN:167,_ZNK2sb6TensorIdE5shapeEv
FN:167,_ZNK2sb6TensorIiE5shapeEv
FN:167,_ZNK2sb6TensorIjE5shapeEv
FN:167,_ZNK2sb6TensorImE5shapeEv
FN:343,_ZN2sb15index_to_stringImEENSt7__cxx1112basic_stringIcSt11char_traitsIcESaIcEEERKSt6vectorIT_SaIS8_EE
FN:168,_ZNK2sb6TensorINS_3PcfIffEEE5shapeEm
FN:166,_ZNK2sb6TensorINS_3PcfIffEEE6strideEm
FN:168,_ZNK2sb6TensorINS_3PcfIddEEE5shapeEm
FN:166,_ZNK2sb6TensorINS_3PcfIddEEE6strideEm
FN:167,_ZNK2sb6TensorINS_3PcfIiiEEE5shapeEv
FN:167,_ZNK2sb6TensorINS_3PcfIllEEE5shapeEv
FN:167,_ZNK2sb6TensorINS0_IfEEE5shapeEv
FN:65,_ZN2sb6TensorIdEC2Ev
FN:167,_ZNK2sb6TensorINS0_IdEEE5shapeEv
FN:65,_ZN2sb6TensorIfEC2Ev
FN:165,_ZNK2sb6TensorIbE7stridesEv
FN:180,_ZNK2sb6TensorIbE4dataEv
FN:169,_ZNK2sb6TensorIbE4rankEv
FN:179,_ZNK2sb6TensorIbE6offsetEv
FN:65,_ZN2sb6TensorIbEC2Ev
FN:402,_ZN2sb6detail10store_copyIbEET_RKS2_
FN:177,_ZNK2sb6TensorIbE13is_contiguousEv
FN:165,_ZNK2sb6TensorIdE7stridesEv
FN:180,_ZNK2sb6TensorIdE4dataEv
FN:169,_ZNK2sb6TensorIdE4rankEv
FN:179,_ZNK2sb6TensorIdE6offsetEv
FN:402,_ZN2sb6detail10store_copyIdEET_RKS2_
FN:177,_ZNK2sb6TensorIdE13is_contiguousEv
FN:165,_ZNK2sb6TensorIfE7stridesEv
FN:180,_ZNK2sb6TensorIfE4dataEv
FN:169,_ZNK2sb6TensorIfE4rankEv
FN:179,_ZNK2sb6TensorIfE6offsetEv
FN:402,_ZN2sb6detail10store_copyIfEET_RKS2_
FN:177,_ZNK2sb6TensorIfE13is_contiguousEv
FN:165,_ZNK2sb6TensorIiE7stridesEv
FN:180,_ZNK2sb6TensorIiE4dataEv
FN:169,_ZNK2sb6TensorIiE4rankEv
FN:179,_ZNK2sb6TensorIiE6offsetEv
FN:65,_ZN2sb6TensorIiEC2Ev
FN:402,_ZN2sb6detail10store_copyIiEET_RKS2_
FN:177,_ZNK2sb6TensorIiE13is_contiguousEv
FN:165,_ZNK2sb6TensorIlE7stridesEv
FN:180,_ZNK2sb6TensorIlE4dataEv
FN:169,_ZNK2sb6TensorIlE4rankEv
FN:179,_ZNK2sb6TensorIlE6offsetEv
FN:65,_ZN2sb6TensorIlEC2Ev
FN:402,_ZN2sb6detail10store_copyIlEET_RKS2_
FN:177,_ZNK2sb6TensorIlE13is_contiguousEv
FN:165,_ZNK2sb6TensorIjE7stridesEv
FN:180,_ZNK2sb6TensorIjE4dataEv
FN:169,_ZNK2sb6TensorIjE4rankEv
FN:179,_ZNK2sb6TensorIjE6offsetEv
FN:65,_ZN2sb6TensorIjEC2Ev
FN:402,_ZN2sb6detail10store_copyIjEET_RKS2_
FN:177,_ZNK2sb6TensorIjE13is_contiguousEv
FN:165,_ZNK2sb6TensorImE7stridesEv
FN:180,_ZNK2sb6TensorImE4dataEv
FN:169,_ZNK2sb6TensorImE4rankEv
FN:179,_ZNK2sb6TensorImE6offsetEv
FN:65,_ZN2sb6TensorImEC2Ev
FN:402,_ZN2sb6detail10store_copyImEET_RKS2_
FN:177,_ZNK2sb6TensorImE13is_contiguousEv
FN:165,_ZNK2sb6TensorINS_3PcfIffEEE7stridesEv
FN:179,_ZNK2sb6TensorINS_3PcfIffEEE6offsetEv
FN:65,_ZN2sb6TensorINS_3PcfIffEEEC2Ev
FN:180,_ZNK2sb6TensorINS_3PcfIffEEE4dataEv
FN:402,_ZN2sb6detail10store_copyINS_3PcfIffEEEET_RKS4_
FN:177,_ZNK2sb6TensorINS_3PcfIffEEE13is_contiguousEv
FN:165,_ZNK2sb6TensorINS_3PcfIddEEE7stridesEv
FN:179,_ZNK2sb6TensorINS_3PcfIddEEE6offsetEv
FN:65,_ZN2sb6TensorINS_3PcfIddEEEC2Ev
FN:180,_ZNK2sb6TensorINS_3PcfIddEEE4dataEv
FN:402,_ZN2sb6detail10store_copyINS_3PcfIddEEEET_RKS4_
FN:177,_ZNK2sb6TensorINS_3PcfIddEEE13is_contiguousEv
FN:165,_ZNK2sb6TensorINS_3PcfIiiEEE7stridesEv
FN:179,_ZNK2sb6TensorINS_3PcfIiiEEE6offsetEv
FN:65,_ZN2sb6TensorINS_3PcfIiiEEEC2Ev
FN:180,_ZNK2sb6TensorINS_3PcfIiiEEE4dataEv
FN:402,_ZN2sb6detail10store_copyINS_3PcfIiiEEEET_RKS4_
FN:177,_ZNK2sb6TensorINS_3PcfIiiEEE13is_contiguousEv
FN:165,_ZNK2sb6TensorINS_3PcfIllEEE7stridesEv
FN:179,_ZNK2sb6TensorINS_3PcfIllEEE6offsetEv
FN:65,_ZN2sb6TensorINS_3PcfIllEEEC2Ev
FN:180,_ZNK2sb6TensorINS_3PcfIllEEE4dataEv
FN:402,_ZN2sb6detail10store_copyINS_3PcfIllEEEET_RKS4_
FN:177,_ZNK2sb6TensorINS_3PcfIllEEE13is_contiguousEv
FN:165,_ZNK2sb6TensorINS0_IfEEE7stridesEv
FN:179,_ZNK2sb6TensorINS0_IfEEE6offsetEv
FN:65,_ZN2sb6TensorINS0_IfEEEC2Ev
FN:180,_ZNK2sb6TensorINS0_IfEEE4dataEv
FN:402,_ZN2sb6detail10store_copyINS_6TensorIfEEEET_RKS4_
FN:177,_ZNK2sb6TensorINS0_IfEEE13is_contiguousEv
FN:165,_ZNK2sb6TensorINS0_IdEEE7stridesEv
FN:179,_ZNK2sb6TensorINS0_IdEEE6offsetEv
FN:65,_ZN2sb6TensorINS0_IdEEEC2Ev
FN:180,_ZNK2sb6TensorINS0_IdEEE4dataEv
FN:402,_ZN2sb6detail10store_copyINS_6TensorIdEEEET_RKS4_
FN:177,_ZNK2sb6TensorINS0_IdEEE13is_contiguousEv
FN:343,_ZN2sb15index_to_stringIlEENSt7__cxx1112basic_stringIcSt11char_traitsIcESaIcEEERKSt6vectorIT_SaIS8_EE
FN:326,_ZN2sb15shape_to_stringIlEENSt7__cxx1112basic_stringIcSt11char_traitsIcESaIcEEERKSt6vectorIT_SaIS8_EE
FN:165,_ZNK2sb6TensorINS_15SymmetricMatrixIfEEE7stridesEv
FN:180,_ZNK2sb6TensorINS_15SymmetricMatrixIfEEE4dataEv
FN:165,_ZNK2sb6TensorINS_15SymmetricMatrixIdEEE7stridesEv
FN:180,_ZNK2sb6TensorINS_15SymmetricMatrixIdEEE4dataEv
FN:165,_ZNK2sb6TensorINS_14DistanceMatrixIfEEE7stridesEv
FN:180,_ZNK2sb6TensorINS_14DistanceMatrixIfEEE4dataEv
FN:165,_ZNK2sb6TensorINS_14DistanceMatrixIdEEE7stridesEv
FN:180,_ZNK2sb6TensorINS_14DistanceMatrixIdEEE4dataEv
FN:165,_ZNK2sb6TensorINS_2ph7BarcodeIfEEE7stridesEv
FN:180,_ZNK2sb6TensorINS_2ph7BarcodeIfEEE4dataEv
FN:165,_ZNK2sb6TensorINS_2ph7BarcodeIdEEE7stridesEv
FN:180,_ZNK2sb6TensorINS_2ph7BarcodeIdEEE4dataEv
FN:177,_ZNK2sb6TensorINS_2ph7BarcodeIfEEE13is_contiguousEv
FN:167,_ZNK2sb6TensorINS_2ph7BarcodeIfEEE5shapeEv
FN:177,_ZNK2sb6TensorINS_2ph7BarcodeIdEEE13is_contiguousEv
FN:167,_ZNK2sb6TensorINS_2ph7BarcodeIdEEE5shapeEv
FN:177,_ZNK2sb6TensorINS_15SymmetricMatrixIfEEE13is_contiguousEv
FN:167,_ZNK2sb6TensorINS_15SymmetricMatrixIfEEE5shapeEv
FN:177,_ZNK2sb6TensorINS_15SymmetricMatrixIdEEE13is_contiguousEv
FN:167,_ZNK2sb6TensorINS_15SymmetricMatrixIdEEE5shapeEv
FN:177,_ZNK2sb6TensorINS_14DistanceMatrixIfEEE13is_contiguousEv
FN:167,_ZNK2sb6TensorINS_14DistanceMatrixIfEEE5shapeEv
FN:177,_ZNK2sb6TensorINS_14DistanceMatrixIdEEE13is_contiguousEv
FN:167,_ZNK2sb6TensorINS_14DistanceMatrixIdEEE5shapeEv
FN:179,_ZNK2sb6TensorINS_15SymmetricMatrixIfEEE6offsetEv
FN:65,_ZN2sb6TensorINS_15SymmetricMatrixIfEEEC2Ev
FN:402,_ZN2sb6detail10store_copyINS_15SymmetricMatrixIfEEEET_RKS4_
FN:179,_ZNK2sb6TensorINS_15SymmetricMatrixIdEEE6offsetEv
FN:65,_ZN2sb6TensorINS_15SymmetricMatrixIdEEEC2Ev
FN:402,_ZN2sb6detail10store_copyINS_15SymmetricMatrixIdEEEET_RKS4_
FN:179,_ZNK2sb6TensorINS_14DistanceMatrixIfEEE6offsetEv
FN:65,_ZN2sb6TensorINS_14DistanceMatrixIfEEEC2Ev
FN:402,_ZN2sb6detail10store_copyINS_14DistanceMatrixIfEEEET_RKS4_
FN:179,_ZNK2sb6TensorINS_14DistanceMatrixIdEEE6offsetEv
FN:65,_ZN2sb6TensorINS_14DistanceMatrixIdEEEC2Ev
FN:402,_ZN2sb6detail10store_copyINS_14DistanceMatrixIdEEEET_RKS4_
FN:179,_ZNK2sb6TensorINS_2ph7BarcodeIfEEE6offsetEv
FN:65,_ZN2sb6TensorINS_2ph7BarcodeIfEEEC2Ev
FN:402,_ZN2sb6detail10store_copyINS_2ph7BarcodeIfEEEET_RKS5_
FN:179,_ZNK2sb6TensorINS_2ph7BarcodeIdEEE6offsetEv
FN:65,_ZN2sb6TensorINS_2ph7BarcodeIdEEEC2Ev
FN:402,_ZN2sb6detail10store_copyINS_2ph7BarcodeIdEEEET_RKS5_
FN:168,_ZNK2sb6TensorIfE5shapeEm
FN:168,_ZNK2sb6TensorIdE5shapeEm
FN:168,_ZNK2sb6TensorIiE5shapeEm
FN:166,_ZNK2sb6TensorIiE6strideEm
FN:166,_ZNK2sb6TensorIfE6strideEm
FN:166,_ZNK2sb6TensorIdE6strideEm
FNDA:194,_ZN2sb3allEv
FNDA:260,_ZN2sb5indexEl
FNDA:841,_ZN2sb5rangeESt8optionalIlES1_S1_
FNDA:182,_ZN2sb16broadcast_shapesERKSt6vectorImSaImEES4_
FNDA:47,_ZN2sb15shape_to_stringImEENSt7__cxx1112basic_stringIcSt11char_traitsIcESaIcEEERKSt6vectorIT_SaIS8_EE
FNDA:847,_ZNK2sb6TensorIbE5shapeEv
FNDA:1981,_ZNK2sb6TensorIlE5shapeEv
FNDA:4491,_ZNK2sb6TensorINS_3PcfIffEEE5shapeEv
FNDA:7284,_ZNK2sb6TensorINS_3PcfIddEEE5shapeEv
FNDA:4014,_ZNK2sb6TensorIfE5shapeEv
FNDA:7917,_ZNK2sb6TensorIdE5shapeEv
FNDA:1534,_ZNK2sb6TensorIiE5shapeEv
FNDA:16,_ZNK2sb6TensorIjE5shapeEv
FNDA:17,_ZNK2sb6TensorImE5shapeEv
FNDA:9,_ZN2sb15index_to_stringImEENSt7__cxx1112basic_stringIcSt11char_traitsIcESaIcEEERKSt6vectorIT_SaIS8_EE
FNDA:32,_ZNK2sb6TensorINS_3PcfIffEEE5shapeEm
FNDA:232,_ZNK2sb6TensorINS_3PcfIffEEE6strideEm
FNDA:31,_ZNK2sb6TensorINS_3PcfIddEEE5shapeEm
FNDA:34,_ZNK2sb6TensorINS_3PcfIddEEE6strideEm
FNDA:823,_ZNK2sb6TensorINS_3PcfIiiEEE5shapeEv
FNDA:800,_ZNK2sb6TensorINS_3PcfIllEEE5shapeEv
FNDA:256,_ZNK2sb6TensorINS0_IfEEE5shapeEv
FNDA:7422,_ZN2sb6TensorIdEC2Ev
FNDA:4416,_ZNK2sb6TensorINS0_IdEEE5shapeEv
FNDA:6407,_ZN2sb6TensorIfEC2Ev
FNDA:240,_ZNK2sb6TensorIbE7stridesEv
FNDA:92,_ZNK2sb6TensorIbE4dataEv
FNDA:78,_ZNK2sb6TensorIbE4rankEv
FNDA:0,_ZNK2sb6TensorIbE6offsetEv
FNDA:17,_ZN2sb6TensorIbEC2Ev
FNDA:0,_ZN2sb6detail10store_copyIbEET_RKS2_
FNDA:157,_ZNK2sb6TensorIbE13is_contiguousEv
FNDA:2091,_ZNK2sb6TensorIdE7stridesEv
FNDA:1121,_ZNK2sb6TensorIdE4dataEv
FNDA:992,_ZNK2sb6TensorIdE4rankEv
FNDA:47,_ZNK2sb6TensorIdE6offsetEv
FNDA:205,_ZN2sb6detail10store_copyIdEET_RKS2_
FNDA:1325,_ZNK2sb6TensorIdE13is_contiguousEv
FNDA:801,_ZNK2sb6TensorIfE7stridesEv
FNDA:645,_ZNK2sb6TensorIfE4dataEv
FNDA:283,_ZNK2sb6TensorIfE4rankEv
FNDA:9,_ZNK2sb6TensorIfE6offsetEv
FNDA:32,_ZN2sb6detail10store_copyIfEET_RKS2_
FNDA:496,_ZNK2sb6TensorIfE13is_contiguousEv
FNDA:450,_ZNK2sb6TensorIiE7stridesEv
FNDA:159,_ZNK2sb6TensorIiE4dataEv
FNDA:148,_ZNK2sb6TensorIiE4rankEv
FNDA:3,_ZNK2sb6TensorIiE6offsetEv
FNDA:170,_ZN2sb6TensorIiEC2Ev
FNDA:15,_ZN2sb6detail10store_copyIiEET_RKS2_
FNDA:292,_ZNK2sb6TensorIiE13is_contiguousEv
FNDA:605,_ZNK2sb6TensorIlE7stridesEv
FNDA:210,_ZNK2sb6TensorIlE4dataEv
FNDA:196,_ZNK2sb6TensorIlE4rankEv
FNDA:2,_ZNK2sb6TensorIlE6offsetEv
FNDA:158,_ZN2sb6TensorIlEC2Ev
FNDA:13,_ZN2sb6detail10store_copyIlEET_RKS2_
FNDA:390,_ZNK2sb6TensorIlE13is_contiguousEv
FNDA:9,_ZNK2sb6TensorIjE7stridesEv
FNDA:3,_ZNK2sb6TensorIjE4dataEv
FNDA:3,_ZNK2sb6TensorIjE4rankEv
FNDA:0,_ZNK2sb6TensorIjE6offsetEv
FNDA:0,_ZN2sb6TensorIjEC2Ev
FNDA:0,_ZN2sb6detail10store_copyIjEET_RKS2_
FNDA:6,_ZNK2sb6TensorIjE13is_contiguousEv
FNDA:12,_ZNK2sb6TensorImE7stridesEv
FNDA:4,_ZNK2sb6TensorImE4dataEv
FNDA:4,_ZNK2sb6TensorImE4rankEv
FNDA:0,_ZNK2sb6TensorImE6offsetEv
FNDA:0,_ZN2sb6TensorImEC2Ev
FNDA:0,_ZN2sb6detail10store_copyImEET_RKS2_
FNDA:8,_ZNK2sb6TensorImE13is_contiguousEv
FNDA:282,_ZNK2sb6TensorINS_3PcfIffEEE7stridesEv
FNDA:10,_ZNK2sb6TensorINS_3PcfIffEEE6offsetEv
FNDA:46,_ZN2sb6TensorINS_3PcfIffEEEC2Ev
FNDA:175,_ZNK2sb6TensorINS_3PcfIffEEE4dataEv
FNDA:620,_ZN2sb6detail10store_copyINS_3PcfIffEEEET_RKS4_
FNDA:10,_ZNK2sb6TensorINS_3PcfIffEEE13is_contiguousEv
FNDA:322,_ZNK2sb6TensorINS_3PcfIddEEE7stridesEv
FNDA:0,_ZNK2sb6TensorINS_3PcfIddEEE6offsetEv
FNDA:20,_ZN2sb6TensorINS_3PcfIddEEEC2Ev
FNDA:128,_ZNK2sb6TensorINS_3PcfIddEEE4dataEv
FNDA:300,_ZN2sb6detail10store_copyINS_3PcfIddEEEET_RKS4_
FNDA:10,_ZNK2sb6TensorINS_3PcfIddEEE13is_contiguousEv
FNDA:89,_ZNK2sb6TensorINS_3PcfIiiEEE7stridesEv
FNDA:0,_ZNK2sb6TensorINS_3PcfIiiEEE6offsetEv
FNDA:12,_ZN2sb6TensorINS_3PcfIiiEEEC2Ev
FNDA:9,_ZNK2sb6TensorINS_3PcfIiiEEE4dataEv
FNDA:86,_ZN2sb6detail10store_copyINS_3PcfIiiEEEET_RKS4_
FNDA:1,_ZNK2sb6TensorINS_3PcfIiiEEE13is_contiguousEv
FNDA:88,_ZNK2sb6TensorINS_3PcfIllEEE7stridesEv
FNDA:0,_ZNK2sb6TensorINS_3PcfIllEEE6offsetEv
FNDA:11,_ZN2sb6TensorINS_3PcfIllEEEC2Ev
FNDA:9,_ZNK2sb6TensorINS_3PcfIllEEE4dataEv
FNDA:80,_ZN2sb6detail10store_copyINS_3PcfIllEEEET_RKS4_
FNDA:1,_ZNK2sb6TensorINS_3PcfIllEEE13is_contiguousEv
FNDA:26,_ZNK2sb6TensorINS0_IfEEE7stridesEv
FNDA:4,_ZNK2sb6TensorINS0_IfEEE6offsetEv
FNDA:7,_ZN2sb6TensorINS0_IfEEEC2Ev
FNDA:23,_ZNK2sb6TensorINS0_IfEEE4dataEv
FNDA:24,_ZN2sb6detail10store_copyINS_6TensorIfEEEET_RKS4_
FNDA:2,_ZNK2sb6TensorINS0_IfEEE13is_contiguousEv
FNDA:262,_ZNK2sb6TensorINS0_IdEEE7stridesEv
FNDA:16,_ZNK2sb6TensorINS0_IdEEE6offsetEv
FNDA:22,_ZN2sb6TensorINS0_IdEEEC2Ev
FNDA:27,_ZNK2sb6TensorINS0_IdEEE4dataEv
FNDA:298,_ZN2sb6detail10store_copyINS_6TensorIdEEEET_RKS4_
FNDA:1,_ZNK2sb6TensorINS0_IdEEE13is_contiguousEv
FNDA:2,_ZN2sb15index_to_stringIlEENSt7__cxx1112basic_stringIcSt11char_traitsIcESaIcEEERKSt6vectorIT_SaIS8_EE
FNDA:2,_ZN2sb15shape_to_stringIlEENSt7__cxx1112basic_stringIcSt11char_traitsIcESaIcEEERKSt6vectorIT_SaIS8_EE
FNDA:25,_ZNK2sb6TensorINS_15SymmetricMatrixIfEEE7stridesEv
FNDA:15,_ZNK2sb6TensorINS_15SymmetricMatrixIfEEE4dataEv
FNDA:40,_ZNK2sb6TensorINS_15SymmetricMatrixIdEEE7stridesEv
FNDA:21,_ZNK2sb6TensorINS_15SymmetricMatrixIdEEE4dataEv
FNDA:8,_ZNK2sb6TensorINS_14DistanceMatrixIfEEE7stridesEv
FNDA:15,_ZNK2sb6TensorINS_14DistanceMatrixIfEEE4dataEv
FNDA:47,_ZNK2sb6TensorINS_14DistanceMatrixIdEEE7stridesEv
FNDA:21,_ZNK2sb6TensorINS_14DistanceMatrixIdEEE4dataEv
FNDA:5,_ZNK2sb6TensorINS_2ph7BarcodeIfEEE7stridesEv
FNDA:19,_ZNK2sb6TensorINS_2ph7BarcodeIfEEE4dataEv
FNDA:241,_ZNK2sb6TensorINS_2ph7BarcodeIdEEE7stridesEv
FNDA:21,_ZNK2sb6TensorINS_2ph7BarcodeIdEEE4dataEv
FNDA:2,_ZNK2sb6TensorINS_2ph7BarcodeIfEEE13is_contiguousEv
FNDA:71,_ZNK2sb6TensorINS_2ph7BarcodeIfEEE5shapeEv
FNDA:2,_ZNK2sb6TensorINS_2ph7BarcodeIdEEE13is_contiguousEv
FNDA:5954,_ZNK2sb6TensorINS_2ph7BarcodeIdEEE5shapeEv
FNDA:2,_ZNK2sb6TensorINS_15SymmetricMatrixIfEEE13is_contiguousEv
FNDA:260,_ZNK2sb6TensorINS_15SymmetricMatrixIfEEE5shapeEv
FNDA:2,_ZNK2sb6TensorINS_15SymmetricMatrixIdEEE13is_contiguousEv
FNDA:449,_ZNK2sb6TensorINS_15SymmetricMatrixIdEEE5shapeEv
FNDA:2,_ZNK2sb6TensorINS_14DistanceMatrixIfEEE13is_contiguousEv
FNDA:78,_ZNK2sb6TensorINS_14DistanceMatrixIfEEE5shapeEv
FNDA:2,_ZNK2sb6TensorINS_14DistanceMatrixIdEEE13is_contiguousEv
FNDA:483,_ZNK2sb6TensorINS_14DistanceMatrixIdEEE5shapeEv
FNDA:0,_ZNK2sb6TensorINS_15SymmetricMatrixIfEEE6offsetEv
FNDA:6,_ZN2sb6TensorINS_15SymmetricMatrixIfEEEC2Ev
FNDA:21,_ZN2sb6detail10store_copyINS_15SymmetricMatrixIfEEEET_RKS4_
FNDA:6,_ZNK2sb6TensorINS_15SymmetricMatrixIdEEE6offsetEv
FNDA:14,_ZN2sb6TensorINS_15SymmetricMatrixIdEEEC2Ev
FNDA:39,_ZN2sb6detail10store_copyINS_15SymmetricMatrixIdEEEET_RKS4_
FNDA:0,_ZNK2sb6TensorINS_14DistanceMatrixIfEEE6offsetEv
FNDA:3,_ZN2sb6TensorINS_14DistanceMatrixIfEEEC2Ev
FNDA:4,_ZN2sb6detail10store_copyINS_14DistanceMatrixIfEEEET_RKS4_
FNDA:6,_ZNK2sb6TensorINS_14DistanceMatrixIdEEE6offsetEv
FNDA:11,_ZN2sb6TensorINS_14DistanceMatrixIdEEEC2Ev
FNDA:46,_ZN2sb6detail10store_copyINS_14DistanceMatrixIdEEEET_RKS4_
FNDA:0,_ZNK2sb6TensorINS_2ph7BarcodeIfEEE6offsetEv
FNDA:6,_ZN2sb6TensorINS_2ph7BarcodeIfEEEC2Ev
FNDA:3,_ZN2sb6detail10store_copyINS_2ph7BarcodeIfEEEET_RKS5_
FNDA:2,_ZNK2sb6TensorINS_2ph7BarcodeIdEEE6offsetEv
FNDA:89,_ZN2sb6TensorINS_2ph7BarcodeIdEEEC2Ev
FNDA:254,_ZN2sb6detail10store_copyINS_2ph7BarcodeIdEEEET_RKS5_
FNDA:113,_ZNK2sb6TensorIfE5shapeEm
FNDA:10920,_ZNK2sb6TensorIdE5shapeEm
FNDA:32,_ZNK2sb6TensorIiE5shapeEm
FNDA:4,_ZNK2sb6TensorIiE6strideEm
FNDA:2,_ZNK2sb6TensorIfE6strideEm
FNDA:5,_ZNK2sb6TensorIdE6strideEm
FNF:16
FNH:16
DA:40,194
DA:43,260
DA:44,260
DA:45,260
DA:48,841
DA:49,841
DA:50,841
DA:65,14421
DA:165,5643
DA:166,277
DA:167,41691
DA:168,11128
DA:169,1704
DA:177,2711
DA:179,105
DA:180,2717
DA:326,49
DA:327,49
DA:328,49
DA:329,131
DA:330,82
DA:331,82
DA:332,33
DA:333,33
DA:334,33
DA:335,82
DA:336,82
DA:337,49
DA:338,49
DA:339,49
DA:343,11
DA:344,11
DA:345,9
DA:346,9
DA:347,9
DA:348,2
DA:349,2
DA:350,2
DA:351,2
DA:352,11
DA:368,182
DA:369,182
DA:370,182
DA:372,405
DA:373,234
DA:374,234
DA:375,234
DA:377,234
DA:378,174
DA:379,60
DA:380,14
DA:381,46
DA:382,35
DA:383,11
DA:384,11
DA:385,11
DA:386,234
DA:387,171
DA:388,182
DA:402,2040
DA:404,432
DA:406,1608
DA:407,2040
BRDA:329,0,0,82
BRDA:329,0,1,49
BRDA:331,0,0,33
BRDA:331,0,1,49
BRDA:344,0,0,9
BRDA:344,0,1,2
BRDA:372,0,0,234
BRDA:372,0,1,171
BRDA:374,0,0,5
BRDA:374,0,1,229
BRDA:375,0,0,21
BRDA:375,0,1,213
BRDA:377,0,0,174
BRDA:377,0,1,60
BRDA:379,0,0,14
BRDA:379,0,1,46
BRDA:381,0,0,35
BRDA:381,0,1,11
BRF:18
BRH:17
LF:62
LH:59
end_of_record
SF:/home/runner/work/stablebear/stablebear/include/sbear/tensor.tpp
FN:592,_ZN2sb6detail18validate_axis_maskEmmRKNS_6TensorIbEEm
FN:607,_ZN2sb6detail20collect_true_indicesERKNS_6TensorIbEE
FN:688,_ZN2sb6detail18prepare_axis_masksERKSt6vectorISt4pairImNS_6TensorIbEEESaIS5_EERKS1_ImSaImEE
FN:781,_ZN2sb6detail17resolve_selectorsERKSt6vectorISt4pairImSt7variantIJNS_6TensorIbEENS4_IlEEEEESaIS8_EERKS1_ImSaImEE
FN:1721,_ZN2sb19flat_to_multi_indexEmRKSt6vectorImSaImEE
FN:102,_ZNK2sb6TensorIbEclEm
FN:1649,_ZNK2sb6TensorIbE12index_to_refERKSt6vectorImSaImEE
FN:1619,_ZNK2sb6TensorIbE19index_to_data_indexERKSt6vectorImSaImEE
FN:102,_ZNK2sb6TensorIlEclEm
FN:1649,_ZNK2sb6TensorIlE12index_to_refERKSt6vectorImSaImEE
FN:1619,_ZNK2sb6TensorIlE19index_to_data_indexERKSt6vectorImSaImEE
FN:1188,_ZNK2sb6TensorINS_3PcfIffEEE4sizeEv
FN:96,_ZN2sb6TensorINS_3PcfIffEEEclERKSt6vectorImSaImEE
FN:1655,_ZN2sb6TensorINS_3PcfIffEEE12index_to_refERKSt6vectorImSaImEE
FN:1619,_ZNK2sb6TensorINS_3PcfIffEEE19index_to_data_indexERKSt6vectorImSaImEE
FN:1625,_ZZNK2sb6TensorINS_3PcfIffEEE19index_to_data_indexERKSt6vectorImSaImEEENKUlmlE_clEml
FN:1188,_ZNK2sb6TensorINS_3PcfIddEEE4sizeEv
FN:96,_ZN2sb6TensorINS_3PcfIddEEEclERKSt6vectorImSaImEE
FN:1655,_ZN2sb6TensorINS_3PcfIddEEE12index_to_refERKSt6vectorImSaImEE
FN:1619,_ZNK2sb6TensorINS_3PcfIddEEE19index_to_data_indexERKSt6vectorImSaImEE
FN:1625,_ZZNK2sb6TensorINS_3PcfIddEEE19index_to_data_indexERKSt6vectorImSaImEEENKUlmlE_clEml
FN:27,_ZN2sb6TensorIfEC2ERKSt6vectorImSaImEERKf
FN:1613,_ZNK2sb6TensorIfE14get_total_sizeEv
FN:96,_ZN2sb6TensorIfEclERKSt6vectorImSaImEE
FN:1655,_ZN2sb6TensorIfE12index_to_refERKSt6vectorImSaImEE
FN:1619,_ZNK2sb6TensorIfE19index_to_data_indexERKSt6vectorImSaImEE
FN:1625,_ZZNK2sb6TensorIfE19index_to_data_indexERKSt6vectorImSaImEEENKUlmlE_clEml
FN:27,_ZN2sb6TensorIdEC2ERKSt6vectorImSaImEERKd
FN:1613,_ZNK2sb6TensorIdE14get_total_sizeEv
FN:96,_ZN2sb6TensorIdEclERKSt6vectorImSaImEE
FN:1655,_ZN2sb6TensorIdE12index_to_refERKSt6vectorImSaImEE
FN:1619,_ZNK2sb6TensorIdE19index_to_data_indexERKSt6vectorImSaImEE
FN:1625,_ZZNK2sb6TensorIdE19index_to_data_indexERKSt6vectorImSaImEEENKUlmlE_clEml
FN:27,_ZN2sb6TensorIiEC2ERKSt6vectorImSaImEERKi
FN:1613,_ZNK2sb6TensorIiE14get_total_sizeEv
FN:96,_ZN2sb6TensorIiEclERKSt6vectorImSaImEE
FN:1655,_ZN2sb6TensorIiE12index_to_refERKSt6vectorImSaImEE
FN:1619,_ZNK2sb6TensorIiE19index_to_data_indexERKSt6vectorImSaImEE
FN:1625,_ZZNK2sb6TensorIiE19index_to_data_indexERKSt6vectorImSaImEEENKUlmlE_clEml
FN:27,_ZN2sb6TensorIlEC2ERKSt6vectorImSaImEERKl
FN:1613,_ZNK2sb6TensorIlE14get_total_sizeEv
FN:96,_ZN2sb6TensorIlEclERKSt6vectorImSaImEE
FN:1655,_ZN2sb6TensorIlE12index_to_refERKSt6vectorImSaImEE
FN:1625,_ZZNK2sb6TensorIlE19index_to_data_indexERKSt6vectorImSaImEEENKUlmlE_clEml
FN:27,_ZN2sb6TensorIjEC2ERKSt6vectorImSaImEERKj
FN:1613,_ZNK2sb6TensorIjE14get_total_sizeEv
FN:96,_ZN2sb6TensorIjEclERKSt6vectorImSaImEE
FN:1655,_ZN2sb6TensorIjE12index_to_refERKSt6vectorImSaImEE
FN:1619,_ZNK2sb6TensorIjE19index_to_data_indexERKSt6vectorImSaImEE
FN:1625,_ZZNK2sb6TensorIjE19index_to_data_indexERKSt6vectorImSaImEEENKUlmlE_clEml
FN:27,_ZN2sb6TensorImEC2ERKSt6vectorImSaImEERKm
FN:1613,_ZNK2sb6TensorImE14get_total_sizeEv
FN:96,_ZN2sb6TensorImEclERKSt6vectorImSaImEE
FN:1655,_ZN2sb6TensorImE12index_to_refERKSt6vectorImSaImEE
FN:1619,_ZNK2sb6TensorImE19index_to_data_indexERKSt6vectorImSaImEE
FN:1625,_ZZNK2sb6TensorImE19index_to_data_indexERKSt6vectorImSaImEEENKUlmlE_clEml
FN:27,_ZN2sb6TensorIbEC2ERKSt6vectorImSaImEERKb
FN:1613,_ZNK2sb6TensorIbE14get_total_sizeEv
FN:96,_ZN2sb6TensorIbEclERKSt6vectorImSaImEE
FN:1655,_ZN2sb6TensorIbE12index_to_refERKSt6vectorImSaImEE
FN:1625,_ZZNK2sb6TensorIbE19index_to_data_indexERKSt6vectorImSaImEEENKUlmlE_clEml
FN:27,_ZN2sb6TensorINS_3PcfIffEEEC2ERKSt6vectorImSaImEERKS2_
FN:1613,_ZNK2sb6TensorINS_3PcfIffEEE14get_total_sizeEv
FN:27,_ZN2sb6TensorINS_3PcfIddEEEC2ERKSt6vectorImSaImEERKS2_
FN:1613,_ZNK2sb6TensorINS_3PcfIddEEE14get_total_sizeEv
FN:108,_ZN2sb6TensorINS_3PcfIffEEEclEm
FN:120,_ZN2sb6TensorINS_3PcfIffEEE4flatEm
FN:120,_ZN2sb6TensorIfE4flatEm
FN:108,_ZN2sb6TensorINS_3PcfIddEEEclEm
FN:120,_ZN2sb6TensorINS_3PcfIddEEE4flatEm
FN:120,_ZN2sb6TensorIdE4flatEm
FN:90,_ZNK2sb6TensorINS_3PcfIffEEEclERKSt6vectorImSaImEE
FN:1649,_ZNK2sb6TensorINS_3PcfIffEEE12index_to_refERKSt6vectorImSaImEE
FN:90,_ZNK2sb6TensorINS_3PcfIddEEEclERKSt6vectorImSaImEE
FN:1649,_ZNK2sb6TensorINS_3PcfIddEEE12index_to_refERKSt6vectorImSaImEE
FN:173,_ZN2sb6TensorINS_3PcfIffEEEdVImQ11CanDivideToIT_S5_TL0__EEERS3_RKS5_
FN:1469,_ZN2sb6TensorINS_3PcfIffEEE5applyIZNS3_dVImQ11CanDivideToIT_S6_TL0__EEERS3_RKS6_EUlRS2_E_Qsr3stdE9invocableIS7_RS6_EEEvOS6_
FN:1470,_ZZN2sb6TensorINS_3PcfIffEEE5applyIZNS3_dVImQ11CanDivideToIT_S6_TL0__EEERS3_RKS6_EUlRS2_E_Qsr3stdE9invocableIS7_RS6_EEEvOS6_ENKUlRKSt6vectorImSaImEEE_clESJ_
FN:174,_ZZN2sb6TensorINS_3PcfIffEEEdVImQ11CanDivideToIT_S5_TL0__EEERS3_RKS5_ENKUlRS2_E_clESA_
FN:173,_ZN2sb6TensorINS_3PcfIddEEEdVImQ11CanDivideToIT_S5_TL0__EEERS3_RKS5_
FN:1469,_ZN2sb6TensorINS_3PcfIddEEE5applyIZNS3_dVImQ11CanDivideToIT_S6_TL0__EEERS3_RKS6_EUlRS2_E_Qsr3stdE9invocableIS7_RS6_EEEvOS6_
FN:1470,_ZZN2sb6TensorINS_3PcfIddEEE5applyIZNS3_dVImQ11CanDivideToIT_S6_TL0__EEERS3_RKS6_EUlRS2_E_Qsr3stdE9invocableIS7_RS6_EEEvOS6_ENKUlRKSt6vectorImSaImEEE_clESJ_
FN:174,_ZZN2sb6TensorINS_3PcfIddEEEdVImQ11CanDivideToIT_S5_TL0__EEERS3_RKS5_ENKUlRS2_E_clESA_
FN:908,_ZN2sb11tensor_castIdfQsr3stdE18is_constructible_vIT_T0_EEENS_6TensorIS1_EERKNS3_IS2_EE
FN:910,_ZZN2sb11tensor_castIdfQsr3stdE18is_constructible_vIT_T0_EEENS_6TensorIS1_EERKNS3_IS2_EEENKUlRKSt6vectorImSaImEEE_clESC_
FN:90,_ZNK2sb6TensorIfEclERKSt6vectorImSaImEE
FN:1649,_ZNK2sb6TensorIfE12index_to_refERKSt6vectorImSaImEE
FN:908,_ZN2sb11tensor_castIfdQsr3stdE18is_constructible_vIT_T0_EEENS_6TensorIS1_EERKNS3_IS2_EE
FN:910,_ZZN2sb11tensor_castIfdQsr3stdE18is_constructible_vIT_T0_EEENS_6TensorIS1_EERKNS3_IS2_EEENKUlRKSt6vectorImSaImEEE_clESC_
FN:90,_ZNK2sb6TensorIdEclERKSt6vectorImSaImEE
FN:1649,_ZNK2sb6TensorIdE12index_to_refERKSt6vectorImSaImEE
FN:908,_ZN2sb11tensor_castIliQsr3stdE18is_constructible_vIT_T0_EEENS_6TensorIS1_EERKNS3_IS2_EE
FN:910,_ZZN2sb11tensor_castIliQsr3stdE18is_constructible_vIT_T0_EEENS_6TensorIS1_EERKNS3_IS2_EEENKUlRKSt6vectorImSaImEEE_clESC_
FN:90,_ZNK2sb6TensorIiEclERKSt6vectorImSaImEE
FN:1649,_ZNK2sb6TensorIiE12index_to_refERKSt6vectorImSaImEE
FN:908,_ZN2sb11tensor_castIilQsr3stdE18is_constructible_vIT_T0_EEENS_6TensorIS1_EERKNS3_IS2_EE
FN:910,_ZZN2sb11tensor_castIilQsr3stdE18is_constructible_vIT_T0_EEENS_6TensorIS1_EERKNS3_IS2_EEENKUlRKSt6vectorImSaImEEE_clESC_
FN:90,_ZNK2sb6TensorIlEclERKSt6vectorImSaImEE
FN:908,_ZN2sb11tensor_castImjQsr3stdE18is_constructible_vIT_T0_EEENS_6TensorIS1_EERKNS3_IS2_EE
FN:910,_ZZN2sb11tensor_castImjQsr3stdE18is_constructible_vIT_T0_EEENS_6TensorIS1_EERKNS3_IS2_EEENKUlRKSt6vectorImSaImEEE_clESC_
FN:90,_ZNK2sb6TensorIjEclERKSt6vectorImSaImEE
FN:1649,_ZNK2sb6TensorIjE12index_to_refERKSt6vectorImSaImEE
FN:908,_ZN2sb11tensor_castIjmQsr3stdE18is_constructible_vIT_T0_EEENS_6TensorIS1_EERKNS3_IS2_EE
FN:910,_ZZN2sb11tensor_castIjmQsr3stdE18is_constructible_vIT_T0_EEENS_6TensorIS1_EERKNS3_IS2_EEENKUlRKSt6vectorImSaImEEE_clESC_
FN:90,_ZNK2sb6TensorImEclERKSt6vectorImSaImEE
FN:1649,_ZNK2sb6TensorImE12index_to_refERKSt6vectorImSaImEE
FN:908,_ZN2sb11tensor_castIidQsr3stdE18is_constructible_vIT_T0_EEENS_6TensorIS1_EERKNS3_IS2_EE
FN:910,_ZZN2sb11tensor_castIidQsr3stdE18is_constructible_vIT_T0_EEENS_6TensorIS1_EERKNS3_IS2_EEENKUlRKSt6vectorImSaImEEE_clESC_
FN:908,_ZN2sb11tensor_castIldQsr3stdE18is_constructible_vIT_T0_EEENS_6TensorIS1_EERKNS3_IS2_EE
FN:910,_ZZN2sb11tensor_castIldQsr3stdE18is_constructible_vIT_T0_EEENS_6TensorIS1_EERKNS3_IS2_EEENKUlRKSt6vectorImSaImEEE_clESC_
FN:908,_ZN2sb11tensor_castIifQsr3stdE18is_constructible_vIT_T0_EEENS_6TensorIS1_EERKNS3_IS2_EE
FN:910,_ZZN2sb11tensor_castIifQsr3stdE18is_constructible_vIT_T0_EEENS_6TensorIS1_EERKNS3_IS2_EEENKUlRKSt6vectorImSaImEEE_clESC_
FN:908,_ZN2sb11tensor_castIlfQsr3stdE18is_constructible_vIT_T0_EEENS_6TensorIS1_EERKNS3_IS2_EE
FN:910,_ZZN2sb11tensor_castIlfQsr3stdE18is_constructible_vIT_T0_EEENS_6TensorIS1_EERKNS3_IS2_EEENKUlRKSt6vectorImSaImEEE_clESC_
FN:908,_ZN2sb11tensor_castIfiQsr3stdE18is_constructible_vIT_T0_EEENS_6TensorIS1_EERKNS3_IS2_EE
FN:910,_ZZN2sb11tensor_castIfiQsr3stdE18is_constructible_vIT_T0_EEENS_6TensorIS1_EERKNS3_IS2_EEENKUlRKSt6vectorImSaImEEE_clESC_
FN:908,_ZN2sb11tensor_castIdiQsr3stdE18is_constructible_vIT_T0_EEENS_6TensorIS1_EERKNS3_IS2_EE
FN:910,_ZZN2sb11tensor_castIdiQsr3stdE18is_constructible_vIT_T0_EEENS_6TensorIS1_EERKNS3_IS2_EEENKUlRKSt6vectorImSaImEEE_clESC_
FN:908,_ZN2sb11tensor_castIflQsr3stdE18is_constructible_vIT_T0_EEENS_6TensorIS1_EERKNS3_IS2_EE
FN:910,_ZZN2sb11tensor_castIflQsr3stdE18is_constructible_vIT_T0_EEENS_6TensorIS1_EERKNS3_IS2_EEENKUlRKSt6vectorImSaImEEE_clESC_
FN:908,_ZN2sb11tensor_castIdlQsr3stdE18is_constructible_vIT_T0_EEENS_6TensorIS1_EERKNS3_IS2_EE
FN:910,_ZZN2sb11tensor_castIdlQsr3stdE18is_constructible_vIT_T0_EEENS_6TensorIS1_EERKNS3_IS2_EEENKUlRKSt6vectorImSaImEEE_clESC_
FN:908,_ZN2sb11tensor_castIjiQsr3stdE18is_constructible_vIT_T0_EEENS_6TensorIS1_EERKNS3_IS2_EE
FN:910,_ZZN2sb11tensor_castIjiQsr3stdE18is_constructible_vIT_T0_EEENS_6TensorIS1_EERKNS3_IS2_EEENKUlRKSt6vectorImSaImEEE_clESC_
FN:908,_ZN2sb11tensor_castImiQsr3stdE18is_constructible_vIT_T0_EEENS_6TensorIS1_EERKNS3_IS2_EE
FN:910,_ZZN2sb11tensor_castImiQsr3stdE18is_constructible_vIT_T0_EEENS_6TensorIS1_EERKNS3_IS2_EEENKUlRKSt6vectorImSaImEEE_clESC_
FN:908,_ZN2sb11tensor_castIjlQsr3stdE18is_constructible_vIT_T0_EEENS_6TensorIS1_EERKNS3_IS2_EE
FN:910,_ZZN2sb11tensor_castIjlQsr3stdE18is_constructible_vIT_T0_EEENS_6TensorIS1_EERKNS3_IS2_EEENKUlRKSt6vectorImSaImEEE_clESC_
FN:908,_ZN2sb11tensor_castImlQsr3stdE18is_constructible_vIT_T0_EEENS_6TensorIS1_EERKNS3_IS2_EE
FN:910,_ZZN2sb11tensor_castImlQsr3stdE18is_constructible_vIT_T0_EEENS_6TensorIS1_EERKNS3_IS2_EEENKUlRKSt6vectorImSaImEEE_clESC_
FN:908,_ZN2sb11tensor_castIijQsr3stdE18is_constructible_vIT_T0_EEENS_6TensorIS1_EERKNS3_IS2_EE
FN:910,_ZZN2sb11tensor_castIijQsr3stdE18is_constructible_vIT_T0_EEENS_6TensorIS1_EERKNS3_IS2_EEENKUlRKSt6vectorImSaImEEE_clESC_
FN:908,_ZN2sb11tensor_castIljQsr3stdE18is_constructible_vIT_T0_EEENS_6TensorIS1_EERKNS3_IS2_EE
FN:910,_ZZN2sb11tensor_castIljQsr3stdE18is_constructible_vIT_T0_EEENS_6TensorIS1_EERKNS3_IS2_EEENKUlRKSt6vectorImSaImEEE_clESC_
FN:908,_ZN2sb11tensor_castIimQsr3stdE18is_constructible_vIT_T0_EEENS_6TensorIS1_EERKNS3_IS2_EE
FN:910,_ZZN2sb11tensor_castIimQsr3stdE18is_constructible_vIT_T0_EEENS_6TensorIS1_EERKNS3_IS2_EEENKUlRKSt6vectorImSaImEEE_clESC_
FN:908,_ZN2sb11tensor_castIlmQsr3stdE18is_constructible_vIT_T0_EEENS_6TensorIS1_EERKNS3_IS2_EE
FN:910,_ZZN2sb11tensor_castIlmQsr3stdE18is_constructible_vIT_T0_EEENS_6TensorIS1_EERKNS3_IS2_EEENKUlRKSt6vectorImSaImEEE_clESC_
FN:908,_ZN2sb11tensor_castINS_3PcfIddEENS1_IffEEQsr3stdE18is_constructible_vIT_T0_EEENS_6TensorIS4_EERKNS6_IS5_EE
FN:910,_ZZN2sb11tensor_castINS_3PcfIddEENS1_IffEEQsr3stdE18is_constructible_vIT_T0_EEENS_6TensorIS4_EERKNS6_IS5_EEENKUlRKSt6vectorImSaImEEE_clESF_
FN:908,_ZN2sb11tensor_castINS_3PcfIffEENS1_IddEEQsr3stdE18is_constructible_vIT_T0_EEENS_6TensorIS4_EERKNS6_IS5_EE
FN:910,_ZZN2sb11tensor_castINS_3PcfIffEENS1_IddEEQsr3stdE18is_constructible_vIT_T0_EEENS_6TensorIS4_EERKNS6_IS5_EEENKUlRKSt6vectorImSaImEEE_clESF_
FN:908,_ZN2sb11tensor_castINS_3PcfIllEENS1_IiiEEQsr3stdE18is_constructible_vIT_T0_EEENS_6TensorIS4_EERKNS6_IS5_EE
FN:27,_ZN2sb6TensorINS_3PcfIllEEEC2ERKSt6vectorImSaImEERKS2_
FN:1613,_ZNK2sb6TensorINS_3PcfIllEEE14get_total_sizeEv
FN:910,_ZZN2sb11tensor_castINS_3PcfIllEENS1_IiiEEQsr3stdE18is_constructible_vIT_T0_EEENS_6TensorIS4_EERKNS6_IS5_EEENKUlRKSt6vectorImSaImEEE_clESF_
FN:90,_ZNK2sb6TensorINS_3PcfIiiEEEclERKSt6vectorImSaImEE
FN:1649,_ZNK2sb6TensorINS_3PcfIiiEEE12index_to_refERKSt6vectorImSaImEE
FN:1619,_ZNK2sb6TensorINS_3PcfIiiEEE19index_to_data_indexERKSt6vectorImSaImEE
FN:1625,_ZZNK2sb6TensorINS_3PcfIiiEEE19index_to_data_indexERKSt6vectorImSaImEEENKUlmlE_clEml
FN:96,_ZN2sb6TensorINS_3PcfIllEEEclERKSt6vectorImSaImEE
FN:1655,_ZN2sb6TensorINS_3PcfIllEEE12index_to_refERKSt6vectorImSaImEE
FN:1619,_ZNK2sb6TensorINS_3PcfIllEEE19index_to_data_indexERKSt6vectorImSaImEE
FN:1625,_ZZNK2sb6TensorINS_3PcfIllEEE19index_to_data_indexERKSt6vectorImSaImEEENKUlmlE_clEml
FN:908,_ZN2sb11tensor_castINS_3PcfIiiEENS1_IllEEQsr3stdE18is_constructible_vIT_T0_EEENS_6TensorIS4_EERKNS6_IS5_EE
FN:27,_ZN2sb6TensorINS_3PcfIiiEEEC2ERKSt6vectorImSaImEERKS2_
FN:1613,_ZNK2sb6TensorINS_3PcfIiiEEE14get_total_sizeEv
FN:910,_ZZN2sb11tensor_castINS_3PcfIiiEENS1_IllEEQsr3stdE18is_constructible_vIT_T0_EEENS_6TensorIS4_EERKNS6_IS5_EEENKUlRKSt6vectorImSaImEEE_clESF_
FN:90,_ZNK2sb6TensorINS_3PcfIllEEEclERKSt6vectorImSaImEE
FN:1649,_ZNK2sb6TensorINS_3PcfIllEEE12index_to_refERKSt6vectorImSaImEE
FN:96,_ZN2sb6TensorINS_3PcfIiiEEEclERKSt6vectorImSaImEE
FN:1655,_ZN2sb6TensorINS_3PcfIiiEEE12index_to_refERKSt6vectorImSaImEE
FN:919,_ZN2sb11pcloud_castIdfQsr3stdE18is_constructible_vIT_T0_EEENS_6TensorINS3_IS1_EEEERKNS3_INS3_IS2_EEEE
FN:27,_ZN2sb6TensorINS0_IdEEEC2ERKSt6vectorImSaImEERKS1_
FN:1613,_ZNK2sb6TensorINS0_IdEEE14get_total_sizeEv
FN:921,_ZZN2sb11pcloud_castIdfQsr3stdE18is_constructible_vIT_T0_EEENS_6TensorINS3_IS1_EEEERKNS3_INS3_IS2_EEEEENKUlRKSt6vectorImSaImEEE_clESE_
FN:90,_ZNK2sb6TensorINS0_IfEEEclERKSt6vectorImSaImEE
FN:1649,_ZNK2sb6TensorINS0_IfEEE12index_to_refERKSt6vectorImSaImEE
FN:1619,_ZNK2sb6TensorINS0_IfEEE19index_to_data_indexERKSt6vectorImSaImEE
FN:1625,_ZZNK2sb6TensorINS0_IfEEE19index_to_data_indexERKSt6vectorImSaImEEENKUlmlE_clEml
FN:96,_ZN2sb6TensorINS0_IdEEEclERKSt6vectorImSaImEE
FN:1655,_ZN2sb6TensorINS0_IdEEE12index_to_refERKSt6vectorImSaImEE
FN:1619,_ZNK2sb6TensorINS0_IdEEE19index_to_data_indexERKSt6vectorImSaImEE
FN:1625,_ZZNK2sb6TensorINS0_IdEEE19index_to_data_indexERKSt6vectorImSaImEEENKUlmlE_clEml
FN:919,_ZN2sb11pcloud_castIfdQsr3stdE18is_constructible_vIT_T0_EEENS_6TensorINS3_IS1_EEEERKNS3_INS3_IS2_EEEE
FN:27,_ZN2sb6TensorINS0_IfEEEC2ERKSt6vectorImSaImEERKS1_
FN:1613,_ZNK2sb6TensorINS0_IfEEE14get_total_sizeEv
FN:921,_ZZN2sb11pcloud_castIfdQsr3stdE18is_constructible_vIT_T0_EEENS_6TensorINS3_IS1_EEEERKNS3_INS3_IS2_EEEEENKUlRKSt6vectorImSaImEEE_clESE_
FN:90,_ZNK2sb6TensorINS0_IdEEEclERKSt6vectorImSaImEE
FN:1649,_ZNK2sb6TensorINS0_IdEEE12index_to_refERKSt6vectorImSaImEE
FN:96,_ZN2sb6TensorINS0_IfEEEclERKSt6vectorImSaImEE
FN:1655,_ZN2sb6TensorINS0_IfEEE12index_to_refERKSt6vectorImSaImEE
FN:84,_ZNK2sb6TensorIbEixISt6vectorISt7variantIJNS_10SliceIndexENS_10SliceRangeEEESaIS7_EEEES1_T_
FN:1476,_ZNK2sb6TensorIbE7extractISt6vectorISt7variantIJNS_10SliceIndexENS_10SliceRangeEEESaIS7_EEEES1_T_
FN:1499,_ZZNK2sb6TensorIbE7extractISt6vectorISt7variantIJNS_10SliceIndexENS_10SliceRangeEEESaIS7_EEEES1_T_ENKUlOSA_E_clIRS5_EEDaSB_
FN:1499,_ZZNK2sb6TensorIbE7extractISt6vectorISt7variantIJNS_10SliceIndexENS_10SliceRangeEEESaIS7_EEEES1_T_ENKUlOSA_E_clIRS6_EEDaSB_
FN:128,_ZN2sb6TensorIbE11assign_fromIbQsr3stdE18is_constructible_vIT_TL0__EEEvRKNS0_IS3_EE
FN:362,_ZNK2sb6TensorIbE12broadcast_toERKSt6vectorImSaImEE
FN:152,_ZZN2sb6TensorIbE11assign_fromIbQsr3stdE18is_constructible_vIT_TL0__EEEvRKNS0_IS3_EEENKUlRKSt6vectorImSaImEEE_clESC_
FN:162,_ZZN2sb6TensorIbE11assign_fromIbQsr3stdE18is_constructible_vIT_TL0__EEEvRKNS0_IS3_EEENKUlRKSt6vectorImSaImEEE0_clESC_
FN:486,_ZN2sb14elementwise_eqIbQsr3stdE19equality_comparableIT_EEENS_6TensorIbEERKNS2_IS1_EES6_
FN:418,_ZN2sb6detail15broadcast_binopIbZNS_14elementwise_eqIbQsr3stdE19equality_comparableIT_EEENS_6TensorIbEERKNS4_IS3_EES8_EUlRKbSA_E_bEENS4_IT1_EES8_S8_T0_
FN:423,_ZZN2sb6detail15broadcast_binopIbZNS_14elementwise_eqIbQsr3stdE19equality_comparableIT_EEENS_6TensorIbEERKNS4_IS3_EES8_EUlRKbSA_E_bEENS4_IT1_EES8_S8_T0_ENKUlRKSt6vectorImSaImEEE_clESJ_
FN:486,_ZZN2sb14elementwise_eqIbQsr3stdE19equality_comparableIT_EEENS_6TensorIbEERKNS2_IS1_EES6_ENKUlRKbS8_E_clES8_S8_
FN:491,_ZN2sb14elementwise_neIbQsr3stdE19equality_comparableIT_EEENS_6TensorIbEERKNS2_IS1_EES6_
FN:418,_ZN2sb6detail15broadcast_binopIbZNS_14elementwise_neIbQsr3stdE19equality_comparableIT_EEENS_6TensorIbEERKNS4_IS3_EES8_EUlRKbSA_E_bEENS4_IT1_EES8_S8_T0_
FN:423,_ZZN2sb6detail15broadcast_binopIbZNS_14elementwise_neIbQsr3stdE19equality_comparableIT_EEENS_6TensorIbEERKNS4_IS3_EES8_EUlRKbSA_E_bEENS4_IT1_EES8_S8_T0_ENKUlRKSt6vectorImSaImEEE_clESJ_
FN:491,_ZZN2sb14elementwise_neIbQsr3stdE19equality_comparableIT_EEENS_6TensorIbEERKNS2_IS1_EES6_ENKUlRKbS8_E_clES8_S8_
FN:53,_ZNK2sb6TensorIbEeqIbQsr3stdE24equality_comparable_withITL0__T_EEEbRKNS0_IS4_EE
FN:60,_ZZNK2sb6TensorIbEeqIbQsr3stdE24equality_comparable_withITL0__T_EEEbRKNS0_IS4_EEENKUlRKSt6vectorImSaImEEE_clESC_
FN:90,_ZNK2sb6TensorIbEclERKSt6vectorImSaImEE
FN:108,_ZN2sb6TensorIbEclEm
FN:1198,_ZNK2sb6TensorIbE4copyEv
FN:1201,_ZZNK2sb6TensorIbE4copyEvENKUlRKSt6vectorImSaImEEE_clES6_
FN:1210,_ZNK2sb6TensorIbE7flattenEv
FN:1229,_ZNK2sb6TensorIbE7reshapeERKSt6vectorIlSaIlEE
FN:1369,_ZNK2sb6TensorIbE9transposeERKSt6vectorImSaImEE
FN:1414,_ZNK2sb6TensorIbE8swapaxesEmm
FN:1294,_ZNK2sb6TensorIbE7squeezeEv
FN:1315,_ZNK2sb6TensorIbE7squeezeEm
FN:1343,_ZNK2sb6TensorIbE11expand_dimsEl
FN:933,_ZN2sb11concatenateIbEENS_6TensorIT_EERKSt6vectorIS3_SaIS3_EEm
FN:967,_ZZN2sb11concatenateIbEENS_6TensorIT_EERKSt6vectorIS3_SaIS3_EEmENKUlRKS4_ImSaImEEE_clESC_
FN:980,_ZN2sb5stackIbEENS_6TensorIT_EERKSt6vectorIS3_SaIS3_EEl
FN:1048,_ZN2sb5splitIbEESt6vectorINS_6TensorIT_EESaIS4_EERKS4_mm
FN:1011,_ZN2sb5splitIbEESt6vectorINS_6TensorIT_EESaIS4_EERKS4_RKS1_ImSaImEEm
FN:1075,_ZN2sb11array_splitIbEESt6vectorINS_6TensorIT_EESaIS4_EERKS4_mm
FN:262,_ZNK2sb6TensorIbEngEvQ9CanNegateIT_E
FN:1469,_ZN2sb6TensorIbE5applyIZNKS1_ngEvQ9CanNegateIT_EEUlRbE_Qsr3stdE9invocableITL0__RS3_EEEvOS3_
FN:1470,_ZZN2sb6TensorIbE5applyIZNKS1_ngEvQ9CanNegateIT_EEUlRbE_Qsr3stdE9invocableITL0__RS3_EEEvOS3_ENKUlRKSt6vectorImSaImEEE_clESD_
FN:264,_ZZNK2sb6TensorIbEngEvQ9CanNegateIT_EENKUlRbE_clES3_
FN:496,_ZN2sb14elementwise_ltIbQ8CanOrderIT_EEENS_6TensorIbEERKNS2_IS1_EES6_
FN:418,_ZN2sb6detail15broadcast_binopIbZNS_14elementwise_ltIbQ8CanOrderIT_EEENS_6TensorIbEERKNS4_IS3_EES8_EUlRKbSA_E_bEENS4_IT1_EES8_S8_T0_
FN:423,_ZZN2sb6detail15broadcast_binopIbZNS_14elementwise_ltIbQ8CanOrderIT_EEENS_6TensorIbEERKNS4_IS3_EES8_EUlRKbSA_E_bEENS4_IT1_EES8_S8_T0_ENKUlRKSt6vectorImSaImEEE_clESJ_
FN:496,_ZZN2sb14elementwise_ltIbQ8CanOrderIT_EEENS_6TensorIbEERKNS2_IS1_EES6_ENKUlRKbS8_E_clES8_S8_
FN:501,_ZN2sb14elementwise_leIbQ8CanOrderIT_EEENS_6TensorIbEERKNS2_IS1_EES6_
FN:418,_ZN2sb6detail15broadcast_binopIbZNS_14elementwise_leIbQ8CanOrderIT_EEENS_6TensorIbEERKNS4_IS3_EES8_EUlRKbSA_E_bEENS4_IT1_EES8_S8_T0_
FN:423,_ZZN2sb6detail15broadcast_binopIbZNS_14elementwise_leIbQ8CanOrderIT_EEENS_6TensorIbEERKNS4_IS3_EES8_EUlRKbSA_E_bEENS4_IT1_EES8_S8_T0_ENKUlRKSt6vectorImSaImEEE_clESJ_
FN:501,_ZZN2sb14elementwise_leIbQ8CanOrderIT_EEENS_6TensorIbEERKNS2_IS1_EES6_ENKUlRKbS8_E_clES8_S8_
FN:506,_ZN2sb14elementwise_gtIbQ8CanOrderIT_EEENS_6TensorIbEERKNS2_IS1_EES6_
FN:418,_ZN2sb6detail15broadcast_binopIbZNS_14elementwise_gtIbQ8CanOrderIT_EEENS_6TensorIbEERKNS4_IS3_EES8_EUlRKbSA_E_bEENS4_IT1_EES8_S8_T0_
FN:423,_ZZN2sb6detail15broadcast_binopIbZNS_14elementwise_gtIbQ8CanOrderIT_EEENS_6TensorIbEERKNS4_IS3_EES8_EUlRKbSA_E_bEENS4_IT1_EES8_S8_T0_ENKUlRKSt6vectorImSaImEEE_clESJ_
FN:506,_ZZN2sb14elementwise_gtIbQ8CanOrderIT_EEENS_6TensorIbEERKNS2_IS1_EES6_ENKUlRKbS8_E_clES8_S8_
FN:511,_ZN2sb14elementwise_geIbQ8CanOrderIT_EEENS_6TensorIbEERKNS2_IS1_EES6_
FN:418,_ZN2sb6detail15broadcast_binopIbZNS_14elementwise_geIbQ8CanOrderIT_EEENS_6TensorIbEERKNS4_IS3_EES8_EUlRKbSA_E_bEENS4_IT1_EES8_S8_T0_
FN:423,_ZZN2sb6detail15broadcast_binopIbZNS_14elementwise_geIbQ8CanOrderIT_EEENS_6TensorIbEERKNS4_IS3_EES8_EUlRKbSA_E_bEENS4_IT1_EES8_S8_T0_ENKUlRKSt6vectorImSaImEEE_clESJ_
FN:511,_ZZN2sb14elementwise_geIbQ8CanOrderIT_EEENS_6TensorIbEERKNS2_IS1_EES6_ENKUlRKbS8_E_clES8_S8_
FN:446,_ZNK2sb6TensorIbEplERKS1_
FN:418,_ZN2sb6detail15broadcast_binopIbZNKS_6TensorIbEplERKS3_EUlRKbS7_E_bEENS2_IT1_EERKNS2_IT_EESE_T0_
FN:423,_ZZN2sb6detail15broadcast_binopIbZNKS_6TensorIbEplERKS3_EUlRKbS7_E_bEENS2_IT1_EERKNS2_IT_EESE_T0_ENKUlRKSt6vectorImSaImEEE_clESK_
FN:446,_ZZNK2sb6TensorIbEplERKS1_ENKUlRKbS5_E_clES5_S5_
FN:467,_ZN2sb6TensorIbEpLERKS1_
FN:431,_ZN2sb6detail23broadcast_binop_inplaceIbZNS_6TensorIbEpLERKS3_EUlRKbS7_E_EERNS2_IT_EESB_RKSA_T0_
FN:437,_ZZN2sb6detail23broadcast_binop_inplaceIbZNS_6TensorIbEpLERKS3_EUlRKbS7_E_EERNS2_IT_EESB_RKSA_T0_ENKUlRKSt6vectorImSaImEEE_clESJ_
FN:467,_ZZN2sb6TensorIbEpLERKS1_ENKUlRKbS5_E_clES5_S5_
FN:450,_ZNK2sb6TensorIbEmiERKS1_
FN:418,_ZN2sb6detail15broadcast_binopIbZNKS_6TensorIbEmiERKS3_EUlRKbS7_E_bEENS2_IT1_EERKNS2_IT_EESE_T0_
FN:423,_ZZN2sb6detail15broadcast_binopIbZNKS_6TensorIbEmiERKS3_EUlRKbS7_E_bEENS2_IT1_EERKNS2_IT_EESE_T0_ENKUlRKSt6vectorImSaImEEE_clESK_
FN:450,_ZZNK2sb6TensorIbEmiERKS1_ENKUlRKbS5_E_clES5_S5_
FN:471,_ZN2sb6TensorIbEmIERKS1_
FN:431,_ZN2sb6detail23broadcast_binop_inplaceIbZNS_6TensorIbEmIERKS3_EUlRKbS7_E_EERNS2_IT_EESB_RKSA_T0_
FN:437,_ZZN2sb6detail23broadcast_binop_inplaceIbZNS_6TensorIbEmIERKS3_EUlRKbS7_E_EERNS2_IT_EESB_RKSA_T0_ENKUlRKSt6vectorImSaImEEE_clESJ_
FN:471,_ZZN2sb6TensorIbEmIERKS1_ENKUlRKbS5_E_clES5_S5_
FN:454,_ZNK2sb6TensorIbEmlERKS1_
FN:418,_ZN2sb6detail15broadcast_binopIbZNKS_6TensorIbEmlERKS3_EUlRKbS7_E_bEENS2_IT1_EERKNS2_IT_EESE_T0_
FN:423,_ZZN2sb6detail15broadcast_binopIbZNKS_6TensorIbEmlERKS3_EUlRKbS7_E_bEENS2_IT1_EERKNS2_IT_EESE_T0_ENKUlRKSt6vectorImSaImEEE_clESK_
FN:456,_ZZNK2sb6TensorIbEmlERKS1_ENKUlRKbS5_E_clES5_S5_
FN:475,_ZN2sb6TensorIbEmLERKS1_
FN:431,_ZN2sb6detail23broadcast_binop_inplaceIbZNS_6TensorIbEmLERKS3_EUlRKbS7_E_EERNS2_IT_EESB_RKSA_T0_
FN:437,_ZZN2sb6detail23broadcast_binop_inplaceIbZNS_6TensorIbEmLERKS3_EUlRKbS7_E_EERNS2_IT_EESB_RKSA_T0_ENKUlRKSt6vectorImSaImEEE_clESJ_
FN:475,_ZZN2sb6TensorIbEmLERKS1_ENKUlRKbS5_E_clES5_S5_
FN:463,_ZNK2sb6TensorIbEdvERKS1_
FN:418,_ZN2sb6detail15broadcast_binopIbZNKS_6TensorIbEdvERKS3_EUlRKbS7_E_bEENS2_IT1_EERKNS2_IT_EESE_T0_
FN:423,_ZZN2sb6detail15broadcast_binopIbZNKS_6TensorIbEdvERKS3_EUlRKbS7_E_bEENS2_IT1_EERKNS2_IT_EESE_T0_ENKUlRKSt6vectorImSaImEEE_clESK_
FN:463,_ZZNK2sb6TensorIbEdvERKS1_ENKUlRKbS5_E_clES5_S5_
FN:479,_ZN2sb6TensorIbEdVERKS1_
FN:431,_ZN2sb6detail23broadcast_binop_inplaceIbZNS_6TensorIbEdVERKS3_EUlRKbS7_E_EERNS2_IT_EESB_RKSA_T0_
FN:437,_ZZN2sb6detail23broadcast_binop_inplaceIbZNS_6TensorIbEdVERKS3_EUlRKbS7_E_EERNS2_IT_EESB_RKSA_T0_ENKUlRKSt6vectorImSaImEEE_clESJ_
FN:479,_ZZN2sb6TensorIbEdVERKS1_ENKUlRKbS5_E_clES5_S5_
FN:519,_ZN2sb13masked_selectIbEENS_6TensorIT_EERKS3_RKNS1_IbEE
FN:528,_ZZN2sb13masked_selectIbEENS_6TensorIT_EERKS3_RKNS1_IbEEENKUlRKSt6vectorImSaImEEE_clESD_
FN:546,_ZN2sb13masked_assignIbEEvRNS_6TensorIT_EERKNS1_IbEERKS3_
FN:554,_ZZN2sb13masked_assignIbEEvRNS_6TensorIT_EERKNS1_IbEERKS3_ENKUlRKSt6vectorImSaImEEE_clESE_
FN:1188,_ZNK2sb6TensorIbE4sizeEv
FN:576,_ZN2sb11masked_fillIbEEvRNS_6TensorIT_EERKNS1_IbEERKS2_
FN:583,_ZZN2sb11masked_fillIbEEvRNS_6TensorIT_EERKNS1_IbEERKS2_ENKUlRKSt6vectorImSaImEEE_clESE_
FN:620,_ZN2sb11axis_selectIbEENS_6TensorIT_EERKS3_mRKNS1_IbEE
FN:634,_ZZN2sb11axis_selectIbEENS_6TensorIT_EERKS3_mRKNS1_IbEEENKUlRKSt6vectorImSaImEEE_clESD_
FN:645,_ZN2sb11axis_assignIbEEvRNS_6TensorIT_EEmRKNS1_IbEERKS3_
FN:659,_ZZN2sb11axis_assignIbEEvRNS_6TensorIT_EEmRKNS1_IbEERKS3_ENKUlRKSt6vectorImSaImEEE_clESE_
FN:668,_ZN2sb9axis_fillIbEEvRNS_6TensorIT_EEmRKNS1_IbEERKS2_
FN:671,_ZZN2sb9axis_fillIbEEvRNS_6TensorIT_EEmRKNS1_IbEERKS2_ENKUlRKSt6vectorImSaImEEE_clESE_
FN:703,_ZN2sb17multi_axis_selectIbEENS_6TensorIT_EERKS3_RKSt6vectorISt4pairImNS1_IbEEESaIS9_EE
FN:711,_ZZN2sb17multi_axis_selectIbEENS_6TensorIT_EERKS3_RKSt6vectorISt4pairImNS1_IbEEESaIS9_EEENKUlRKS6_ImSaImEEE_clESH_
FN:743,_ZN2sb17multi_axis_assignIbEEvRNS_6TensorIT_EERKSt6vectorISt4pairImNS1_IbEEESaIS8_EERKS3_
FN:758,_ZZN2sb17multi_axis_assignIbEEvRNS_6TensorIT_EERKSt6vectorISt4pairImNS1_IbEEESaIS8_EERKS3_ENKUlRKS5_ImSaImEEE_clESI_
FN:725,_ZN2sb15multi_axis_fillIbEEvRNS_6TensorIT_EERKSt6vectorISt4pairImNS1_IbEEESaIS8_EERKS2_
FN:729,_ZZN2sb15multi_axis_fillIbEEvRNS_6TensorIT_EERKSt6vectorISt4pairImNS1_IbEEESaIS8_EERKS2_ENKUlRKS5_ImSaImEEE_clESI_
FN:830,_ZN2sb12outer_selectIbEENS_6TensorIT_EERKS3_RKSt6vectorISt4pairImSt7variantIJNS1_IbEENS1_IlEEEEESaISC_EE
FN:792,_ZZN2sb6detail17resolve_selectorsERKSt6vectorISt4pairImSt7variantIJNS_6TensorIbEENS4_IlEEEEESaIS8_EERKS1_ImSaImEEENKUlRKT_E_clIS5_EEDaSJ_
FN:792,_ZZN2sb6detail17resolve_selectorsERKSt6vectorISt4pairImSt7variantIJNS_6TensorIbEENS4_IlEEEEESaIS8_EERKS1_ImSaImEEENKUlRKT_E_clIS6_EEDaSJ_
FN:838,_ZZN2sb12outer_selectIbEENS_6TensorIT_EERKS3_RKSt6vectorISt4pairImSt7variantIJNS1_IbEENS1_IlEEEEESaISC_EEENKUlRKS6_ImSaImEEE_clESK_
FN:878,_ZN2sb12outer_assignIbEEvRNS_6TensorIT_EERKSt6vectorISt4pairImSt7variantIJNS1_IbEENS1_IlEEEEESaISB_EERKS3_
FN:893,_ZZN2sb12outer_assignIbEEvRNS_6TensorIT_EERKSt6vectorISt4pairImSt7variantIJNS1_IbEENS1_IlEEEEESaISB_EERKS3_ENKUlRKS5_ImSaImEEE_clESL_
FN:852,_ZN2sb10outer_fillIbEEvRNS_6TensorIT_EERKSt6vectorISt4pairImSt7variantIJNS1_IbEENS1_IlEEEEESaISB_EERKS2_
FN:864,_ZZN2sb10outer_fillIbEEvRNS_6TensorIT_EERKSt6vectorISt4pairImSt7variantIJNS1_IbEENS1_IlEEEEESaISB_EERKS2_ENKUlRKS5_ImSaImEEE_clESL_
FN:1129,_ZN2sb12index_selectIblEENS_6TensorIT_EERKS3_mRKNS1_IT0_EE
FN:1103,_ZN2sb6detail21validate_axis_indicesIlEEvmmRKNS_6TensorIT_EEm
FN:1141,_ZZN2sb12index_selectIblEENS_6TensorIT_EERKS3_mRKNS1_IT0_EEENKUlRKSt6vectorImSaImEEE_clESE_
FN:1152,_ZN2sb12index_assignIblEEvRNS_6TensorIT_EEmRKNS1_IT0_EERKS3_
FN:1163,_ZZN2sb12index_assignIblEEvRNS_6TensorIT_EEmRKNS1_IT0_EERKS3_ENKUlRKSt6vectorImSaImEEE_clESF_
FN:1172,_ZN2sb10index_fillIblEEvRNS_6TensorIT_EEmRKNS1_IT0_EERKS2_
FN:1179,_ZZN2sb10index_fillIblEEvRNS_6TensorIT_EEmRKNS1_IT0_EERKS2_ENKUlRKSt6vectorImSaImEEE_clESF_
FN:232,_ZNK2sb6TensorIbEplIbQ8CanAddToIT_S3_TL0__EEES1_RKS3_
FN:220,_ZN2sb6TensorIbEpLIbQ8CanAddToIT_S3_TL0__EEERS1_RKS3_
FN:1469,_ZN2sb6TensorIbE5applyIZNS1_pLIbQ8CanAddToIT_S4_TL0__EEERS1_RKS4_EUlRbE_Qsr3stdE9invocableIS5_RS4_EEEvOS4_
FN:1470,_ZZN2sb6TensorIbE5applyIZNS1_pLIbQ8CanAddToIT_S4_TL0__EEERS1_RKS4_EUlRbE_Qsr3stdE9invocableIS5_RS4_EEEvOS4_ENKUlRKSt6vectorImSaImEEE_clESH_
FN:221,_ZZN2sb6TensorIbEpLIbQ8CanAddToIT_S3_TL0__EEERS1_RKS3_ENKUlRbE_clES8_
FN:287,_ZN2sbplIbbQ8CanAddToIT0_T_S1_EEENS_6TensorIS1_EERKS2_RKS4_
FN:1469,_ZN2sb6TensorIbE5applyIZNS_plIbbQ8CanAddToIT0_T_S4_EEENS0_IS4_EERKS5_RKS6_EUlRbE_Qsr3stdE9invocableITL0__RS5_EEEvOS5_
FN:1470,_ZZN2sb6TensorIbE5applyIZNS_plIbbQ8CanAddToIT0_T_S4_EEENS0_IS4_EERKS5_RKS6_EUlRbE_Qsr3stdE9invocableITL0__RS5_EEEvOS5_ENKUlRKSt6vectorImSaImEEE_clESK_
FN:289,_ZZN2sbplIbbQ8CanAddToIT0_T_S1_EEENS_6TensorIS1_EERKS2_RKS4_ENKUlRbE_clES9_
FN:254,_ZNK2sb6TensorIbEmiIbQ13CanSubtractToIT_S3_TL0__EEES1_RKS3_
FN:242,_ZN2sb6TensorIbEmIIbQ13CanSubtractToIT_S3_TL0__EEERS1_RKS3_
FN:1469,_ZN2sb6TensorIbE5applyIZNS1_mIIbQ13CanSubtractToIT_S4_TL0__EEERS1_RKS4_EUlRbE_Qsr3stdE9invocableIS5_RS4_EEEvOS4_
FN:1470,_ZZN2sb6TensorIbE5applyIZNS1_mIIbQ13CanSubtractToIT_S4_TL0__EEERS1_RKS4_EUlRbE_Qsr3stdE9invocableIS5_RS4_EEEvOS4_ENKUlRKSt6vectorImSaImEEE_clESH_
FN:243,_ZZN2sb6TensorIbEmIIbQ13CanSubtractToIT_S3_TL0__EEERS1_RKS3_ENKUlRbE_clES8_
FN:298,_ZN2sbmiIbbQ13CanSubtractToIT0_T_S1_EEENS_6TensorIS1_EERKS2_RKS4_
FN:1469,_ZN2sb6TensorIbE5applyIZNS_miIbbQ13CanSubtractToIT0_T_S4_EEENS0_IS4_EERKS5_RKS6_EUlRbE_Qsr3stdE9invocableITL0__RS5_EEEvOS5_
FN:1470,_ZZN2sb6TensorIbE5applyIZNS_miIbbQ13CanSubtractToIT0_T_S4_EEENS0_IS4_EERKS5_RKS6_EUlRbE_Qsr3stdE9invocableITL0__RS5_EEEvOS5_ENKUlRKSt6vectorImSaImEEE_clESK_
FN:300,_ZZN2sbmiIbbQ13CanSubtractToIT0_T_S1_EEENS_6TensorIS1_EERKS2_RKS4_ENKUlRbE_clES9_
FN:210,_ZNK2sb6TensorIbEmlIbQ13CanMultiplyToIT_S3_TL0__EEES1_RKS3_
FN:195,_ZN2sb6TensorIbEmLIbQ13CanMultiplyToIT_S3_TL0__EEERS1_RKS3_
FN:1469,_ZN2sb6TensorIbE5applyIZNS1_mLIbQ13CanMultiplyToIT_S4_TL0__EEERS1_RKS4_EUlRbE_Qsr3stdE9invocableIS5_RS4_EEEvOS4_
FN:1470,_ZZN2sb6TensorIbE5applyIZNS1_mLIbQ13CanMultiplyToIT_S4_TL0__EEERS1_RKS4_EUlRbE_Qsr3stdE9invocableIS5_RS4_EEEvOS4_ENKUlRKSt6vectorImSaImEEE_clESH_
FN:196,_ZZN2sb6TensorIbEmLIbQ13CanMultiplyToIT_S3_TL0__EEERS1_RKS3_ENKUlRbE_clES8_
FN:273,_ZN2sbmlIbbQ13CanMultiplyToIT0_T_S1_EEENS_6TensorIS1_EERKS2_RKS4_
FN:1469,_ZN2sb6TensorIbE5applyIZNS_mlIbbQ13CanMultiplyToIT0_T_S4_EEENS0_IS4_EERKS5_RKS6_EUlRbE_Qsr3stdE9invocableITL0__RS5_EEEvOS5_
FN:1470,_ZZN2sb6TensorIbE5applyIZNS_mlIbbQ13CanMultiplyToIT0_T_S4_EEENS0_IS4_EERKS5_RKS6_EUlRbE_Qsr3stdE9invocableITL0__RS5_EEEvOS5_ENKUlRKSt6vectorImSaImEEE_clESK_
FN:275,_ZZN2sbmlIbbQ13CanMultiplyToIT0_T_S1_EEENS_6TensorIS1_EERKS2_RKS4_ENKUlRbE_clES9_
FN:185,_ZNK2sb6TensorIbEdvIbQ11CanDivideToIT_S3_TL0__EEES1_RKS3_
FN:173,_ZN2sb6TensorIbEdVIbQ11CanDivideToIT_S3_TL0__EEERS1_RKS3_
FN:1469,_ZN2sb6TensorIbE5applyIZNS1_dVIbQ11CanDivideToIT_S4_TL0__EEERS1_RKS4_EUlRbE_Qsr3stdE9invocableIS5_RS4_EEEvOS4_
FN:1470,_ZZN2sb6TensorIbE5applyIZNS1_dVIbQ11CanDivideToIT_S4_TL0__EEERS1_RKS4_EUlRbE_Qsr3stdE9invocableIS5_RS4_EEEvOS4_ENKUlRKSt6vectorImSaImEEE_clESH_
FN:174,_ZZN2sb6TensorIbEdVIbQ11CanDivideToIT_S3_TL0__EEERS1_RKS3_ENKUlRbE_clES8_
FN:309,_ZN2sbdvIbbQ11CanDivideToIT0_T_S1_EEENS_6TensorIS1_EERKS2_RKS4_
FN:1469,_ZN2sb6TensorIbE5applyIZNS_dvIbbQ11CanDivideToIT0_T_S4_EEENS0_IS4_EERKS5_RKS6_EUlRbE_Qsr3stdE9invocableITL0__RS5_EEEvOS5_
FN:1470,_ZZN2sb6TensorIbE5applyIZNS_dvIbbQ11CanDivideToIT0_T_S4_EEENS0_IS4_EERKS5_RKS6_EUlRbE_Qsr3stdE9invocableITL0__RS5_EEEvOS5_ENKUlRKSt6vectorImSaImEEE_clESK_
FN:311,_ZZN2sbdvIbbQ11CanDivideToIT0_T_S1_EEENS_6TensorIS1_EERKS2_RKS4_ENKUlRbE_clES9_
FN:331,_ZN2sb3powIbbQ6CanPowIT_T0_EEENS_6TensorIS1_EERKS4_S2_
FN:1469,_ZN2sb6TensorIbE5applyIZNS_3powIbbQ6CanPowIT_T0_EEENS0_IS4_EERKS6_S5_EUlRbE_Qsr3stdE9invocableITL0__RS4_EEEvOS4_
FN:1470,_ZZN2sb6TensorIbE5applyIZNS_3powIbbQ6CanPowIT_T0_EEENS0_IS4_EERKS6_S5_EUlRbE_Qsr3stdE9invocableITL0__RS4_EEEvOS4_ENKUlRKSt6vectorImSaImEEE_clESI_
FN:333,_ZZN2sb3powIbbQ6CanPowIT_T0_EEENS_6TensorIS1_EERKS4_S2_ENKUlRbE_clES7_
FN:1432,_ZNK2sb6TensorIbE6any_ofIZZN5sb_py30register_typed_tensor_bindingsIbEEvRN8pybind117module_ERKNSt7__cxx1112basic_stringIcSt11char_traitsIcESaIcEEESF_ENKUlRKS1_bE7_clESH_bEUlRKbE_Qsr3stdE9invocableITL0__RKT_EEEbOSN_
FN:1664,_ZN2sb6any_ofIbZZN5sb_py30register_typed_tensor_bindingsIbEEvRN8pybind117module_ERKNSt7__cxx1112basic_stringIcSt11char_traitsIcESaIcEEESD_ENKUlRKNS_6TensorIbEEbE7_clESH_bEUlRKbE_Qsr3stdE9invocableIT0_RKT_EEEbRKNSE_ISN_EEOSM_
FN:1666,_ZZN2sb6any_ofIbZZN5sb_py30register_typed_tensor_bindingsIbEEvRN8pybind117module_ERKNSt7__cxx1112basic_stringIcSt11char_traitsIcESaIcEEESD_ENKUlRKNS_6TensorIbEEbE7_clESH_bEUlRKbE_Qsr3stdE9invocableIT0_RKT_EEEbRKNSE_ISN_EEOSM_ENKUlRKSt6vectorImSaImEEE_clESY_
FN:350,_ZN2sb4ipowIbbQ6CanPowIT_T0_EEEvRNS_6TensorIS1_EES2_
FN:1469,_ZN2sb6TensorIbE5applyIZNS_4ipowIbbQ6CanPowIT_T0_EEEvRNS0_IS4_EES5_EUlRbE_Qsr3stdE9invocableITL0__RS4_EEEvOS4_
FN:1470,_ZZN2sb6TensorIbE5applyIZNS_4ipowIbbQ6CanPowIT_T0_EEEvRNS0_IS4_EES5_EUlRbE_Qsr3stdE9invocableITL0__RS4_EEEvOS4_ENKUlRKSt6vectorImSaImEEE_clESH_
FN:351,_ZZN2sb4ipowIbbQ6CanPowIT_T0_EEEvRNS_6TensorIS1_EES2_ENKUlRbE_clES6_
FN:84,_ZNK2sb6TensorIdEixISt6vectorISt7variantIJNS_10SliceIndexENS_10SliceRangeEEESaIS7_EEEES1_T_
FN:1476,_ZNK2sb6TensorIdE7extractISt6vectorISt7variantIJNS_10SliceIndexENS_10SliceRangeEEESaIS7_EEEES1_T_
FN:1499,_ZZNK2sb6TensorIdE7extractISt6vectorISt7variantIJNS_10SliceIndexENS_10SliceRangeEEESaIS7_EEEES1_T_ENKUlOSA_E_clIRS5_EEDaSB_
FN:1499,_ZZNK2sb6TensorIdE7extractISt6vectorISt7variantIJNS_10SliceIndexENS_10SliceRangeEEESaIS7_EEEES1_T_ENKUlOSA_E_clIRS6_EEDaSB_
FN:128,_ZN2sb6TensorIdE11assign_fromIdQsr3stdE18is_constructible_vIT_TL0__EEEvRKNS0_IS3_EE
FN:362,_ZNK2sb6TensorIdE12broadcast_toERKSt6vectorImSaImEE
FN:152,_ZZN2sb6TensorIdE11assign_fromIdQsr3stdE18is_constructible_vIT_TL0__EEEvRKNS0_IS3_EEENKUlRKSt6vectorImSaImEEE_clESC_
FN:162,_ZZN2sb6TensorIdE11assign_fromIdQsr3stdE18is_constructible_vIT_TL0__EEEvRKNS0_IS3_EEENKUlRKSt6vectorImSaImEEE0_clESC_
FN:486,_ZN2sb14elementwise_eqIdQsr3stdE19equality_comparableIT_EEENS_6TensorIbEERKNS2_IS1_EES6_
FN:418,_ZN2sb6detail15broadcast_binopIdZNS_14elementwise_eqIdQsr3stdE19equality_comparableIT_EEENS_6TensorIbEERKNS4_IS3_EES8_EUlRKdSA_E_bEENS4_IT1_EES8_S8_T0_
FN:423,_ZZN2sb6detail15broadcast_binopIdZNS_14elementwise_eqIdQsr3stdE19equality_comparableIT_EEENS_6TensorIbEERKNS4_IS3_EES8_EUlRKdSA_E_bEENS4_IT1_EES8_S8_T0_ENKUlRKSt6vectorImSaImEEE_clESJ_
FN:486,_ZZN2sb14elementwise_eqIdQsr3stdE19equality_comparableIT_EEENS_6TensorIbEERKNS2_IS1_EES6_ENKUlRKdS8_E_clES8_S8_
FN:491,_ZN2sb14elementwise_neIdQsr3stdE19equality_comparableIT_EEENS_6TensorIbEERKNS2_IS1_EES6_
FN:418,_ZN2sb6detail15broadcast_binopIdZNS_14elementwise_neIdQsr3stdE19equality_comparableIT_EEENS_6TensorIbEERKNS4_IS3_EES8_EUlRKdSA_E_bEENS4_IT1_EES8_S8_T0_
FN:423,_ZZN2sb6detail15broadcast_binopIdZNS_14elementwise_neIdQsr3stdE19equality_comparableIT_EEENS_6TensorIbEERKNS4_IS3_EES8_EUlRKdSA_E_bEENS4_IT1_EES8_S8_T0_ENKUlRKSt6vectorImSaImEEE_clESJ_
FN:491,_ZZN2sb14elementwise_neIdQsr3stdE19equality_comparableIT_EEENS_6TensorIbEERKNS2_IS1_EES6_ENKUlRKdS8_E_clES8_S8_
FN:53,_ZNK2sb6TensorIdEeqIdQsr3stdE24equality_comparable_withITL0__T_EEEbRKNS0_IS4_EE
FN:60,_ZZNK2sb6TensorIdEeqIdQsr3stdE24equality_comparable_withITL0__T_EEEbRKNS0_IS4_EEENKUlRKSt6vectorImSaImEEE_clESC_
FN:108,_ZN2sb6TensorIdEclEm
FN:1198,_ZNK2sb6TensorIdE4copyEv
FN:1201,_ZZNK2sb6TensorIdE4copyEvENKUlRKSt6vectorImSaImEEE_clES6_
FN:1210,_ZNK2sb6TensorIdE7flattenEv
FN:1229,_ZNK2sb6TensorIdE7reshapeERKSt6vectorIlSaIlEE
FN:1369,_ZNK2sb6TensorIdE9transposeERKSt6vectorImSaImEE
FN:1414,_ZNK2sb6TensorIdE8swapaxesEmm
FN:1294,_ZNK2sb6TensorIdE7squeezeEv
FN:1315,_ZNK2sb6TensorIdE7squeezeEm
FN:1343,_ZNK2sb6TensorIdE11expand_dimsEl
FN:933,_ZN2sb11concatenateIdEENS_6TensorIT_EERKSt6vectorIS3_SaIS3_EEm
FN:967,_ZZN2sb11concatenateIdEENS_6TensorIT_EERKSt6vectorIS3_SaIS3_EEmENKUlRKS4_ImSaImEEE_clESC_
FN:980,_ZN2sb5stackIdEENS_6TensorIT_EERKSt6vectorIS3_SaIS3_EEl
FN:1048,_ZN2sb5splitIdEESt6vectorINS_6TensorIT_EESaIS4_EERKS4_mm
FN:1011,_ZN2sb5splitIdEESt6vectorINS_6TensorIT_EESaIS4_EERKS4_RKS1_ImSaImEEm
FN:1075,_ZN2sb11array_splitIdEESt6vectorINS_6TensorIT_EESaIS4_EERKS4_mm
FN:262,_ZNK2sb6TensorIdEngEvQ9CanNegateIT_E
FN:1469,_ZN2sb6TensorIdE5applyIZNKS1_ngEvQ9CanNegateIT_EEUlRdE_Qsr3stdE9invocableITL0__RS3_EEEvOS3_
FN:1470,_ZZN2sb6TensorIdE5applyIZNKS1_ngEvQ9CanNegateIT_EEUlRdE_Qsr3stdE9invocableITL0__RS3_EEEvOS3_ENKUlRKSt6vectorImSaImEEE_clESD_
FN:264,_ZZNK2sb6TensorIdEngEvQ9CanNegateIT_EENKUlRdE_clES3_
FN:1689,_ZN2sb8allcloseITkNS_9FloatTypeEdEEbRKNS_6TensorIT_EES5_S2_S2_
FN:1694,_ZZN2sb8allcloseITkNS_9FloatTypeEdEEbRKNS_6TensorIT_EES5_S2_S2_ENKUlRKSt6vectorImSaImEEE_clESA_
FN:496,_ZN2sb14elementwise_ltIdQ8CanOrderIT_EEENS_6TensorIbEERKNS2_IS1_EES6_
FN:418,_ZN2sb6detail15broadcast_binopIdZNS_14elementwise_ltIdQ8CanOrderIT_EEENS_6TensorIbEERKNS4_IS3_EES8_EUlRKdSA_E_bEENS4_IT1_EES8_S8_T0_
FN:423,_ZZN2sb6detail15broadcast_binopIdZNS_14elementwise_ltIdQ8CanOrderIT_EEENS_6TensorIbEERKNS4_IS3_EES8_EUlRKdSA_E_bEENS4_IT1_EES8_S8_T0_ENKUlRKSt6vectorImSaImEEE_clESJ_
FN:496,_ZZN2sb14elementwise_ltIdQ8CanOrderIT_EEENS_6TensorIbEERKNS2_IS1_EES6_ENKUlRKdS8_E_clES8_S8_
FN:501,_ZN2sb14elementwise_leIdQ8CanOrderIT_EEENS_6TensorIbEERKNS2_IS1_EES6_
FN:418,_ZN2sb6detail15broadcast_binopIdZNS_14elementwise_leIdQ8CanOrderIT_EEENS_6TensorIbEERKNS4_IS3_EES8_EUlRKdSA_E_bEENS4_IT1_EES8_S8_T0_
FN:423,_ZZN2sb6detail15broadcast_binopIdZNS_14elementwise_leIdQ8CanOrderIT_EEENS_6TensorIbEERKNS4_IS3_EES8_EUlRKdSA_E_bEENS4_IT1_EES8_S8_T0_ENKUlRKSt6vectorImSaImEEE_clESJ_
FN:501,_ZZN2sb14elementwise_leIdQ8CanOrderIT_EEENS_6TensorIbEERKNS2_IS1_EES6_ENKUlRKdS8_E_clES8_S8_
FN:506,_ZN2sb14elementwise_gtIdQ8CanOrderIT_EEENS_6TensorIbEERKNS2_IS1_EES6_
FN:418,_ZN2sb6detail15broadcast_binopIdZNS_14elementwise_gtIdQ8CanOrderIT_EEENS_6TensorIbEERKNS4_IS3_EES8_EUlRKdSA_E_bEENS4_IT1_EES8_S8_T0_
FN:423,_ZZN2sb6detail15broadcast_binopIdZNS_14elementwise_gtIdQ8CanOrderIT_EEENS_6TensorIbEERKNS4_IS3_EES8_EUlRKdSA_E_bEENS4_IT1_EES8_S8_T0_ENKUlRKSt6vectorImSaImEEE_clESJ_
FN:506,_ZZN2sb14elementwise_gtIdQ8CanOrderIT_EEENS_6TensorIbEERKNS2_IS1_EES6_ENKUlRKdS8_E_clES8_S8_
FN:511,_ZN2sb14elementwise_geIdQ8CanOrderIT_EEENS_6TensorIbEERKNS2_IS1_EES6_
FN:418,_ZN2sb6detail15broadcast_binopIdZNS_14elementwise_geIdQ8CanOrderIT_EEENS_6TensorIbEERKNS4_IS3_EES8_EUlRKdSA_E_bEENS4_IT1_EES8_S8_T0_
FN:423,_ZZN2sb6detail15broadcast_binopIdZNS_14elementwise_geIdQ8CanOrderIT_EEENS_6TensorIbEERKNS4_IS3_EES8_EUlRKdSA_E_bEENS4_IT1_EES8_S8_T0_ENKUlRKSt6vectorImSaImEEE_clESJ_
FN:511,_ZZN2sb14elementwise_geIdQ8CanOrderIT_EEENS_6TensorIbEERKNS2_IS1_EES6_ENKUlRKdS8_E_clES8_S8_
FN:446,_ZNK2sb6TensorIdEplERKS1_
FN:418,_ZN2sb6detail15broadcast_binopIdZNKS_6TensorIdEplERKS3_EUlRKdS7_E_dEENS2_IT1_EERKNS2_IT_EESE_T0_
FN:423,_ZZN2sb6detail15broadcast_binopIdZNKS_6TensorIdEplERKS3_EUlRKdS7_E_dEENS2_IT1_EERKNS2_IT_EESE_T0_ENKUlRKSt6vectorImSaImEEE_clESK_
FN:446,_ZZNK2sb6TensorIdEplERKS1_ENKUlRKdS5_E_clES5_S5_
FN:467,_ZN2sb6TensorIdEpLERKS1_
FN:431,_ZN2sb6detail23broadcast_binop_inplaceIdZNS_6TensorIdEpLERKS3_EUlRKdS7_E_EERNS2_IT_EESB_RKSA_T0_
FN:437,_ZZN2sb6detail23broadcast_binop_inplaceIdZNS_6TensorIdEpLERKS3_EUlRKdS7_E_EERNS2_IT_EESB_RKSA_T0_ENKUlRKSt6vectorImSaImEEE_clESJ_
FN:467,_ZZN2sb6TensorIdEpLERKS1_ENKUlRKdS5_E_clES5_S5_
FN:450,_ZNK2sb6TensorIdEmiERKS1_
FN:418,_ZN2sb6detail15broadcast_binopIdZNKS_6TensorIdEmiERKS3_EUlRKdS7_E_dEENS2_IT1_EERKNS2_IT_EESE_T0_
FN:423,_ZZN2sb6detail15broadcast_binopIdZNKS_6TensorIdEmiERKS3_EUlRKdS7_E_dEENS2_IT1_EERKNS2_IT_EESE_T0_ENKUlRKSt6vectorImSaImEEE_clESK_
FN:450,_ZZNK2sb6TensorIdEmiERKS1_ENKUlRKdS5_E_clES5_S5_
FN:471,_ZN2sb6TensorIdEmIERKS1_
FN:431,_ZN2sb6detail23broadcast_binop_inplaceIdZNS_6TensorIdEmIERKS3_EUlRKdS7_E_EERNS2_IT_EESB_RKSA_T0_
FN:437,_ZZN2sb6detail23broadcast_binop_inplaceIdZNS_6TensorIdEmIERKS3_EUlRKdS7_E_EERNS2_IT_EESB_RKSA_T0_ENKUlRKSt6vectorImSaImEEE_clESJ_
FN:471,_ZZN2sb6TensorIdEmIERKS1_ENKUlRKdS5_E_clES5_S5_
FN:454,_ZNK2sb6TensorIdEmlERKS1_
FN:418,_ZN2sb6detail15broadcast_binopIdZNKS_6TensorIdEmlERKS3_EUlRKdS7_E_dEENS2_IT1_EERKNS2_IT_EESE_T0_
FN:423,_ZZN2sb6detail15broadcast_binopIdZNKS_6TensorIdEmlERKS3_EUlRKdS7_E_dEENS2_IT1_EERKNS2_IT_EESE_T0_ENKUlRKSt6vectorImSaImEEE_clESK_
FN:458,_ZZNK2sb6TensorIdEmlERKS1_ENKUlRKdS5_E_clES5_S5_
FN:475,_ZN2sb6TensorIdEmLERKS1_
FN:431,_ZN2sb6detail23broadcast_binop_inplaceIdZNS_6TensorIdEmLERKS3_EUlRKdS7_E_EERNS2_IT_EESB_RKSA_T0_
FN:437,_ZZN2sb6detail23broadcast_binop_inplaceIdZNS_6TensorIdEmLERKS3_EUlRKdS7_E_EERNS2_IT_EESB_RKSA_T0_ENKUlRKSt6vectorImSaImEEE_clESJ_
FN:475,_ZZN2sb6TensorIdEmLERKS1_ENKUlRKdS5_E_clES5_S5_
FN:463,_ZNK2sb6TensorIdEdvERKS1_
FN:418,_ZN2sb6detail15broadcast_binopIdZNKS_6TensorIdEdvERKS3_EUlRKdS7_E_dEENS2_IT1_EERKNS2_IT_EESE_T0_
FN:423,_ZZN2sb6detail15broadcast_binopIdZNKS_6TensorIdEdvERKS3_EUlRKdS7_E_dEENS2_IT1_EERKNS2_IT_EESE_T0_ENKUlRKSt6vectorImSaImEEE_clESK_
FN:463,_ZZNK2sb6TensorIdEdvERKS1_ENKUlRKdS5_E_clES5_S5_
FN:479,_ZN2sb6TensorIdEdVERKS1_
FN:431,_ZN2sb6detail23broadcast_binop_inplaceIdZNS_6TensorIdEdVERKS3_EUlRKdS7_E_EERNS2_IT_EESB_RKSA_T0_
FN:437,_ZZN2sb6detail23broadcast_binop_inplaceIdZNS_6TensorIdEdVERKS3_EUlRKdS7_E_EERNS2_IT_EESB_RKSA_T0_ENKUlRKSt6vectorImSaImEEE_clESJ_
FN:479,_ZZN2sb6TensorIdEdVERKS1_ENKUlRKdS5_E_clES5_S5_
FN:519,_ZN2sb13masked_selectIdEENS_6TensorIT_EERKS3_RKNS1_IbEE
FN:528,_ZZN2sb13masked_selectIdEENS_6TensorIT_EERKS3_RKNS1_IbEEENKUlRKSt6vectorImSaImEEE_clESD_
FN:546,_ZN2sb13masked_assignIdEEvRNS_6TensorIT_EERKNS1_IbEERKS3_
FN:554,_ZZN2sb13masked_assignIdEEvRNS_6TensorIT_EERKNS1_IbEERKS3_ENKUlRKSt6vectorImSaImEEE_clESE_
FN:102,_ZNK2sb6TensorIdEclEm
FN:1188,_ZNK2sb6TensorIdE4sizeEv
FN:576,_ZN2sb11masked_fillIdEEvRNS_6TensorIT_EERKNS1_IbEERKS2_
FN:583,_ZZN2sb11masked_fillIdEEvRNS_6TensorIT_EERKNS1_IbEERKS2_ENKUlRKSt6vectorImSaImEEE_clESE_
FN:620,_ZN2sb11axis_selectIdEENS_6TensorIT_EERKS3_mRKNS1_IbEE
FN:634,_ZZN2sb11axis_selectIdEENS_6TensorIT_EERKS3_mRKNS1_IbEEENKUlRKSt6vectorImSaImEEE_clESD_
FN:645,_ZN2sb11axis_assignIdEEvRNS_6TensorIT_EEmRKNS1_IbEERKS3_
FN:659,_ZZN2sb11axis_assignIdEEvRNS_6TensorIT_EEmRKNS1_IbEERKS3_ENKUlRKSt6vectorImSaImEEE_clESE_
FN:668,_ZN2sb9axis_fillIdEEvRNS_6TensorIT_EEmRKNS1_IbEERKS2_
FN:671,_ZZN2sb9axis_fillIdEEvRNS_6TensorIT_EEmRKNS1_IbEERKS2_ENKUlRKSt6vectorImSaImEEE_clESE_
FN:703,_ZN2sb17multi_axis_selectIdEENS_6TensorIT_EERKS3_RKSt6vectorISt4pairImNS1_IbEEESaIS9_EE
FN:711,_ZZN2sb17multi_axis_selectIdEENS_6TensorIT_EERKS3_RKSt6vectorISt4pairImNS1_IbEEESaIS9_EEENKUlRKS6_ImSaImEEE_clESH_
FN:743,_ZN2sb17multi_axis_assignIdEEvRNS_6TensorIT_EERKSt6vectorISt4pairImNS1_IbEEESaIS8_EERKS3_
FN:758,_ZZN2sb17multi_axis_assignIdEEvRNS_6TensorIT_EERKSt6vectorISt4pairImNS1_IbEEESaIS8_EERKS3_ENKUlRKS5_ImSaImEEE_clESI_
FN:725,_ZN2sb15multi_axis_fillIdEEvRNS_6TensorIT_EERKSt6vectorISt4pairImNS1_IbEEESaIS8_EERKS2_
FN:729,_ZZN2sb15multi_axis_fillIdEEvRNS_6TensorIT_EERKSt6vectorISt4pairImNS1_IbEEESaIS8_EERKS2_ENKUlRKS5_ImSaImEEE_clESI_
FN:830,_ZN2sb12outer_selectIdEENS_6TensorIT_EERKS3_RKSt6vectorISt4pairImSt7variantIJNS1_IbEENS1_IlEEEEESaISC_EE
FN:838,_ZZN2sb12outer_selectIdEENS_6TensorIT_EERKS3_RKSt6vectorISt4pairImSt7variantIJNS1_IbEENS1_IlEEEEESaISC_EEENKUlRKS6_ImSaImEEE_clESK_
FN:878,_ZN2sb12outer_assignIdEEvRNS_6TensorIT_EERKSt6vectorISt4pairImSt7variantIJNS1_IbEENS1_IlEEEEESaISB_EERKS3_
FN:893,_ZZN2sb12outer_assignIdEEvRNS_6TensorIT_EERKSt6vectorISt4pairImSt7variantIJNS1_IbEENS1_IlEEEEESaISB_EERKS3_ENKUlRKS5_ImSaImEEE_clESL_
FN:852,_ZN2sb10outer_fillIdEEvRNS_6TensorIT_EERKSt6vectorISt4pairImSt7variantIJNS1_IbEENS1_IlEEEEESaISB_EERKS2_
FN:864,_ZZN2sb10outer_fillIdEEvRNS_6TensorIT_EERKSt6vectorISt4pairImSt7variantIJNS1_IbEENS1_IlEEEEESaISB_EERKS2_ENKUlRKS5_ImSaImEEE_clESL_
FN:1129,_ZN2sb12index_selectIdlEENS_6TensorIT_EERKS3_mRKNS1_IT0_EE
FN:1141,_ZZN2sb12index_selectIdlEENS_6TensorIT_EERKS3_mRKNS1_IT0_EEENKUlRKSt6vectorImSaImEEE_clESE_
FN:1152,_ZN2sb12index_assignIdlEEvRNS_6TensorIT_EEmRKNS1_IT0_EERKS3_
FN:1163,_ZZN2sb12index_assignIdlEEvRNS_6TensorIT_EEmRKNS1_IT0_EERKS3_ENKUlRKSt6vectorImSaImEEE_clESF_
FN:1172,_ZN2sb10index_fillIdlEEvRNS_6TensorIT_EEmRKNS1_IT0_EERKS2_
FN:1179,_ZZN2sb10index_fillIdlEEvRNS_6TensorIT_EEmRKNS1_IT0_EERKS2_ENKUlRKSt6vectorImSaImEEE_clESF_
FN:232,_ZNK2sb6TensorIdEplIdQ8CanAddToIT_S3_TL0__EEES1_RKS3_
FN:220,_ZN2sb6TensorIdEpLIdQ8CanAddToIT_S3_TL0__EEERS1_RKS3_
FN:1469,_ZN2sb6TensorIdE5applyIZNS1_pLIdQ8CanAddToIT_S4_TL0__EEERS1_RKS4_EUlRdE_Qsr3stdE9invocableIS5_RS4_EEEvOS4_
FN:1470,_ZZN2sb6TensorIdE5applyIZNS1_pLIdQ8CanAddToIT_S4_TL0__EEERS1_RKS4_EUlRdE_Qsr3stdE9invocableIS5_RS4_EEEvOS4_ENKUlRKSt6vectorImSaImEEE_clESH_
FN:221,_ZZN2sb6TensorIdEpLIdQ8CanAddToIT_S3_TL0__EEERS1_RKS3_ENKUlRdE_clES8_
FN:287,_ZN2sbplIddQ8CanAddToIT0_T_S1_EEENS_6TensorIS1_EERKS2_RKS4_
FN:1469,_ZN2sb6TensorIdE5applyIZNS_plIddQ8CanAddToIT0_T_S4_EEENS0_IS4_EERKS5_RKS6_EUlRdE_Qsr3stdE9invocableITL0__RS5_EEEvOS5_
FN:1470,_ZZN2sb6TensorIdE5applyIZNS_plIddQ8CanAddToIT0_T_S4_EEENS0_IS4_EERKS5_RKS6_EUlRdE_Qsr3stdE9invocableITL0__RS5_EEEvOS5_ENKUlRKSt6vectorImSaImEEE_clESK_
FN:289,_ZZN2sbplIddQ8CanAddToIT0_T_S1_EEENS_6TensorIS1_EERKS2_RKS4_ENKUlRdE_clES9_
FN:254,_ZNK2sb6TensorIdEmiIdQ13CanSubtractToIT_S3_TL0__EEES1_RKS3_
FN:242,_ZN2sb6TensorIdEmIIdQ13CanSubtractToIT_S3_TL0__EEERS1_RKS3_
FN:1469,_ZN2sb6TensorIdE5applyIZNS1_mIIdQ13CanSubtractToIT_S4_TL0__EEERS1_RKS4_EUlRdE_Qsr3stdE9invocableIS5_RS4_EEEvOS4_
FN:1470,_ZZN2sb6TensorIdE5applyIZNS1_mIIdQ13CanSubtractToIT_S4_TL0__EEERS1_RKS4_EUlRdE_Qsr3stdE9invocableIS5_RS4_EEEvOS4_ENKUlRKSt6vectorImSaImEEE_clESH_
FN:243,_ZZN2sb6TensorIdEmIIdQ13CanSubtractToIT_S3_TL0__EEERS1_RKS3_ENKUlRdE_clES8_
FN:298,_ZN2sbmiIddQ13CanSubtractToIT0_T_S1_EEENS_6TensorIS1_EERKS2_RKS4_
FN:1469,_ZN2sb6TensorIdE5applyIZNS_miIddQ13CanSubtractToIT0_T_S4_EEENS0_IS4_EERKS5_RKS6_EUlRdE_Qsr3stdE9invocableITL0__RS5_EEEvOS5_
FN:1470,_ZZN2sb6TensorIdE5applyIZNS_miIddQ13CanSubtractToIT0_T_S4_EEENS0_IS4_EERKS5_RKS6_EUlRdE_Qsr3stdE9invocableITL0__RS5_EEEvOS5_ENKUlRKSt6vectorImSaImEEE_clESK_
FN:300,_ZZN2sbmiIddQ13CanSubtractToIT0_T_S1_EEENS_6TensorIS1_EERKS2_RKS4_ENKUlRdE_clES9_
FN:210,_ZNK2sb6TensorIdEmlIdQ13CanMultiplyToIT_S3_TL0__EEES1_RKS3_
FN:195,_ZN2sb6TensorIdEmLIdQ13CanMultiplyToIT_S3_TL0__EEERS1_RKS3_
FN:1469,_ZN2sb6TensorIdE5applyIZNS1_mLIdQ13CanMultiplyToIT_S4_TL0__EEERS1_RKS4_EUlRdE_Qsr3stdE9invocableIS5_RS4_EEEvOS4_
FN:1470,_ZZN2sb6TensorIdE5applyIZNS1_mLIdQ13CanMultiplyToIT_S4_TL0__EEERS1_RKS4_EUlRdE_Qsr3stdE9invocableIS5_RS4_EEEvOS4_ENKUlRKSt6vectorImSaImEEE_clESH_
FN:196,_ZZN2sb6TensorIdEmLIdQ13CanMultiplyToIT_S3_TL0__EEERS1_RKS3_ENKUlRdE_clES8_
FN:273,_ZN2sbmlIddQ13CanMultiplyToIT0_T_S1_EEENS_6TensorIS1_EERKS2_RKS4_
FN:1469,_ZN2sb6TensorIdE5applyIZNS_mlIddQ13CanMultiplyToIT0_T_S4_EEENS0_IS4_EERKS5_RKS6_EUlRdE_Qsr3stdE9invocableITL0__RS5_EEEvOS5_
FN:1470,_ZZN2sb6TensorIdE5applyIZNS_mlIddQ13CanMultiplyToIT0_T_S4_EEENS0_IS4_EERKS5_RKS6_EUlRdE_Qsr3stdE9invocableITL0__RS5_EEEvOS5_ENKUlRKSt6vectorImSaImEEE_clESK_
FN:275,_ZZN2sbmlIddQ13CanMultiplyToIT0_T_S1_EEENS_6TensorIS1_EERKS2_RKS4_ENKUlRdE_clES9_
FN:185,_ZNK2sb6TensorIdEdvIdQ11CanDivideToIT_S3_TL0__EEES1_RKS3_
FN:173,_ZN2sb6TensorIdEdVIdQ11CanDivideToIT_S3_TL0__EEERS1_RKS3_
FN:1469,_ZN2sb6TensorIdE5applyIZNS1_dVIdQ11CanDivideToIT_S4_TL0__EEERS1_RKS4_EUlRdE_Qsr3stdE9invocableIS5_RS4_EEEvOS4_
FN:1470,_ZZN2sb6TensorIdE5applyIZNS1_dVIdQ11CanDivideToIT_S4_TL0__EEERS1_RKS4_EUlRdE_Qsr3stdE9invocableIS5_RS4_EEEvOS4_ENKUlRKSt6vectorImSaImEEE_clESH_
FN:174,_ZZN2sb6TensorIdEdVIdQ11CanDivideToIT_S3_TL0__EEERS1_RKS3_ENKUlRdE_clES8_
FN:309,_ZN2sbdvIddQ11CanDivideToIT0_T_S1_EEENS_6TensorIS1_EERKS2_RKS4_
FN:1469,_ZN2sb6TensorIdE5applyIZNS_dvIddQ11CanDivideToIT0_T_S4_EEENS0_IS4_EERKS5_RKS6_EUlRdE_Qsr3stdE9invocableITL0__RS5_EEEvOS5_
FN:1470,_ZZN2sb6TensorIdE5applyIZNS_dvIddQ11CanDivideToIT0_T_S4_EEENS0_IS4_EERKS5_RKS6_EUlRdE_Qsr3stdE9invocableITL0__RS5_EEEvOS5_ENKUlRKSt6vectorImSaImEEE_clESK_
FN:311,_ZZN2sbdvIddQ11CanDivideToIT0_T_S1_EEENS_6TensorIS1_EERKS2_RKS4_ENKUlRdE_clES9_
FN:331,_ZN2sb3powIddQ6CanPowIT_T0_EEENS_6TensorIS1_EERKS4_S2_
FN:1469,_ZN2sb6TensorIdE5applyIZNS_3powIddQ6CanPowIT_T0_EEENS0_IS4_EERKS6_S5_EUlRdE_Qsr3stdE9invocableITL0__RS4_EEEvOS4_
FN:1470,_ZZN2sb6TensorIdE5applyIZNS_3powIddQ6CanPowIT_T0_EEENS0_IS4_EERKS6_S5_EUlRdE_Qsr3stdE9invocableITL0__RS4_EEEvOS4_ENKUlRKSt6vectorImSaImEEE_clESI_
FN:333,_ZZN2sb3powIddQ6CanPowIT_T0_EEENS_6TensorIS1_EERKS4_S2_ENKUlRdE_clES7_
FN:1432,_ZNK2sb6TensorIdE6any_ofIZZN5sb_py30register_typed_tensor_bindingsIdEEvRN8pybind117module_ERKNSt7__cxx1112basic_stringIcSt11char_traitsIcESaIcEEESF_ENKUlRKS1_dE7_clESH_dEUlRKdE_Qsr3stdE9invocableITL0__RKT_EEEbOSN_
FN:1664,_ZN2sb6any_ofIdZZN5sb_py30register_typed_tensor_bindingsIdEEvRN8pybind117module_ERKNSt7__cxx1112basic_stringIcSt11char_traitsIcESaIcEEESD_ENKUlRKNS_6TensorIdEEdE7_clESH_dEUlRKdE_Qsr3stdE9invocableIT0_RKT_EEEbRKNSE_ISN_EEOSM_
FN:1666,_ZZN2sb6any_ofIdZZN5sb_py30register_typed_tensor_bindingsIdEEvRN8pybind117module_ERKNSt7__cxx1112basic_stringIcSt11char_traitsIcESaIcEEESD_ENKUlRKNS_6TensorIdEEdE7_clESH_dEUlRKdE_Qsr3stdE9invocableIT0_RKT_EEEbRKNSE_ISN_EEOSM_ENKUlRKSt6vectorImSaImEEE_clESY_
FN:350,_ZN2sb4ipowIddQ6CanPowIT_T0_EEEvRNS_6TensorIS1_EES2_
FN:1469,_ZN2sb6TensorIdE5applyIZNS_4ipowIddQ6CanPowIT_T0_EEEvRNS0_IS4_EES5_EUlRdE_Qsr3stdE9invocableITL0__RS4_EEEvOS4_
FN:1470,_ZZN2sb6TensorIdE5applyIZNS_4ipowIddQ6CanPowIT_T0_EEEvRNS0_IS4_EES5_EUlRdE_Qsr3stdE9invocableITL0__RS4_EEEvOS4_ENKUlRKSt6vectorImSaImEEE_clESH_
FN:351,_ZZN2sb4ipowIddQ6CanPowIT_T0_EEEvRNS_6TensorIS1_EES2_ENKUlRdE_clES6_
FN:84,_ZNK2sb6TensorIfEixISt6vectorISt7variantIJNS_10SliceIndexENS_10SliceRangeEEESaIS7_EEEES1_T_
FN:1476,_ZNK2sb6TensorIfE7extractISt6vectorISt7variantIJNS_10SliceIndexENS_10SliceRangeEEESaIS7_EEEES1_T_
FN:1499,_ZZNK2sb6TensorIfE7extractISt6vectorISt7variantIJNS_10SliceIndexENS_10SliceRangeEEESaIS7_EEEES1_T_ENKUlOSA_E_clIRS5_EEDaSB_
FN:1499,_ZZNK2sb6TensorIfE7extractISt6vectorISt7variantIJNS_10SliceIndexENS_10SliceRangeEEESaIS7_EEEES1_T_ENKUlOSA_E_clIRS6_EEDaSB_
FN:128,_ZN2sb6TensorIfE11assign_fromIfQsr3stdE18is_constructible_vIT_TL0__EEEvRKNS0_IS3_EE
FN:362,_ZNK2sb6TensorIfE12broadcast_toERKSt6vectorImSaImEE
FN:152,_ZZN2sb6TensorIfE11assign_fromIfQsr3stdE18is_constructible_vIT_TL0__EEEvRKNS0_IS3_EEENKUlRKSt6vectorImSaImEEE_clESC_
FN:162,_ZZN2sb6TensorIfE11assign_fromIfQsr3stdE18is_constructible_vIT_TL0__EEEvRKNS0_IS3_EEENKUlRKSt6vectorImSaImEEE0_clESC_
FN:486,_ZN2sb14elementwise_eqIfQsr3stdE19equality_comparableIT_EEENS_6TensorIbEERKNS2_IS1_EES6_
FN:418,_ZN2sb6detail15broadcast_binopIfZNS_14elementwise_eqIfQsr3stdE19equality_comparableIT_EEENS_6TensorIbEERKNS4_IS3_EES8_EUlRKfSA_E_bEENS4_IT1_EES8_S8_T0_
FN:423,_ZZN2sb6detail15broadcast_binopIfZNS_14elementwise_eqIfQsr3stdE19equality_comparableIT_EEENS_6TensorIbEERKNS4_IS3_EES8_EUlRKfSA_E_bEENS4_IT1_EES8_S8_T0_ENKUlRKSt6vectorImSaImEEE_clESJ_
FN:486,_ZZN2sb14elementwise_eqIfQsr3stdE19equality_comparableIT_EEENS_6TensorIbEERKNS2_IS1_EES6_ENKUlRKfS8_E_clES8_S8_
FN:491,_ZN2sb14elementwise_neIfQsr3stdE19equality_comparableIT_EEENS_6TensorIbEERKNS2_IS1_EES6_
FN:418,_ZN2sb6detail15broadcast_binopIfZNS_14elementwise_neIfQsr3stdE19equality_comparableIT_EEENS_6TensorIbEERKNS4_IS3_EES8_EUlRKfSA_E_bEENS4_IT1_EES8_S8_T0_
FN:423,_ZZN2sb6detail15broadcast_binopIfZNS_14elementwise_neIfQsr3stdE19equality_comparableIT_EEENS_6TensorIbEERKNS4_IS3_EES8_EUlRKfSA_E_bEENS4_IT1_EES8_S8_T0_ENKUlRKSt6vectorImSaImEEE_clESJ_
FN:491,_ZZN2sb14elementwise_neIfQsr3stdE19equality_comparableIT_EEENS_6TensorIbEERKNS2_IS1_EES6_ENKUlRKfS8_E_clES8_S8_
FN:53,_ZNK2sb6TensorIfEeqIfQsr3stdE24equality_comparable_withITL0__T_EEEbRKNS0_IS4_EE
FN:60,_ZZNK2sb6TensorIfEeqIfQsr3stdE24equality_comparable_withITL0__T_EEEbRKNS0_IS4_EEENKUlRKSt6vectorImSaImEEE_clESC_
FN:108,_ZN2sb6TensorIfEclEm
FN:1198,_ZNK2sb6TensorIfE4copyEv
FN:1201,_ZZNK2sb6TensorIfE4copyEvENKUlRKSt6vectorImSaImEEE_clES6_
FN:1210,_ZNK2sb6TensorIfE7flattenEv
FN:1229,_ZNK2sb6TensorIfE7reshapeERKSt6vectorIlSaIlEE
FN:1369,_ZNK2sb6TensorIfE9transposeERKSt6vectorImSaImEE
FN:1414,_ZNK2sb6TensorIfE8swapaxesEmm
FN:1294,_ZNK2sb6TensorIfE7squeezeEv
FN:1315,_ZNK2sb6TensorIfE7squeezeEm
FN:1343,_ZNK2sb6TensorIfE11expand_dimsEl
FN:933,_ZN2sb11concatenateIfEENS_6TensorIT_EERKSt6vectorIS3_SaIS3_EEm
FN:967,_ZZN2sb11concatenateIfEENS_6TensorIT_EERKSt6vectorIS3_SaIS3_EEmENKUlRKS4_ImSaImEEE_clESC_
FN:980,_ZN2sb5stackIfEENS_6TensorIT_EERKSt6vectorIS3_SaIS3_EEl
FN:1048,_ZN2sb5splitIfEESt6vectorINS_6TensorIT_EESaIS4_EERKS4_mm
FN:1011,_ZN2sb5splitIfEESt6vectorINS_6TensorIT_EESaIS4_EERKS4_RKS1_ImSaImEEm
FN:1075,_ZN2sb11array_splitIfEESt6vectorINS_6TensorIT_EESaIS4_EERKS4_mm
FN:262,_ZNK2sb6TensorIfEngEvQ9CanNegateIT_E
FN:1469,_ZN2sb6TensorIfE5applyIZNKS1_ngEvQ9CanNegateIT_EEUlRfE_Qsr3stdE9invocableITL0__RS3_EEEvOS3_
FN:1470,_ZZN2sb6TensorIfE5applyIZNKS1_ngEvQ9CanNegateIT_EEUlRfE_Qsr3stdE9invocableITL0__RS3_EEEvOS3_ENKUlRKSt6vectorImSaImEEE_clESD_
FN:264,_ZZNK2sb6TensorIfEngEvQ9CanNegateIT_EENKUlRfE_clES3_
FN:1689,_ZN2sb8allcloseITkNS_9FloatTypeEfEEbRKNS_6TensorIT_EES5_S2_S2_
FN:1694,_ZZN2sb8allcloseITkNS_9FloatTypeEfEEbRKNS_6TensorIT_EES5_S2_S2_ENKUlRKSt6vectorImSaImEEE_clESA_
FN:496,_ZN2sb14elementwise_ltIfQ8CanOrderIT_EEENS_6TensorIbEERKNS2_IS1_EES6_
FN:418,_ZN2sb6detail15broadcast_binopIfZNS_14elementwise_ltIfQ8CanOrderIT_EEENS_6TensorIbEERKNS4_IS3_EES8_EUlRKfSA_E_bEENS4_IT1_EES8_S8_T0_
FN:423,_ZZN2sb6detail15broadcast_binopIfZNS_14elementwise_ltIfQ8CanOrderIT_EEENS_6TensorIbEERKNS4_IS3_EES8_EUlRKfSA_E_bEENS4_IT1_EES8_S8_T0_ENKUlRKSt6vectorImSaImEEE_clESJ_
FN:496,_ZZN2sb14elementwise_ltIfQ8CanOrderIT_EEENS_6TensorIbEERKNS2_IS1_EES6_ENKUlRKfS8_E_clES8_S8_
FN:501,_ZN2sb14elementwise_leIfQ8CanOrderIT_EEENS_6TensorIbEERKNS2_IS1_EES6_
FN:418,_ZN2sb6detail15broadcast_binopIfZNS_14elementwise_leIfQ8CanOrderIT_EEENS_6TensorIbEERKNS4_IS3_EES8_EUlRKfSA_E_bEENS4_IT1_EES8_S8_T0_
FN:423,_ZZN2sb6detail15broadcast_binopIfZNS_14elementwise_leIfQ8CanOrderIT_EEENS_6TensorIbEERKNS4_IS3_EES8_EUlRKfSA_E_bEENS4_IT1_EES8_S8_T0_ENKUlRKSt6vectorImSaImEEE_clESJ_
FN:501,_ZZN2sb14elementwise_leIfQ8CanOrderIT_EEENS_6TensorIbEERKNS2_IS1_EES6_ENKUlRKfS8_E_clES8_S8_
FN:506,_ZN2sb14elementwise_gtIfQ8CanOrderIT_EEENS_6TensorIbEERKNS2_IS1_EES6_
FN:418,_ZN2sb6detail15broadcast_binopIfZNS_14elementwise_gtIfQ8CanOrderIT_EEENS_6TensorIbEERKNS4_IS3_EES8_EUlRKfSA_E_bEENS4_IT1_EES8_S8_T0_
FN:423,_ZZN2sb6detail15broadcast_binopIfZNS_14elementwise_gtIfQ8CanOrderIT_EEENS_6TensorIbEERKNS4_IS3_EES8_EUlRKfSA_E_bEENS4_IT1_EES8_S8_T0_ENKUlRKSt6vectorImSaImEEE_clESJ_
FN:506,_ZZN2sb14elementwise_gtIfQ8CanOrderIT_EEENS_6TensorIbEERKNS2_IS1_EES6_ENKUlRKfS8_E_clES8_S8_
FN:511,_ZN2sb14elementwise_geIfQ8CanOrderIT_EEENS_6TensorIbEERKNS2_IS1_EES6_
FN:418,_ZN2sb6detail15broadcast_binopIfZNS_14elementwise_geIfQ8CanOrderIT_EEENS_6TensorIbEERKNS4_IS3_EES8_EUlRKfSA_E_bEENS4_IT1_EES8_S8_T0_
FN:423,_ZZN2sb6detail15broadcast_binopIfZNS_14elementwise_geIfQ8CanOrderIT_EEENS_6TensorIbEERKNS4_IS3_EES8_EUlRKfSA_E_bEENS4_IT1_EES8_S8_T0_ENKUlRKSt6vectorImSaImEEE_clESJ_
FN:511,_ZZN2sb14elementwise_geIfQ8CanOrderIT_EEENS_6TensorIbEERKNS2_IS1_EES6_ENKUlRKfS8_E_clES8_S8_
FN:446,_ZNK2sb6TensorIfEplERKS1_
FN:418,_ZN2sb6detail15broadcast_binopIfZNKS_6TensorIfEplERKS3_EUlRKfS7_E_fEENS2_IT1_EERKNS2_IT_EESE_T0_
FN:423,_ZZN2sb6detail15broadcast_binopIfZNKS_6TensorIfEplERKS3_EUlRKfS7_E_fEENS2_IT1_EERKNS2_IT_EESE_T0_ENKUlRKSt6vectorImSaImEEE_clESK_
FN:446,_ZZNK2sb6TensorIfEplERKS1_ENKUlRKfS5_E_clES5_S5_
FN:467,_ZN2sb6TensorIfEpLERKS1_
FN:431,_ZN2sb6detail23broadcast_binop_inplaceIfZNS_6TensorIfEpLERKS3_EUlRKfS7_E_EERNS2_IT_EESB_RKSA_T0_
FN:437,_ZZN2sb6detail23broadcast_binop_inplaceIfZNS_6TensorIfEpLERKS3_EUlRKfS7_E_EERNS2_IT_EESB_RKSA_T0_ENKUlRKSt6vectorImSaImEEE_clESJ_
FN:467,_ZZN2sb6TensorIfEpLERKS1_ENKUlRKfS5_E_clES5_S5_
FN:450,_ZNK2sb6TensorIfEmiERKS1_
FN:418,_ZN2sb6detail15broadcast_binopIfZNKS_6TensorIfEmiERKS3_EUlRKfS7_E_fEENS2_IT1_EERKNS2_IT_EESE_T0_
FN:423,_ZZN2sb6detail15broadcast_binopIfZNKS_6TensorIfEmiERKS3_EUlRKfS7_E_fEENS2_IT1_EERKNS2_IT_EESE_T0_ENKUlRKSt6vectorImSaImEEE_clESK_
FN:450,_ZZNK2sb6TensorIfEmiERKS1_ENKUlRKfS5_E_clES5_S5_
FN:471,_ZN2sb6TensorIfEmIERKS1_
FN:431,_ZN2sb6detail23broadcast_binop_inplaceIfZNS_6TensorIfEmIERKS3_EUlRKfS7_E_EERNS2_IT_EESB_RKSA_T0_
FN:437,_ZZN2sb6detail23broadcast_binop_inplaceIfZNS_6TensorIfEmIERKS3_EUlRKfS7_E_EERNS2_IT_EESB_RKSA_T0_ENKUlRKSt6vectorImSaImEEE_clESJ_
FN:471,_ZZN2sb6TensorIfEmIERKS1_ENKUlRKfS5_E_clES5_S5_
FN:454,_ZNK2sb6TensorIfEmlERKS1_
FN:418,_ZN2sb6detail15broadcast_binopIfZNKS_6TensorIfEmlERKS3_EUlRKfS7_E_fEENS2_IT1_EERKNS2_IT_EESE_T0_
FN:423,_ZZN2sb6detail15broadcast_binopIfZNKS_6TensorIfEmlERKS3_EUlRKfS7_E_fEENS2_IT1_EERKNS2_IT_EESE_T0_ENKUlRKSt6vectorImSaImEEE_clESK_
FN:458,_ZZNK2sb6TensorIfEmlERKS1_ENKUlRKfS5_E_clES5_S5_
FN:475,_ZN2sb6TensorIfEmLERKS1_
FN:431,_ZN2sb6detail23broadcast_binop_inplaceIfZNS_6TensorIfEmLERKS3_EUlRKfS7_E_EERNS2_IT_EESB_RKSA_T0_
FN:437,_ZZN2sb6detail23broadcast_binop_inplaceIfZNS_6TensorIfEmLERKS3_EUlRKfS7_E_EERNS2_IT_EESB_RKSA_T0_ENKUlRKSt6vectorImSaImEEE_clESJ_
FN:475,_ZZN2sb6TensorIfEmLERKS1_ENKUlRKfS5_E_clES5_S5_
FN:463,_ZNK2sb6TensorIfEdvERKS1_
FN:418,_ZN2sb6detail15broadcast_binopIfZNKS_6TensorIfEdvERKS3_EUlRKfS7_E_fEENS2_IT1_EERKNS2_IT_EESE_T0_
FN:423,_ZZN2sb6detail15broadcast_binopIfZNKS_6TensorIfEdvERKS3_EUlRKfS7_E_fEENS2_IT1_EERKNS2_IT_EESE_T0_ENKUlRKSt6vectorImSaImEEE_clESK_
FN:463,_ZZNK2sb6TensorIfEdvERKS1_ENKUlRKfS5_E_clES5_S5_
FN:479,_ZN2sb6TensorIfEdVERKS1_
FN:431,_ZN2sb6detail23broadcast_binop_inplaceIfZNS_6TensorIfEdVERKS3_EUlRKfS7_E_EERNS2_IT_EESB_RKSA_T0_
FN:437,_ZZN2sb6detail23broadcast_binop_inplaceIfZNS_6TensorIfEdVERKS3_EUlRKfS7_E_EERNS2_IT_EESB_RKSA_T0_ENKUlRKSt6vectorImSaImEEE_clESJ_
FN:479,_ZZN2sb6TensorIfEdVERKS1_ENKUlRKfS5_E_clES5_S5_
FN:519,_ZN2sb13masked_selectIfEENS_6TensorIT_EERKS3_RKNS1_IbEE
FN:528,_ZZN2sb13masked_selectIfEENS_6TensorIT_EERKS3_RKNS1_IbEEENKUlRKSt6vectorImSaImEEE_clESD_
FN:546,_ZN2sb13masked_assignIfEEvRNS_6TensorIT_EERKNS1_IbEERKS3_
FN:554,_ZZN2sb13masked_assignIfEEvRNS_6TensorIT_EERKNS1_IbEERKS3_ENKUlRKSt6vectorImSaImEEE_clESE_
FN:102,_ZNK2sb6TensorIfEclEm
FN:1188,_ZNK2sb6TensorIfE4sizeEv
FN:576,_ZN2sb11masked_fillIfEEvRNS_6TensorIT_EERKNS1_IbEERKS2_
FN:583,_ZZN2sb11masked_fillIfEEvRNS_6TensorIT_EERKNS1_IbEERKS2_ENKUlRKSt6vectorImSaImEEE_clESE_
FN:620,_ZN2sb11axis_selectIfEENS_6TensorIT_EERKS3_mRKNS1_IbEE
FN:634,_ZZN2sb11axis_selectIfEENS_6TensorIT_EERKS3_mRKNS1_IbEEENKUlRKSt6vectorImSaImEEE_clESD_
FN:645,_ZN2sb11axis_assignIfEEvRNS_6TensorIT_EEmRKNS1_IbEERKS3_
FN:659,_ZZN2sb11axis_assignIfEEvRNS_6TensorIT_EEmRKNS1_IbEERKS3_ENKUlRKSt6vectorImSaImEEE_clESE_
FN:668,_ZN2sb9axis_fillIfEEvRNS_6TensorIT_EEmRKNS1_IbEERKS2_
FN:671,_ZZN2sb9axis_fillIfEEvRNS_6TensorIT_EEmRKNS1_IbEERKS2_ENKUlRKSt6vectorImSaImEEE_clESE_
FN:703,_ZN2sb17multi_axis_selectIfEENS_6TensorIT_EERKS3_RKSt6vectorISt4pairImNS1_IbEEESaIS9_EE
FN:711,_ZZN2sb17multi_axis_selectIfEENS_6TensorIT_EERKS3_RKSt6vectorISt4pairImNS1_IbEEESaIS9_EEENKUlRKS6_ImSaImEEE_clESH_
FN:743,_ZN2sb17multi_axis_assignIfEEvRNS_6TensorIT_EERKSt6vectorISt4pairImNS1_IbEEESaIS8_EERKS3_
FN:758,_ZZN2sb17multi_axis_assignIfEEvRNS_6TensorIT_EERKSt6vectorISt4pairImNS1_IbEEESaIS8_EERKS3_ENKUlRKS5_ImSaImEEE_clESI_
FN:725,_ZN2sb15multi_axis_fillIfEEvRNS_6TensorIT_EERKSt6vectorISt4pairImNS1_IbEEESaIS8_EERKS2_
FN:729,_ZZN2sb15multi_axis_fillIfEEvRNS_6TensorIT_EERKSt6vectorISt4pairImNS1_IbEEESaIS8_EERKS2_ENKUlRKS5_ImSaImEEE_clESI_
FN:830,_ZN2sb12outer_selectIfEENS_6TensorIT_EERKS3_RKSt6vectorISt4pairImSt7variantIJNS1_IbEENS1_IlEEEEESaISC_EE
FN:838,_ZZN2sb12outer_selectIfEENS_6TensorIT_EERKS3_RKSt6vectorISt4pairImSt7variantIJNS1_IbEENS1_IlEEEEESaISC_EEENKUlRKS6_ImSaImEEE_clESK_
FN:878,_ZN2sb12outer_assignIfEEvRNS_6TensorIT_EERKSt6vectorISt4pairImSt7variantIJNS1_IbEENS1_IlEEEEESaISB_EERKS3_
FN:893,_ZZN2sb12outer_assignIfEEvRNS_6TensorIT_EERKSt6vectorISt4pairImSt7variantIJNS1_IbEENS1_IlEEEEESaISB_EERKS3_ENKUlRKS5_ImSaImEEE_clESL_
FN:852,_ZN2sb10outer_fillIfEEvRNS_6TensorIT_EERKSt6vectorISt4pairImSt7variantIJNS1_IbEENS1_IlEEEEESaISB_EERKS2_
FN:864,_ZZN2sb10outer_fillIfEEvRNS_6TensorIT_EERKSt6vectorISt4pairImSt7variantIJNS1_IbEENS1_IlEEEEESaISB_EERKS2_ENKUlRKS5_ImSaImEEE_clESL_
FN:1129,_ZN2sb12index_selectIflEENS_6TensorIT_EERKS3_mRKNS1_IT0_EE
FN:1141,_ZZN2sb12index_selectIflEENS_6TensorIT_EERKS3_mRKNS1_IT0_EEENKUlRKSt6vectorImSaImEEE_clESE_
FN:1152,_ZN2sb12index_assignIflEEvRNS_6TensorIT_EEmRKNS1_IT0_EERKS3_
FN:1163,_ZZN2sb12index_assignIflEEvRNS_6TensorIT_EEmRKNS1_IT0_EERKS3_ENKUlRKSt6vectorImSaImEEE_clESF_
FN:1172,_ZN2sb10index_fillIflEEvRNS_6TensorIT_EEmRKNS1_IT0_EERKS2_
FN:1179,_ZZN2sb10index_fillIflEEvRNS_6TensorIT_EEmRKNS1_IT0_EERKS2_ENKUlRKSt6vectorImSaImEEE_clESF_
FN:232,_ZNK2sb6TensorIfEplIfQ8CanAddToIT_S3_TL0__EEES1_RKS3_
FN:220,_ZN2sb6TensorIfEpLIfQ8CanAddToIT_S3_TL0__EEERS1_RKS3_
FN:1469,_ZN2sb6TensorIfE5applyIZNS1_pLIfQ8CanAddToIT_S4_TL0__EEERS1_RKS4_EUlRfE_Qsr3stdE9invocableIS5_RS4_EEEvOS4_
FN:1470,_ZZN2sb6TensorIfE5applyIZNS1_pLIfQ8CanAddToIT_S4_TL0__EEERS1_RKS4_EUlRfE_Qsr3stdE9invocableIS5_RS4_EEEvOS4_ENKUlRKSt6vectorImSaImEEE_clESH_
FN:221,_ZZN2sb6TensorIfEpLIfQ8CanAddToIT_S3_TL0__EEERS1_RKS3_ENKUlRfE_clES8_
FN:287,_ZN2sbplIffQ8CanAddToIT0_T_S1_EEENS_6TensorIS1_EERKS2_RKS4_
FN:1469,_ZN2sb6TensorIfE5applyIZNS_plIffQ8CanAddToIT0_T_S4_EEENS0_IS4_EERKS5_RKS6_EUlRfE_Qsr3stdE9invocableITL0__RS5_EEEvOS5_
FN:1470,_ZZN2sb6TensorIfE5applyIZNS_plIffQ8CanAddToIT0_T_S4_EEENS0_IS4_EERKS5_RKS6_EUlRfE_Qsr3stdE9invocableITL0__RS5_EEEvOS5_ENKUlRKSt6vectorImSaImEEE_clESK_
FN:289,_ZZN2sbplIffQ8CanAddToIT0_T_S1_EEENS_6TensorIS1_EERKS2_RKS4_ENKUlRfE_clES9_
FN:254,_ZNK2sb6TensorIfEmiIfQ13CanSubtractToIT_S3_TL0__EEES1_RKS3_
FN:242,_ZN2sb6TensorIfEmIIfQ13CanSubtractToIT_S3_TL0__EEERS1_RKS3_
FN:1469,_ZN2sb6TensorIfE5applyIZNS1_mIIfQ13CanSubtractToIT_S4_TL0__EEERS1_RKS4_EUlRfE_Qsr3stdE9invocableIS5_RS4_EEEvOS4_
FN:1470,_ZZN2sb6TensorIfE5applyIZNS1_mIIfQ13CanSubtractToIT_S4_TL0__EEERS1_RKS4_EUlRfE_Qsr3stdE9invocableIS5_RS4_EEEvOS4_ENKUlRKSt6vectorImSaImEEE_clESH_
FN:243,_ZZN2sb6TensorIfEmIIfQ13CanSubtractToIT_S3_TL0__EEERS1_RKS3_ENKUlRfE_clES8_
FN:298,_ZN2sbmiIffQ13CanSubtractToIT0_T_S1_EEENS_6TensorIS1_EERKS2_RKS4_
FN:1469,_ZN2sb6TensorIfE5applyIZNS_miIffQ13CanSubtractToIT0_T_S4_EEENS0_IS4_EERKS5_RKS6_EUlRfE_Qsr3stdE9invocableITL0__RS5_EEEvOS5_
FN:1470,_ZZN2sb6TensorIfE5applyIZNS_miIffQ13CanSubtractToIT0_T_S4_EEENS0_IS4_EERKS5_RKS6_EUlRfE_Qsr3stdE9invocableITL0__RS5_EEEvOS5_ENKUlRKSt6vectorImSaImEEE_clESK_
FN:300,_ZZN2sbmiIffQ13CanSubtractToIT0_T_S1_EEENS_6TensorIS1_EERKS2_RKS4_ENKUlRfE_clES9_
FN:210,_ZNK2sb6TensorIfEmlIfQ13CanMultiplyToIT_S3_TL0__EEES1_RKS3_
FN:195,_ZN2sb6TensorIfEmLIfQ13CanMultiplyToIT_S3_TL0__EEERS1_RKS3_
FN:1469,_ZN2sb6TensorIfE5applyIZNS1_mLIfQ13CanMultiplyToIT_S4_TL0__EEERS1_RKS4_EUlRfE_Qsr3stdE9invocableIS5_RS4_EEEvOS4_
FN:1470,_ZZN2sb6TensorIfE5applyIZNS1_mLIfQ13CanMultiplyToIT_S4_TL0__EEERS1_RKS4_EUlRfE_Qsr3stdE9invocableIS5_RS4_EEEvOS4_ENKUlRKSt6vectorImSaImEEE_clESH_
FN:196,_ZZN2sb6TensorIfEmLIfQ13CanMultiplyToIT_S3_TL0__EEERS1_RKS3_ENKUlRfE_clES8_
FN:273,_ZN2sbmlIffQ13CanMultiplyToIT0_T_S1_EEENS_6TensorIS1_EERKS2_RKS4_
FN:1469,_ZN2sb6TensorIfE5applyIZNS_mlIffQ13CanMultiplyToIT0_T_S4_EEENS0_IS4_EERKS5_RKS6_EUlRfE_Qsr3stdE9invocableITL0__RS5_EEEvOS5_
FN:1470,_ZZN2sb6TensorIfE5applyIZNS_mlIffQ13CanMultiplyToIT0_T_S4_EEENS0_IS4_EERKS5_RKS6_EUlRfE_Qsr3stdE9invocableITL0__RS5_EEEvOS5_ENKUlRKSt6vectorImSaImEEE_clESK_
FN:275,_ZZN2sbmlIffQ13CanMultiplyToIT0_T_S1_EEENS_6TensorIS1_EERKS2_RKS4_ENKUlRfE_clES9_
FN:185,_ZNK2sb6TensorIfEdvIfQ11CanDivideToIT_S3_TL0__EEES1_RKS3_
FN:173,_ZN2sb6TensorIfEdVIfQ11CanDivideToIT_S3_TL0__EEERS1_RKS3_
FN:1469,_ZN2sb6TensorIfE5applyIZNS1_dVIfQ11CanDivideToIT_S4_TL0__EEERS1_RKS4_EUlRfE_Qsr3stdE9invocableIS5_RS4_EEEvOS4_
FN:1470,_ZZN2sb6TensorIfE5applyIZNS1_dVIfQ11CanDivideToIT_S4_TL0__EEERS1_RKS4_EUlRfE_Qsr3stdE9invocableIS5_RS4_EEEvOS4_ENKUlRKSt6vectorImSaImEEE_clESH_
FN:174,_ZZN2sb6TensorIfEdVIfQ11CanDivideToIT_S3_TL0__EEERS1_RKS3_ENKUlRfE_clES8_
FN:309,_ZN2sbdvIffQ11CanDivideToIT0_T_S1_EEENS_6TensorIS1_EERKS2_RKS4_
FN:1469,_ZN2sb6TensorIfE5applyIZNS_dvIffQ11CanDivideToIT0_T_S4_EEENS0_IS4_EERKS5_RKS6_EUlRfE_Qsr3stdE9invocableITL0__RS5_EEEvOS5_
FN:1470,_ZZN2sb6TensorIfE5applyIZNS_dvIffQ11CanDivideToIT0_T_S4_EEENS0_IS4_EERKS5_RKS6_EUlRfE_Qsr3stdE9invocableITL0__RS5_EEEvOS5_ENKUlRKSt6vectorImSaImEEE_clESK_
FN:311,_ZZN2sbdvIffQ11CanDivideToIT0_T_S1_EEENS_6TensorIS1_EERKS2_RKS4_ENKUlRfE_clES9_
FN:331,_ZN2sb3powIffQ6CanPowIT_T0_EEENS_6TensorIS1_EERKS4_S2_
FN:1469,_ZN2sb6TensorIfE5applyIZNS_3powIffQ6CanPowIT_T0_EEENS0_IS4_EERKS6_S5_EUlRfE_Qsr3stdE9invocableITL0__RS4_EEEvOS4_
FN:1470,_ZZN2sb6TensorIfE5applyIZNS_3powIffQ6CanPowIT_T0_EEENS0_IS4_EERKS6_S5_EUlRfE_Qsr3stdE9invocableITL0__RS4_EEEvOS4_ENKUlRKSt6vectorImSaImEEE_clESI_
FN:333,_ZZN2sb3powIffQ6CanPowIT_T0_EEENS_6TensorIS1_EERKS4_S2_ENKUlRfE_clES7_
FN:1432,_ZNK2sb6TensorIfE6any_ofIZZN5sb_py30register_typed_tensor_bindingsIfEEvRN8pybind117module_ERKNSt7__cxx1112basic_stringIcSt11char_traitsIcESaIcEEESF_ENKUlRKS1_fE7_clESH_fEUlRKfE_Qsr3stdE9invocableITL0__RKT_EEEbOSN_
FN:1664,_ZN2sb6any_ofIfZZN5sb_py30register_typed_tensor_bindingsIfEEvRN8pybind117module_ERKNSt7__cxx1112basic_stringIcSt11char_traitsIcESaIcEEESD_ENKUlRKNS_6TensorIfEEfE7_clESH_fEUlRKfE_Qsr3stdE9invocableIT0_RKT_EEEbRKNSE_ISN_EEOSM_
FN:1666,_ZZN2sb6any_ofIfZZN5sb_py30register_typed_tensor_bindingsIfEEvRN8pybind117module_ERKNSt7__cxx1112basic_stringIcSt11char_traitsIcESaIcEEESD_ENKUlRKNS_6TensorIfEEfE7_clESH_fEUlRKfE_Qsr3stdE9invocableIT0_RKT_EEEbRKNSE_ISN_EEOSM_ENKUlRKSt6vectorImSaImEEE_clESY_
FN:350,_ZN2sb4ipowIffQ6CanPowIT_T0_EEEvRNS_6TensorIS1_EES2_
FN:1469,_ZN2sb6TensorIfE5applyIZNS_4ipowIffQ6CanPowIT_T0_EEEvRNS0_IS4_EES5_EUlRfE_Qsr3stdE9invocableITL0__RS4_EEEvOS4_
FN:1470,_ZZN2sb6TensorIfE5applyIZNS_4ipowIffQ6CanPowIT_T0_EEEvRNS0_IS4_EES5_EUlRfE_Qsr3stdE9invocableITL0__RS4_EEEvOS4_ENKUlRKSt6vectorImSaImEEE_clESH_
FN:351,_ZZN2sb4ipowIffQ6CanPowIT_T0_EEEvRNS_6TensorIS1_EES2_ENKUlRfE_clES6_
FN:84,_ZNK2sb6TensorIiEixISt6vectorISt7variantIJNS_10SliceIndexENS_10SliceRangeEEESaIS7_EEEES1_T_
FN:1476,_ZNK2sb6TensorIiE7extractISt6vectorISt7variantIJNS_10SliceIndexENS_10SliceRangeEEESaIS7_EEEES1_T_
FN:1499,_ZZNK2sb6TensorIiE7extractISt6vectorISt7variantIJNS_10SliceIndexENS_10SliceRangeEEESaIS7_EEEES1_T_ENKUlOSA_E_clIRS5_EEDaSB_
FN:1499,_ZZNK2sb6TensorIiE7extractISt6vectorISt7variantIJNS_10SliceIndexENS_10SliceRangeEEESaIS7_EEEES1_T_ENKUlOSA_E_clIRS6_EEDaSB_
FN:128,_ZN2sb6TensorIiE11assign_fromIiQsr3stdE18is_constructible_vIT_TL0__EEEvRKNS0_IS3_EE
FN:362,_ZNK2sb6TensorIiE12broadcast_toERKSt6vectorImSaImEE
FN:152,_ZZN2sb6TensorIiE11assign_fromIiQsr3stdE18is_constructible_vIT_TL0__EEEvRKNS0_IS3_EEENKUlRKSt6vectorImSaImEEE_clESC_
FN:162,_ZZN2sb6TensorIiE11assign_fromIiQsr3stdE18is_constructible_vIT_TL0__EEEvRKNS0_IS3_EEENKUlRKSt6vectorImSaImEEE0_clESC_
FN:486,_ZN2sb14elementwise_eqIiQsr3stdE19equality_comparableIT_EEENS_6TensorIbEERKNS2_IS1_EES6_
FN:418,_ZN2sb6detail15broadcast_binopIiZNS_14elementwise_eqIiQsr3stdE19equality_comparableIT_EEENS_6TensorIbEERKNS4_IS3_EES8_EUlRKiSA_E_bEENS4_IT1_EES8_S8_T0_
FN:423,_ZZN2sb6detail15broadcast_binopIiZNS_14elementwise_eqIiQsr3stdE19equality_comparableIT_EEENS_6TensorIbEERKNS4_IS3_EES8_EUlRKiSA_E_bEENS4_IT1_EES8_S8_T0_ENKUlRKSt6vectorImSaImEEE_clESJ_
FN:486,_ZZN2sb14elementwise_eqIiQsr3stdE19equality_comparableIT_EEENS_6TensorIbEERKNS2_IS1_EES6_ENKUlRKiS8_E_clES8_S8_
FN:491,_ZN2sb14elementwise_neIiQsr3stdE19equality_comparableIT_EEENS_6TensorIbEERKNS2_IS1_EES6_
FN:418,_ZN2sb6detail15broadcast_binopIiZNS_14elementwise_neIiQsr3stdE19equality_comparableIT_EEENS_6TensorIbEERKNS4_IS3_EES8_EUlRKiSA_E_bEENS4_IT1_EES8_S8_T0_
FN:423,_ZZN2sb6detail15broadcast_binopIiZNS_14elementwise_neIiQsr3stdE19equality_comparableIT_EEENS_6TensorIbEERKNS4_IS3_EES8_EUlRKiSA_E_bEENS4_IT1_EES8_S8_T0_ENKUlRKSt6vectorImSaImEEE_clESJ_
FN:491,_ZZN2sb14elementwise_neIiQsr3stdE19equality_comparableIT_EEENS_6TensorIbEERKNS2_IS1_EES6_ENKUlRKiS8_E_clES8_S8_
FN:53,_ZNK2sb6TensorIiEeqIiQsr3stdE24equality_comparable_withITL0__T_EEEbRKNS0_IS4_EE
FN:60,_ZZNK2sb6TensorIiEeqIiQsr3stdE24equality_comparable_withITL0__T_EEEbRKNS0_IS4_EEENKUlRKSt6vectorImSaImEEE_clESC_
FN:108,_ZN2sb6TensorIiEclEm
FN:1198,_ZNK2sb6TensorIiE4copyEv
FN:1201,_ZZNK2sb6TensorIiE4copyEvENKUlRKSt6vectorImSaImEEE_clES6_
FN:1210,_ZNK2sb6TensorIiE7flattenEv
FN:1229,_ZNK2sb6TensorIiE7reshapeERKSt6vectorIlSaIlEE
FN:1369,_ZNK2sb6TensorIiE9transposeERKSt6vectorImSaImEE
FN:1414,_ZNK2sb6TensorIiE8swapaxesEmm
FN:1294,_ZNK2sb6TensorIiE7squeezeEv
FN:1315,_ZNK2sb6TensorIiE7squeezeEm
FN:1343,_ZNK2sb6TensorIiE11expand_dimsEl
FN:933,_ZN2sb11concatenateIiEENS_6TensorIT_EERKSt6vectorIS3_SaIS3_EEm
FN:967,_ZZN2sb11concatenateIiEENS_6TensorIT_EERKSt6vectorIS3_SaIS3_EEmENKUlRKS4_ImSaImEEE_clESC_
FN:980,_ZN2sb5stackIiEENS_6TensorIT_EERKSt6vectorIS3_SaIS3_EEl
FN:1048,_ZN2sb5splitIiEESt6vectorINS_6TensorIT_EESaIS4_EERKS4_mm
FN:1011,_ZN2sb5splitIiEESt6vectorINS_6TensorIT_EESaIS4_EERKS4_RKS1_ImSaImEEm
FN:1075,_ZN2sb11array_splitIiEESt6vectorINS_6TensorIT_EESaIS4_EERKS4_mm
FN:262,_ZNK2sb6TensorIiEngEvQ9CanNegateIT_E
FN:1469,_ZN2sb6TensorIiE5applyIZNKS1_ngEvQ9CanNegateIT_EEUlRiE_Qsr3stdE9invocableITL0__RS3_EEEvOS3_
FN:1470,_ZZN2sb6TensorIiE5applyIZNKS1_ngEvQ9CanNegateIT_EEUlRiE_Qsr3stdE9invocableITL0__RS3_EEEvOS3_ENKUlRKSt6vectorImSaImEEE_clESD_
FN:264,_ZZNK2sb6TensorIiEngEvQ9CanNegateIT_EENKUlRiE_clES3_
FN:496,_ZN2sb14elementwise_ltIiQ8CanOrderIT_EEENS_6TensorIbEERKNS2_IS1_EES6_
FN:418,_ZN2sb6detail15broadcast_binopIiZNS_14elementwise_ltIiQ8CanOrderIT_EEENS_6TensorIbEERKNS4_IS3_EES8_EUlRKiSA_E_bEENS4_IT1_EES8_S8_T0_
FN:423,_ZZN2sb6detail15broadcast_binopIiZNS_14elementwise_ltIiQ8CanOrderIT_EEENS_6TensorIbEERKNS4_IS3_EES8_EUlRKiSA_E_bEENS4_IT1_EES8_S8_T0_ENKUlRKSt6vectorImSaImEEE_clESJ_
FN:496,_ZZN2sb14elementwise_ltIiQ8CanOrderIT_EEENS_6TensorIbEERKNS2_IS1_EES6_ENKUlRKiS8_E_clES8_S8_
FN:501,_ZN2sb14elementwise_leIiQ8CanOrderIT_EEENS_6TensorIbEERKNS2_IS1_EES6_
FN:418,_ZN2sb6detail15broadcast_binopIiZNS_14elementwise_leIiQ8CanOrderIT_EEENS_6TensorIbEERKNS4_IS3_EES8_EUlRKiSA_E_bEENS4_IT1_EES8_S8_T0_
FN:423,_ZZN2sb6detail15broadcast_binopIiZNS_14elementwise_leIiQ8CanOrderIT_EEENS_6TensorIbEERKNS4_IS3_EES8_EUlRKiSA_E_bEENS4_IT1_EES8_S8_T0_ENKUlRKSt6vectorImSaImEEE_clESJ_
FN:501,_ZZN2sb14elementwise_leIiQ8CanOrderIT_EEENS_6TensorIbEERKNS2_IS1_EES6_ENKUlRKiS8_E_clES8_S8_
FN:506,_ZN2sb14elementwise_gtIiQ8CanOrderIT_EEENS_6TensorIbEERKNS2_IS1_EES6_
FN:418,_ZN2sb6detail15broadcast_binopIiZNS_14elementwise_gtIiQ8CanOrderIT_EEENS_6TensorIbEERKNS4_IS3_EES8_EUlRKiSA_E_bEENS4_IT1_EES8_S8_T0_
FN:423,_ZZN2sb6detail15broadcast_binopIiZNS_14elementwise_gtIiQ8CanOrderIT_EEENS_6TensorIbEERKNS4_IS3_EES8_EUlRKiSA_E_bEENS4_IT1_EES8_S8_T0_ENKUlRKSt6vectorImSaImEEE_clESJ_
FN:506,_ZZN2sb14elementwise_gtIiQ8CanOrderIT_EEENS_6TensorIbEERKNS2_IS1_EES6_ENKUlRKiS8_E_clES8_S8_
FN:511,_ZN2sb14elementwise_geIiQ8CanOrderIT_EEENS_6TensorIbEERKNS2_IS1_EES6_
FN:418,_ZN2sb6detail15broadcast_binopIiZNS_14elementwise_geIiQ8CanOrderIT_EEENS_6TensorIbEERKNS4_IS3_EES8_EUlRKiSA_E_bEENS4_IT1_EES8_S8_T0_
FN:423,_ZZN2sb6detail15broadcast_binopIiZNS_14elementwise_geIiQ8CanOrderIT_EEENS_6TensorIbEERKNS4_IS3_EES8_EUlRKiSA_E_bEENS4_IT1_EES8_S8_T0_ENKUlRKSt6vectorImSaImEEE_clESJ_
FN:511,_ZZN2sb14elementwise_geIiQ8CanOrderIT_EEENS_6TensorIbEERKNS2_IS1_EES6_ENKUlRKiS8_E_clES8_S8_
FN:446,_ZNK2sb6TensorIiEplERKS1_
FN:418,_ZN2sb6detail15broadcast_binopIiZNKS_6TensorIiEplERKS3_EUlRKiS7_E_iEENS2_IT1_EERKNS2_IT_EESE_T0_
FN:423,_ZZN2sb6detail15broadcast_binopIiZNKS_6TensorIiEplERKS3_EUlRKiS7_E_iEENS2_IT1_EERKNS2_IT_EESE_T0_ENKUlRKSt6vectorImSaImEEE_clESK_
FN:446,_ZZNK2sb6TensorIiEplERKS1_ENKUlRKiS5_E_clES5_S5_
FN:467,_ZN2sb6TensorIiEpLERKS1_
FN:431,_ZN2sb6detail23broadcast_binop_inplaceIiZNS_6TensorIiEpLERKS3_EUlRKiS7_E_EERNS2_IT_EESB_RKSA_T0_
FN:437,_ZZN2sb6detail23broadcast_binop_inplaceIiZNS_6TensorIiEpLERKS3_EUlRKiS7_E_EERNS2_IT_EESB_RKSA_T0_ENKUlRKSt6vectorImSaImEEE_clESJ_
FN:467,_ZZN2sb6TensorIiEpLERKS1_ENKUlRKiS5_E_clES5_S5_
FN:450,_ZNK2sb6TensorIiEmiERKS1_
FN:418,_ZN2sb6detail15broadcast_binopIiZNKS_6TensorIiEmiERKS3_EUlRKiS7_E_iEENS2_IT1_EERKNS2_IT_EESE_T0_
FN:423,_ZZN2sb6detail15broadcast_binopIiZNKS_6TensorIiEmiERKS3_EUlRKiS7_E_iEENS2_IT1_EERKNS2_IT_EESE_T0_ENKUlRKSt6vectorImSaImEEE_clESK_
FN:450,_ZZNK2sb6TensorIiEmiERKS1_ENKUlRKiS5_E_clES5_S5_
FN:471,_ZN2sb6TensorIiEmIERKS1_
FN:431,_ZN2sb6detail23broadcast_binop_inplaceIiZNS_6TensorIiEmIERKS3_EUlRKiS7_E_EERNS2_IT_EESB_RKSA_T0_
FN:437,_ZZN2sb6detail23broadcast_binop_inplaceIiZNS_6TensorIiEmIERKS3_EUlRKiS7_E_EERNS2_IT_EESB_RKSA_T0_ENKUlRKSt6vectorImSaImEEE_clESJ_
FN:471,_ZZN2sb6TensorIiEmIERKS1_ENKUlRKiS5_E_clES5_S5_
FN:454,_ZNK2sb6TensorIiEmlERKS1_
FN:418,_ZN2sb6detail15broadcast_binopIiZNKS_6TensorIiEmlERKS3_EUlRKiS7_E_iEENS2_IT1_EERKNS2_IT_EESE_T0_
FN:423,_ZZN2sb6detail15broadcast_binopIiZNKS_6TensorIiEmlERKS3_EUlRKiS7_E_iEENS2_IT1_EERKNS2_IT_EESE_T0_ENKUlRKSt6vectorImSaImEEE_clESK_
FN:458,_ZZNK2sb6TensorIiEmlERKS1_ENKUlRKiS5_E_clES5_S5_
FN:475,_ZN2sb6TensorIiEmLERKS1_
FN:431,_ZN2sb6detail23broadcast_binop_inplaceIiZNS_6TensorIiEmLERKS3_EUlRKiS7_E_EERNS2_IT_EESB_RKSA_T0_
FN:437,_ZZN2sb6detail23broadcast_binop_inplaceIiZNS_6TensorIiEmLERKS3_EUlRKiS7_E_EERNS2_IT_EESB_RKSA_T0_ENKUlRKSt6vectorImSaImEEE_clESJ_
FN:475,_ZZN2sb6TensorIiEmLERKS1_ENKUlRKiS5_E_clES5_S5_
FN:463,_ZNK2sb6TensorIiEdvERKS1_
FN:418,_ZN2sb6detail15broadcast_binopIiZNKS_6TensorIiEdvERKS3_EUlRKiS7_E_iEENS2_IT1_EERKNS2_IT_EESE_T0_
FN:423,_ZZN2sb6detail15broadcast_binopIiZNKS_6TensorIiEdvERKS3_EUlRKiS7_E_iEENS2_IT1_EERKNS2_IT_EESE_T0_ENKUlRKSt6vectorImSaImEEE_clESK_
FN:463,_ZZNK2sb6TensorIiEdvERKS1_ENKUlRKiS5_E_clES5_S5_
FN:479,_ZN2sb6TensorIiEdVERKS1_
FN:431,_ZN2sb6detail23broadcast_binop_inplaceIiZNS_6TensorIiEdVERKS3_EUlRKiS7_E_EERNS2_IT_EESB_RKSA_T0_
FN:437,_ZZN2sb6detail23broadcast_binop_inplaceIiZNS_6TensorIiEdVERKS3_EUlRKiS7_E_EERNS2_IT_EESB_RKSA_T0_ENKUlRKSt6vectorImSaImEEE_clESJ_
FN:479,_ZZN2sb6TensorIiEdVERKS1_ENKUlRKiS5_E_clES5_S5_
FN:519,_ZN2sb13masked_selectIiEENS_6TensorIT_EERKS3_RKNS1_IbEE
FN:528,_ZZN2sb13masked_selectIiEENS_6TensorIT_EERKS3_RKNS1_IbEEENKUlRKSt6vectorImSaImEEE_clESD_
FN:546,_ZN2sb13masked_assignIiEEvRNS_6TensorIT_EERKNS1_IbEERKS3_
FN:554,_ZZN2sb13masked_assignIiEEvRNS_6TensorIT_EERKNS1_IbEERKS3_ENKUlRKSt6vectorImSaImEEE_clESE_
FN:102,_ZNK2sb6TensorIiEclEm
FN:1188,_ZNK2sb6TensorIiE4sizeEv
FN:576,_ZN2sb11masked_fillIiEEvRNS_6TensorIT_EERKNS1_IbEERKS2_
FN:583,_ZZN2sb11masked_fillIiEEvRNS_6TensorIT_EERKNS1_IbEERKS2_ENKUlRKSt6vectorImSaImEEE_clESE_
FN:620,_ZN2sb11axis_selectIiEENS_6TensorIT_EERKS3_mRKNS1_IbEE
FN:634,_ZZN2sb11axis_selectIiEENS_6TensorIT_EERKS3_mRKNS1_IbEEENKUlRKSt6vectorImSaImEEE_clESD_
FN:645,_ZN2sb11axis_assignIiEEvRNS_6TensorIT_EEmRKNS1_IbEERKS3_
FN:659,_ZZN2sb11axis_assignIiEEvRNS_6TensorIT_EEmRKNS1_IbEERKS3_ENKUlRKSt6vectorImSaImEEE_clESE_
FN:668,_ZN2sb9axis_fillIiEEvRNS_6TensorIT_EEmRKNS1_IbEERKS2_
FN:671,_ZZN2sb9axis_fillIiEEvRNS_6TensorIT_EEmRKNS1_IbEERKS2_ENKUlRKSt6vectorImSaImEEE_clESE_
FN:703,_ZN2sb17multi_axis_selectIiEENS_6TensorIT_EERKS3_RKSt6vectorISt4pairImNS1_IbEEESaIS9_EE
FN:711,_ZZN2sb17multi_axis_selectIiEENS_6TensorIT_EERKS3_RKSt6vectorISt4pairImNS1_IbEEESaIS9_EEENKUlRKS6_ImSaImEEE_clESH_
FN:743,_ZN2sb17multi_axis_assignIiEEvRNS_6TensorIT_EERKSt6vectorISt4pairImNS1_IbEEESaIS8_EERKS3_
FN:758,_ZZN2sb17multi_axis_assignIiEEvRNS_6TensorIT_EERKSt6vectorISt4pairImNS1_IbEEESaIS8_EERKS3_ENKUlRKS5_ImSaImEEE_clESI_
FN:725,_ZN2sb15multi_axis_fillIiEEvRNS_6TensorIT_EERKSt6vectorISt4pairImNS1_IbEEESaIS8_EERKS2_
FN:729,_ZZN2sb15multi_axis_fillIiEEvRNS_6TensorIT_EERKSt6vectorISt4pairImNS1_IbEEESaIS8_EERKS2_ENKUlRKS5_ImSaImEEE_clESI_
FN:830,_ZN2sb12outer_selectIiEENS_6TensorIT_EERKS3_RKSt6vectorISt4pairImSt7variantIJNS1_IbEENS1_IlEEEEESaISC_EE
FN:838,_ZZN2sb12outer_selectIiEENS_6TensorIT_EERKS3_RKSt6vectorISt4pairImSt7variantIJNS1_IbEENS1_IlEEEEESaISC_EEENKUlRKS6_ImSaImEEE_clESK_
FN:878,_ZN2sb12outer_assignIiEEvRNS_6TensorIT_EERKSt6vectorISt4pairImSt7variantIJNS1_IbEENS1_IlEEEEESaISB_EERKS3_
FN:893,_ZZN2sb12outer_assignIiEEvRNS_6TensorIT_EERKSt6vectorISt4pairImSt7variantIJNS1_IbEENS1_IlEEEEESaISB_EERKS3_ENKUlRKS5_ImSaImEEE_clESL_
FN:852,_ZN2sb10outer_fillIiEEvRNS_6TensorIT_EERKSt6vectorISt4pairImSt7variantIJNS1_IbEENS1_IlEEEEESaISB_EERKS2_
FN:864,_ZZN2sb10outer_fillIiEEvRNS_6TensorIT_EERKSt6vectorISt4pairImSt7variantIJNS1_IbEENS1_IlEEEEESaISB_EERKS2_ENKUlRKS5_ImSaImEEE_clESL_
FN:1129,_ZN2sb12index_selectIilEENS_6TensorIT_EERKS3_mRKNS1_IT0_EE
FN:1141,_ZZN2sb12index_selectIilEENS_6TensorIT_EERKS3_mRKNS1_IT0_EEENKUlRKSt6vectorImSaImEEE_clESE_
FN:1152,_ZN2sb12index_assignIilEEvRNS_6TensorIT_EEmRKNS1_IT0_EERKS3_
FN:1163,_ZZN2sb12index_assignIilEEvRNS_6TensorIT_EEmRKNS1_IT0_EERKS3_ENKUlRKSt6vectorImSaImEEE_clESF_
FN:1172,_ZN2sb10index_fillIilEEvRNS_6TensorIT_EEmRKNS1_IT0_EERKS2_
FN:1179,_ZZN2sb10index_fillIilEEvRNS_6TensorIT_EEmRKNS1_IT0_EERKS2_ENKUlRKSt6vectorImSaImEEE_clESF_
FN:232,_ZNK2sb6TensorIiEplIiQ8CanAddToIT_S3_TL0__EEES1_RKS3_
FN:220,_ZN2sb6TensorIiEpLIiQ8CanAddToIT_S3_TL0__EEERS1_RKS3_
FN:1469,_ZN2sb6TensorIiE5applyIZNS1_pLIiQ8CanAddToIT_S4_TL0__EEERS1_RKS4_EUlRiE_Qsr3stdE9invocableIS5_RS4_EEEvOS4_
FN:1470,_ZZN2sb6TensorIiE5applyIZNS1_pLIiQ8CanAddToIT_S4_TL0__EEERS1_RKS4_EUlRiE_Qsr3stdE9invocableIS5_RS4_EEEvOS4_ENKUlRKSt6vectorImSaImEEE_clESH_
FN:221,_ZZN2sb6TensorIiEpLIiQ8CanAddToIT_S3_TL0__EEERS1_RKS3_ENKUlRiE_clES8_
FN:287,_ZN2sbplIiiQ8CanAddToIT0_T_S1_EEENS_6TensorIS1_EERKS2_RKS4_
FN:1469,_ZN2sb6TensorIiE5applyIZNS_plIiiQ8CanAddToIT0_T_S4_EEENS0_IS4_EERKS5_RKS6_EUlRiE_Qsr3stdE9invocableITL0__RS5_EEEvOS5_
FN:1470,_ZZN2sb6TensorIiE5applyIZNS_plIiiQ8CanAddToIT0_T_S4_EEENS0_IS4_EERKS5_RKS6_EUlRiE_Qsr3stdE9invocableITL0__RS5_EEEvOS5_ENKUlRKSt6vectorImSaImEEE_clESK_
FN:289,_ZZN2sbplIiiQ8CanAddToIT0_T_S1_EEENS_6TensorIS1_EERKS2_RKS4_ENKUlRiE_clES9_
FN:254,_ZNK2sb6TensorIiEmiIiQ13CanSubtractToIT_S3_TL0__EEES1_RKS3_
FN:242,_ZN2sb6TensorIiEmIIiQ13CanSubtractToIT_S3_TL0__EEERS1_RKS3_
FN:1469,_ZN2sb6TensorIiE5applyIZNS1_mIIiQ13CanSubtractToIT_S4_TL0__EEERS1_RKS4_EUlRiE_Qsr3stdE9invocableIS5_RS4_EEEvOS4_
FN:1470,_ZZN2sb6TensorIiE5applyIZNS1_mIIiQ13CanSubtractToIT_S4_TL0__EEERS1_RKS4_EUlRiE_Qsr3stdE9invocableIS5_RS4_EEEvOS4_ENKUlRKSt6vectorImSaImEEE_clESH_
FN:243,_ZZN2sb6TensorIiEmIIiQ13CanSubtractToIT_S3_TL0__EEERS1_RKS3_ENKUlRiE_clES8_
FN:298,_ZN2sbmiIiiQ13CanSubtractToIT0_T_S1_EEENS_6TensorIS1_EERKS2_RKS4_
FN:1469,_ZN2sb6TensorIiE5applyIZNS_miIiiQ13CanSubtractToIT0_T_S4_EEENS0_IS4_EERKS5_RKS6_EUlRiE_Qsr3stdE9invocableITL0__RS5_EEEvOS5_
FN:1470,_ZZN2sb6TensorIiE5applyIZNS_miIiiQ13CanSubtractToIT0_T_S4_EEENS0_IS4_EERKS5_RKS6_EUlRiE_Qsr3stdE9invocableITL0__RS5_EEEvOS5_ENKUlRKSt6vectorImSaImEEE_clESK_
FN:300,_ZZN2sbmiIiiQ13CanSubtractToIT0_T_S1_EEENS_6TensorIS1_EERKS2_RKS4_ENKUlRiE_clES9_
FN:210,_ZNK2sb6TensorIiEmlIiQ13CanMultiplyToIT_S3_TL0__EEES1_RKS3_
FN:195,_ZN2sb6TensorIiEmLIiQ13CanMultiplyToIT_S3_TL0__EEERS1_RKS3_
FN:1469,_ZN2sb6TensorIiE5applyIZNS1_mLIiQ13CanMultiplyToIT_S4_TL0__EEERS1_RKS4_EUlRiE_Qsr3stdE9invocableIS5_RS4_EEEvOS4_
FN:1470,_ZZN2sb6TensorIiE5applyIZNS1_mLIiQ13CanMultiplyToIT_S4_TL0__EEERS1_RKS4_EUlRiE_Qsr3stdE9invocableIS5_RS4_EEEvOS4_ENKUlRKSt6vectorImSaImEEE_clESH_
FN:196,_ZZN2sb6TensorIiEmLIiQ13CanMultiplyToIT_S3_TL0__EEERS1_RKS3_ENKUlRiE_clES8_
FN:273,_ZN2sbmlIiiQ13CanMultiplyToIT0_T_S1_EEENS_6TensorIS1_EERKS2_RKS4_
FN:1469,_ZN2sb6TensorIiE5applyIZNS_mlIiiQ13CanMultiplyToIT0_T_S4_EEENS0_IS4_EERKS5_RKS6_EUlRiE_Qsr3stdE9invocableITL0__RS5_EEEvOS5_
FN:1470,_ZZN2sb6TensorIiE5applyIZNS_mlIiiQ13CanMultiplyToIT0_T_S4_EEENS0_IS4_EERKS5_RKS6_EUlRiE_Qsr3stdE9invocableITL0__RS5_EEEvOS5_ENKUlRKSt6vectorImSaImEEE_clESK_
FN:275,_ZZN2sbmlIiiQ13CanMultiplyToIT0_T_S1_EEENS_6TensorIS1_EERKS2_RKS4_ENKUlRiE_clES9_
FN:185,_ZNK2sb6TensorIiEdvIiQ11CanDivideToIT_S3_TL0__EEES1_RKS3_
FN:173,_ZN2sb6TensorIiEdVIiQ11CanDivideToIT_S3_TL0__EEERS1_RKS3_
FN:1469,_ZN2sb6TensorIiE5applyIZNS1_dVIiQ11CanDivideToIT_S4_TL0__EEERS1_RKS4_EUlRiE_Qsr3stdE9invocableIS5_RS4_EEEvOS4_
FN:1470,_ZZN2sb6TensorIiE5applyIZNS1_dVIiQ11CanDivideToIT_S4_TL0__EEERS1_RKS4_EUlRiE_Qsr3stdE9invocableIS5_RS4_EEEvOS4_ENKUlRKSt6vectorImSaImEEE_clESH_
FN:174,_ZZN2sb6TensorIiEdVIiQ11CanDivideToIT_S3_TL0__EEERS1_RKS3_ENKUlRiE_clES8_
FN:309,_ZN2sbdvIiiQ11CanDivideToIT0_T_S1_EEENS_6TensorIS1_EERKS2_RKS4_
FN:1469,_ZN2sb6TensorIiE5applyIZNS_dvIiiQ11CanDivideToIT0_T_S4_EEENS0_IS4_EERKS5_RKS6_EUlRiE_Qsr3stdE9invocableITL0__RS5_EEEvOS5_
FN:1470,_ZZN2sb6TensorIiE5applyIZNS_dvIiiQ11CanDivideToIT0_T_S4_EEENS0_IS4_EERKS5_RKS6_EUlRiE_Qsr3stdE9invocableITL0__RS5_EEEvOS5_ENKUlRKSt6vectorImSaImEEE_clESK_
FN:311,_ZZN2sbdvIiiQ11CanDivideToIT0_T_S1_EEENS_6TensorIS1_EERKS2_RKS4_ENKUlRiE_clES9_
FN:331,_ZN2sb3powIiiQ6CanPowIT_T0_EEENS_6TensorIS1_EERKS4_S2_
FN:1469,_ZN2sb6TensorIiE5applyIZNS_3powIiiQ6CanPowIT_T0_EEENS0_IS4_EERKS6_S5_EUlRiE_Qsr3stdE9invocableITL0__RS4_EEEvOS4_
FN:1470,_ZZN2sb6TensorIiE5applyIZNS_3powIiiQ6CanPowIT_T0_EEENS0_IS4_EERKS6_S5_EUlRiE_Qsr3stdE9invocableITL0__RS4_EEEvOS4_ENKUlRKSt6vectorImSaImEEE_clESI_
FN:333,_ZZN2sb3powIiiQ6CanPowIT_T0_EEENS_6TensorIS1_EERKS4_S2_ENKUlRiE_clES7_
FN:1432,_ZNK2sb6TensorIiE6any_ofIZZN5sb_py30register_typed_tensor_bindingsIiEEvRN8pybind117module_ERKNSt7__cxx1112basic_stringIcSt11char_traitsIcESaIcEEESF_ENKUlRKS1_iE7_clESH_iEUlRKiE_Qsr3stdE9invocableITL0__RKT_EEEbOSN_
FN:1664,_ZN2sb6any_ofIiZZN5sb_py30register_typed_tensor_bindingsIiEEvRN8pybind117module_ERKNSt7__cxx1112basic_stringIcSt11char_traitsIcESaIcEEESD_ENKUlRKNS_6TensorIiEEiE7_clESH_iEUlRKiE_Qsr3stdE9invocableIT0_RKT_EEEbRKNSE_ISN_EEOSM_
FN:1666,_ZZN2sb6any_ofIiZZN5sb_py30register_typed_tensor_bindingsIiEEvRN8pybind117module_ERKNSt7__cxx1112basic_stringIcSt11char_traitsIcESaIcEEESD_ENKUlRKNS_6TensorIiEEiE7_clESH_iEUlRKiE_Qsr3stdE9invocableIT0_RKT_EEEbRKNSE_ISN_EEOSM_ENKUlRKSt6vectorImSaImEEE_clESY_
FN:350,_ZN2sb4ipowIiiQ6CanPowIT_T0_EEEvRNS_6TensorIS1_EES2_
FN:1469,_ZN2sb6TensorIiE5applyIZNS_4ipowIiiQ6CanPowIT_T0_EEEvRNS0_IS4_EES5_EUlRiE_Qsr3stdE9invocableITL0__RS4_EEEvOS4_
FN:1470,_ZZN2sb6TensorIiE5applyIZNS_4ipowIiiQ6CanPowIT_T0_EEEvRNS0_IS4_EES5_EUlRiE_Qsr3stdE9invocableITL0__RS4_EEEvOS4_ENKUlRKSt6vectorImSaImEEE_clESH_
FN:351,_ZZN2sb4ipowIiiQ6CanPowIT_T0_EEEvRNS_6TensorIS1_EES2_ENKUlRiE_clES6_
FN:84,_ZNK2sb6TensorIlEixISt6vectorISt7variantIJNS_10SliceIndexENS_10SliceRangeEEESaIS7_EEEES1_T_
FN:1476,_ZNK2sb6TensorIlE7extractISt6vectorISt7variantIJNS_10SliceIndexENS_10SliceRangeEEESaIS7_EEEES1_T_
FN:1499,_ZZNK2sb6TensorIlE7extractISt6vectorISt7variantIJNS_10SliceIndexENS_10SliceRangeEEESaIS7_EEEES1_T_ENKUlOSA_E_clIRS5_EEDaSB_
FN:1499,_ZZNK2sb6TensorIlE7extractISt6vectorISt7variantIJNS_10SliceIndexENS_10SliceRangeEEESaIS7_EEEES1_T_ENKUlOSA_E_clIRS6_EEDaSB_
FN:128,_ZN2sb6TensorIlE11assign_fromIlQsr3stdE18is_constructible_vIT_TL0__EEEvRKNS0_IS3_EE
FN:362,_ZNK2sb6TensorIlE12broadcast_toERKSt6vectorImSaImEE
FN:152,_ZZN2sb6TensorIlE11assign_fromIlQsr3stdE18is_constructible_vIT_TL0__EEEvRKNS0_IS3_EEENKUlRKSt6vectorImSaImEEE_clESC_
FN:162,_ZZN2sb6TensorIlE11assign_fromIlQsr3stdE18is_constructible_vIT_TL0__EEEvRKNS0_IS3_EEENKUlRKSt6vectorImSaImEEE0_clESC_
FN:486,_ZN2sb14elementwise_eqIlQsr3stdE19equality_comparableIT_EEENS_6TensorIbEERKNS2_IS1_EES6_
FN:418,_ZN2sb6detail15broadcast_binopIlZNS_14elementwise_eqIlQsr3stdE19equality_comparableIT_EEENS_6TensorIbEERKNS4_IS3_EES8_EUlRKlSA_E_bEENS4_IT1_EES8_S8_T0_
FN:423,_ZZN2sb6detail15broadcast_binopIlZNS_14elementwise_eqIlQsr3stdE19equality_comparableIT_EEENS_6TensorIbEERKNS4_IS3_EES8_EUlRKlSA_E_bEENS4_IT1_EES8_S8_T0_ENKUlRKSt6vectorImSaImEEE_clESJ_
FN:486,_ZZN2sb14elementwise_eqIlQsr3stdE19equality_comparableIT_EEENS_6TensorIbEERKNS2_IS1_EES6_ENKUlRKlS8_E_clES8_S8_
FN:491,_ZN2sb14elementwise_neIlQsr3stdE19equality_comparableIT_EEENS_6TensorIbEERKNS2_IS1_EES6_
FN:418,_ZN2sb6detail15broadcast_binopIlZNS_14elementwise_neIlQsr3stdE19equality_comparableIT_EEENS_6TensorIbEERKNS4_IS3_EES8_EUlRKlSA_E_bEENS4_IT1_EES8_S8_T0_
FN:423,_ZZN2sb6detail15broadcast_binopIlZNS_14elementwise_neIlQsr3stdE19equality_comparableIT_EEENS_6TensorIbEERKNS4_IS3_EES8_EUlRKlSA_E_bEENS4_IT1_EES8_S8_T0_ENKUlRKSt6vectorImSaImEEE_clESJ_
FN:491,_ZZN2sb14elementwise_neIlQsr3stdE19equality_comparableIT_EEENS_6TensorIbEERKNS2_IS1_EES6_ENKUlRKlS8_E_clES8_S8_
FN:53,_ZNK2sb6TensorIlEeqIlQsr3stdE24equality_comparable_withITL0__T_EEEbRKNS0_IS4_EE
FN:60,_ZZNK2sb6TensorIlEeqIlQsr3stdE24equality_comparable_withITL0__T_EEEbRKNS0_IS4_EEENKUlRKSt6vectorImSaImEEE_clESC_
FN:108,_ZN2sb6TensorIlEclEm
FN:1198,_ZNK2sb6TensorIlE4copyEv
FN:1201,_ZZNK2sb6TensorIlE4copyEvENKUlRKSt6vectorImSaImEEE_clES6_
FN:1210,_ZNK2sb6TensorIlE7flattenEv
FN:1229,_ZNK2sb6TensorIlE7reshapeERKSt6vectorIlSaIlEE
FN:1369,_ZNK2sb6TensorIlE9transposeERKSt6vectorImSaImEE
FN:1414,_ZNK2sb6TensorIlE8swapaxesEmm
FN:1294,_ZNK2sb6TensorIlE7squeezeEv
FN:1315,_ZNK2sb6TensorIlE7squeezeEm
FN:1343,_ZNK2sb6TensorIlE11expand_dimsEl
FN:933,_ZN2sb11concatenateIlEENS_6TensorIT_EERKSt6vectorIS3_SaIS3_EEm
FN:967,_ZZN2sb11concatenateIlEENS_6TensorIT_EERKSt6vectorIS3_SaIS3_EEmENKUlRKS4_ImSaImEEE_clESC_
FN:980,_ZN2sb5stackIlEENS_6TensorIT_EERKSt6vectorIS3_SaIS3_EEl
FN:1048,_ZN2sb5splitIlEESt6vectorINS_6TensorIT_EESaIS4_EERKS4_mm
FN:1011,_ZN2sb5splitIlEESt6vectorINS_6TensorIT_EESaIS4_EERKS4_RKS1_ImSaImEEm
FN:1075,_ZN2sb11array_splitIlEESt6vectorINS_6TensorIT_EESaIS4_EERKS4_mm
FN:262,_ZNK2sb6TensorIlEngEvQ9CanNegateIT_E
FN:1469,_ZN2sb6TensorIlE5applyIZNKS1_ngEvQ9CanNegateIT_EEUlRlE_Qsr3stdE9invocableITL0__RS3_EEEvOS3_
FN:1470,_ZZN2sb6TensorIlE5applyIZNKS1_ngEvQ9CanNegateIT_EEUlRlE_Qsr3stdE9invocableITL0__RS3_EEEvOS3_ENKUlRKSt6vectorImSaImEEE_clESD_
FN:264,_ZZNK2sb6TensorIlEngEvQ9CanNegateIT_EENKUlRlE_clES3_
FN:496,_ZN2sb14elementwise_ltIlQ8CanOrderIT_EEENS_6TensorIbEERKNS2_IS1_EES6_
FN:418,_ZN2sb6detail15broadcast_binopIlZNS_14elementwise_ltIlQ8CanOrderIT_EEENS_6TensorIbEERKNS4_IS3_EES8_EUlRKlSA_E_bEENS4_IT1_EES8_S8_T0_
FN:423,_ZZN2sb6detail15broadcast_binopIlZNS_14elementwise_ltIlQ8CanOrderIT_EEENS_6TensorIbEERKNS4_IS3_EES8_EUlRKlSA_E_bEENS4_IT1_EES8_S8_T0_ENKUlRKSt6vectorImSaImEEE_clESJ_
FN:496,_ZZN2sb14elementwise_ltIlQ8CanOrderIT_EEENS_6TensorIbEERKNS2_IS1_EES6_ENKUlRKlS8_E_clES8_S8_
FN:501,_ZN2sb14elementwise_leIlQ8CanOrderIT_EEENS_6TensorIbEERKNS2_IS1_EES6_
FN:418,_ZN2sb6detail15broadcast_binopIlZNS_14elementwise_leIlQ8CanOrderIT_EEENS_6TensorIbEERKNS4_IS3_EES8_EUlRKlSA_E_bEENS4_IT1_EES8_S8_T0_
FN:423,_ZZN2sb6detail15broadcast_binopIlZNS_14elementwise_leIlQ8CanOrderIT_EEENS_6TensorIbEERKNS4_IS3_EES8_EUlRKlSA_E_bEENS4_IT1_EES8_S8_T0_ENKUlRKSt6vectorImSaImEEE_clESJ_
FN:501,_ZZN2sb14elementwise_leIlQ8CanOrderIT_EEENS_6TensorIbEERKNS2_IS1_EES6_ENKUlRKlS8_E_clES8_S8_
FN:506,_ZN2sb14elementwise_gtIlQ8CanOrderIT_EEENS_6TensorIbEERKNS2_IS1_EES6_
FN:418,_ZN2sb6detail15broadcast_binopIlZNS_14elementwise_gtIlQ8CanOrderIT_EEENS_6TensorIbEERKNS4_IS3_EES8_EUlRKlSA_E_bEENS4_IT1_EES8_S8_T0_
FN:423,_ZZN2sb6detail15broadcast_binopIlZNS_14elementwise_gtIlQ8CanOrderIT_EEENS_6TensorIbEERKNS4_IS3_EES8_EUlRKlSA_E_bEENS4_IT1_EES8_S8_T0_ENKUlRKSt6vectorImSaImEEE_clESJ_
FN:506,_ZZN2sb14elementwise_gtIlQ8CanOrderIT_EEENS_6TensorIbEERKNS2_IS1_EES6_ENKUlRKlS8_E_clES8_S8_
FN:511,_ZN2sb14elementwise_geIlQ8CanOrderIT_EEENS_6TensorIbEERKNS2_IS1_EES6_
FN:418,_ZN2sb6detail15broadcast_binopIlZNS_14elementwise_geIlQ8CanOrderIT_EEENS_6TensorIbEERKNS4_IS3_EES8_EUlRKlSA_E_bEENS4_IT1_EES8_S8_T0_
FN:423,_ZZN2sb6detail15broadcast_binopIlZNS_14elementwise_geIlQ8CanOrderIT_EEENS_6TensorIbEERKNS4_IS3_EES8_EUlRKlSA_E_bEENS4_IT1_EES8_S8_T0_ENKUlRKSt6vectorImSaImEEE_clESJ_
FN:511,_ZZN2sb14elementwise_geIlQ8CanOrderIT_EEENS_6TensorIbEERKNS2_IS1_EES6_ENKUlRKlS8_E_clES8_S8_
FN:446,_ZNK2sb6TensorIlEplERKS1_
FN:418,_ZN2sb6detail15broadcast_binopIlZNKS_6TensorIlEplERKS3_EUlRKlS7_E_lEENS2_IT1_EERKNS2_IT_EESE_T0_
FN:423,_ZZN2sb6detail15broadcast_binopIlZNKS_6TensorIlEplERKS3_EUlRKlS7_E_lEENS2_IT1_EERKNS2_IT_EESE_T0_ENKUlRKSt6vectorImSaImEEE_clESK_
FN:446,_ZZNK2sb6TensorIlEplERKS1_ENKUlRKlS5_E_clES5_S5_
FN:467,_ZN2sb6TensorIlEpLERKS1_
FN:431,_ZN2sb6detail23broadcast_binop_inplaceIlZNS_6TensorIlEpLERKS3_EUlRKlS7_E_EERNS2_IT_EESB_RKSA_T0_
FN:437,_ZZN2sb6detail23broadcast_binop_inplaceIlZNS_6TensorIlEpLERKS3_EUlRKlS7_E_EERNS2_IT_EESB_RKSA_T0_ENKUlRKSt6vectorImSaImEEE_clESJ_
FN:467,_ZZN2sb6TensorIlEpLERKS1_ENKUlRKlS5_E_clES5_S5_
FN:450,_ZNK2sb6TensorIlEmiERKS1_
FN:418,_ZN2sb6detail15broadcast_binopIlZNKS_6TensorIlEmiERKS3_EUlRKlS7_E_lEENS2_IT1_EERKNS2_IT_EESE_T0_
FN:423,_ZZN2sb6detail15broadcast_binopIlZNKS_6TensorIlEmiERKS3_EUlRKlS7_E_lEENS2_IT1_EERKNS2_IT_EESE_T0_ENKUlRKSt6vectorImSaImEEE_clESK_
FN:450,_ZZNK2sb6TensorIlEmiERKS1_ENKUlRKlS5_E_clES5_S5_
FN:471,_ZN2sb6TensorIlEmIERKS1_
FN:431,_ZN2sb6detail23broadcast_binop_inplaceIlZNS_6TensorIlEmIERKS3_EUlRKlS7_E_EERNS2_IT_EESB_RKSA_T0_
FN:437,_ZZN2sb6detail23broadcast_binop_inplaceIlZNS_6TensorIlEmIERKS3_EUlRKlS7_E_EERNS2_IT_EESB_RKSA_T0_ENKUlRKSt6vectorImSaImEEE_clESJ_
FN:471,_ZZN2sb6TensorIlEmIERKS1_ENKUlRKlS5_E_clES5_S5_
FN:454,_ZNK2sb6TensorIlEmlERKS1_
FN:418,_ZN2sb6detail15broadcast_binopIlZNKS_6TensorIlEmlERKS3_EUlRKlS7_E_lEENS2_IT1_EERKNS2_IT_EESE_T0_
FN:423,_ZZN2sb6detail15broadcast_binopIlZNKS_6TensorIlEmlERKS3_EUlRKlS7_E_lEENS2_IT1_EERKNS2_IT_EESE_T0_ENKUlRKSt6vectorImSaImEEE_clESK_
FN:458,_ZZNK2sb6TensorIlEmlERKS1_ENKUlRKlS5_E_clES5_S5_
FN:475,_ZN2sb6TensorIlEmLERKS1_
FN:431,_ZN2sb6detail23broadcast_binop_inplaceIlZNS_6TensorIlEmLERKS3_EUlRKlS7_E_EERNS2_IT_EESB_RKSA_T0_
FN:437,_ZZN2sb6detail23broadcast_binop_inplaceIlZNS_6TensorIlEmLERKS3_EUlRKlS7_E_EERNS2_IT_EESB_RKSA_T0_ENKUlRKSt6vectorImSaImEEE_clESJ_
FN:475,_ZZN2sb6TensorIlEmLERKS1_ENKUlRKlS5_E_clES5_S5_
FN:463,_ZNK2sb6TensorIlEdvERKS1_
FN:418,_ZN2sb6detail15broadcast_binopIlZNKS_6TensorIlEdvERKS3_EUlRKlS7_E_lEENS2_IT1_EERKNS2_IT_EESE_T0_
FN:423,_ZZN2sb6detail15broadcast_binopIlZNKS_6TensorIlEdvERKS3_EUlRKlS7_E_lEENS2_IT1_EERKNS2_IT_EESE_T0_ENKUlRKSt6vectorImSaImEEE_clESK_
FN:463,_ZZNK2sb6TensorIlEdvERKS1_ENKUlRKlS5_E_clES5_S5_
FN:479,_ZN2sb6TensorIlEdVERKS1_
FN:431,_ZN2sb6detail23broadcast_binop_inplaceIlZNS_6TensorIlEdVERKS3_EUlRKlS7_E_EERNS2_IT_EESB_RKSA_T0_
FN:437,_ZZN2sb6detail23broadcast_binop_inplaceIlZNS_6TensorIlEdVERKS3_EUlRKlS7_E_EERNS2_IT_EESB_RKSA_T0_ENKUlRKSt6vectorImSaImEEE_clESJ_
FN:479,_ZZN2sb6TensorIlEdVERKS1_ENKUlRKlS5_E_clES5_S5_
FN:519,_ZN2sb13masked_selectIlEENS_6TensorIT_EERKS3_RKNS1_IbEE
FN:528,_ZZN2sb13masked_selectIlEENS_6TensorIT_EERKS3_RKNS1_IbEEENKUlRKSt6vectorImSaImEEE_clESD_
FN:546,_ZN2sb13masked_assignIlEEvRNS_6TensorIT_EERKNS1_IbEERKS3_
FN:554,_ZZN2sb13masked_assignIlEEvRNS_6TensorIT_EERKNS1_IbEERKS3_ENKUlRKSt6vectorImSaImEEE_clESE_
FN:1188,_ZNK2sb6TensorIlE4sizeEv
FN:576,_ZN2sb11masked_fillIlEEvRNS_6TensorIT_EERKNS1_IbEERKS2_
FN:583,_ZZN2sb11masked_fillIlEEvRNS_6TensorIT_EERKNS1_IbEERKS2_ENKUlRKSt6vectorImSaImEEE_clESE_
FN:620,_ZN2sb11axis_selectIlEENS_6TensorIT_EERKS3_mRKNS1_IbEE
FN:634,_ZZN2sb11axis_selectIlEENS_6TensorIT_EERKS3_mRKNS1_IbEEENKUlRKSt6vectorImSaImEEE_clESD_
FN:645,_ZN2sb11axis_assignIlEEvRNS_6TensorIT_EEmRKNS1_IbEERKS3_
FN:659,_ZZN2sb11axis_assignIlEEvRNS_6TensorIT_EEmRKNS1_IbEERKS3_ENKUlRKSt6vectorImSaImEEE_clESE_
FN:668,_ZN2sb9axis_fillIlEEvRNS_6TensorIT_EEmRKNS1_IbEERKS2_
FN:671,_ZZN2sb9axis_fillIlEEvRNS_6TensorIT_EEmRKNS1_IbEERKS2_ENKUlRKSt6vectorImSaImEEE_clESE_
FN:703,_ZN2sb17multi_axis_selectIlEENS_6TensorIT_EERKS3_RKSt6vectorISt4pairImNS1_IbEEESaIS9_EE
FN:711,_ZZN2sb17multi_axis_selectIlEENS_6TensorIT_EERKS3_RKSt6vectorISt4pairImNS1_IbEEESaIS9_EEENKUlRKS6_ImSaImEEE_clESH_
FN:743,_ZN2sb17multi_axis_assignIlEEvRNS_6TensorIT_EERKSt6vectorISt4pairImNS1_IbEEESaIS8_EERKS3_
FN:758,_ZZN2sb17multi_axis_assignIlEEvRNS_6TensorIT_EERKSt6vectorISt4pairImNS1_IbEEESaIS8_EERKS3_ENKUlRKS5_ImSaImEEE_clESI_
FN:725,_ZN2sb15multi_axis_fillIlEEvRNS_6TensorIT_EERKSt6vectorISt4pairImNS1_IbEEESaIS8_EERKS2_
FN:729,_ZZN2sb15multi_axis_fillIlEEvRNS_6TensorIT_EERKSt6vectorISt4pairImNS1_IbEEESaIS8_EERKS2_ENKUlRKS5_ImSaImEEE_clESI_
FN:830,_ZN2sb12outer_selectIlEENS_6TensorIT_EERKS3_RKSt6vectorISt4pairImSt7variantIJNS1_IbEENS1_IlEEEEESaISC_EE
FN:838,_ZZN2sb12outer_selectIlEENS_6TensorIT_EERKS3_RKSt6vectorISt4pairImSt7variantIJNS1_IbEENS1_IlEEEEESaISC_EEENKUlRKS6_ImSaImEEE_clESK_
FN:878,_ZN2sb12outer_assignIlEEvRNS_6TensorIT_EERKSt6vectorISt4pairImSt7variantIJNS1_IbEENS1_IlEEEEESaISB_EERKS3_
FN:893,_ZZN2sb12outer_assignIlEEvRNS_6TensorIT_EERKSt6vectorISt4pairImSt7variantIJNS1_IbEENS1_IlEEEEESaISB_EERKS3_ENKUlRKS5_ImSaImEEE_clESL_
FN:852,_ZN2sb10outer_fillIlEEvRNS_6TensorIT_EERKSt6vectorISt4pairImSt7variantIJNS1_IbEENS1_IlEEEEESaISB_EERKS2_
FN:864,_ZZN2sb10outer_fillIlEEvRNS_6TensorIT_EERKSt6vectorISt4pairImSt7variantIJNS1_IbEENS1_IlEEEEESaISB_EERKS2_ENKUlRKS5_ImSaImEEE_clESL_
FN:1129,_ZN2sb12index_selectIllEENS_6TensorIT_EERKS3_mRKNS1_IT0_EE
FN:1141,_ZZN2sb12index_selectIllEENS_6TensorIT_EERKS3_mRKNS1_IT0_EEENKUlRKSt6vectorImSaImEEE_clESE_
FN:1152,_ZN2sb12index_assignIllEEvRNS_6TensorIT_EEmRKNS1_IT0_EERKS3_
FN:1163,_ZZN2sb12index_assignIllEEvRNS_6TensorIT_EEmRKNS1_IT0_EERKS3_ENKUlRKSt6vectorImSaImEEE_clESF_
FN:1172,_ZN2sb10index_fillIllEEvRNS_6TensorIT_EEmRKNS1_IT0_EERKS2_
FN:1179,_ZZN2sb10index_fillIllEEvRNS_6TensorIT_EEmRKNS1_IT0_EERKS2_ENKUlRKSt6vectorImSaImEEE_clESF_
FN:232,_ZNK2sb6TensorIlEplIlQ8CanAddToIT_S3_TL0__EEES1_RKS3_
FN:220,_ZN2sb6TensorIlEpLIlQ8CanAddToIT_S3_TL0__EEERS1_RKS3_
FN:1469,_ZN2sb6TensorIlE5applyIZNS1_pLIlQ8CanAddToIT_S4_TL0__EEERS1_RKS4_EUlRlE_Qsr3stdE9invocableIS5_RS4_EEEvOS4_
FN:1470,_ZZN2sb6TensorIlE5applyIZNS1_pLIlQ8CanAddToIT_S4_TL0__EEERS1_RKS4_EUlRlE_Qsr3stdE9invocableIS5_RS4_EEEvOS4_ENKUlRKSt6vectorImSaImEEE_clESH_
FN:221,_ZZN2sb6TensorIlEpLIlQ8CanAddToIT_S3_TL0__EEERS1_RKS3_ENKUlRlE_clES8_
FN:287,_ZN2sbplIllQ8CanAddToIT0_T_S1_EEENS_6TensorIS1_EERKS2_RKS4_
FN:1469,_ZN2sb6TensorIlE5applyIZNS_plIllQ8CanAddToIT0_T_S4_EEENS0_IS4_EERKS5_RKS6_EUlRlE_Qsr3stdE9invocableITL0__RS5_EEEvOS5_
FN:1470,_ZZN2sb6TensorIlE5applyIZNS_plIllQ8CanAddToIT0_T_S4_EEENS0_IS4_EERKS5_RKS6_EUlRlE_Qsr3stdE9invocableITL0__RS5_EEEvOS5_ENKUlRKSt6vectorImSaImEEE_clESK_
FN:289,_ZZN2sbplIllQ8CanAddToIT0_T_S1_EEENS_6TensorIS1_EERKS2_RKS4_ENKUlRlE_clES9_
FN:254,_ZNK2sb6TensorIlEmiIlQ13CanSubtractToIT_S3_TL0__EEES1_RKS3_
FN:242,_ZN2sb6TensorIlEmIIlQ13CanSubtractToIT_S3_TL0__EEERS1_RKS3_
FN:1469,_ZN2sb6TensorIlE5applyIZNS1_mIIlQ13CanSubtractToIT_S4_TL0__EEERS1_RKS4_EUlRlE_Qsr3stdE9invocableIS5_RS4_EEEvOS4_
FN:1470,_ZZN2sb6TensorIlE5applyIZNS1_mIIlQ13CanSubtractToIT_S4_TL0__EEERS1_RKS4_EUlRlE_Qsr3stdE9invocableIS5_RS4_EEEvOS4_ENKUlRKSt6vectorImSaImEEE_clESH_
FN:243,_ZZN2sb6TensorIlEmIIlQ13CanSubtractToIT_S3_TL0__EEERS1_RKS3_ENKUlRlE_clES8_
FN:298,_ZN2sbmiIllQ13CanSubtractToIT0_T_S1_EEENS_6TensorIS1_EERKS2_RKS4_
FN:1469,_ZN2sb6TensorIlE5applyIZNS_miIllQ13CanSubtractToIT0_T_S4_EEENS0_IS4_EERKS5_RKS6_EUlRlE_Qsr3stdE9invocableITL0__RS5_EEEvOS5_
FN:1470,_ZZN2sb6TensorIlE5applyIZNS_miIllQ13CanSubtractToIT0_T_S4_EEENS0_IS4_EERKS5_RKS6_EUlRlE_Qsr3stdE9invocableITL0__RS5_EEEvOS5_ENKUlRKSt6vectorImSaImEEE_clESK_
FN:300,_ZZN2sbmiIllQ13CanSubtractToIT0_T_S1_EEENS_6TensorIS1_EERKS2_RKS4_ENKUlRlE_clES9_
FN:210,_ZNK2sb6TensorIlEmlIlQ13CanMultiplyToIT_S3_TL0__EEES1_RKS3_
FN:195,_ZN2sb6TensorIlEmLIlQ13CanMultiplyToIT_S3_TL0__EEERS1_RKS3_
FN:1469,_ZN2sb6TensorIlE5applyIZNS1_mLIlQ13CanMultiplyToIT_S4_TL0__EEERS1_RKS4_EUlRlE_Qsr3stdE9invocableIS5_RS4_EEEvOS4_
FN:1470,_ZZN2sb6TensorIlE5applyIZNS1_mLIlQ13CanMultiplyToIT_S4_TL0__EEERS1_RKS4_EUlRlE_Qsr3stdE9invocableIS5_RS4_EEEvOS4_ENKUlRKSt6vectorImSaImEEE_clESH_
FN:196,_ZZN2sb6TensorIlEmLIlQ13CanMultiplyToIT_S3_TL0__EEERS1_RKS3_ENKUlRlE_clES8_
FN:273,_ZN2sbmlIllQ13CanMultiplyToIT0_T_S1_EEENS_6TensorIS1_EERKS2_RKS4_
FN:1469,_ZN2sb6TensorIlE5applyIZNS_mlIllQ13CanMultiplyToIT0_T_S4_EEENS0_IS4_EERKS5_RKS6_EUlRlE_Qsr3stdE9invocableITL0__RS5_EEEvOS5_
FN:1470,_ZZN2sb6TensorIlE5applyIZNS_mlIllQ13CanMultiplyToIT0_T_S4_EEENS0_IS4_EERKS5_RKS6_EUlRlE_Qsr3stdE9invocableITL0__RS5_EEEvOS5_ENKUlRKSt6vectorImSaImEEE_clESK_
FN:275,_ZZN2sbmlIllQ13CanMultiplyToIT0_T_S1_EEENS_6TensorIS1_EERKS2_RKS4_ENKUlRlE_clES9_
FN:185,_ZNK2sb6TensorIlEdvIlQ11CanDivideToIT_S3_TL0__EEES1_RKS3_
FN:173,_ZN2sb6TensorIlEdVIlQ11CanDivideToIT_S3_TL0__EEERS1_RKS3_
FN:1469,_ZN2sb6TensorIlE5applyIZNS1_dVIlQ11CanDivideToIT_S4_TL0__EEERS1_RKS4_EUlRlE_Qsr3stdE9invocableIS5_RS4_EEEvOS4_
FN:1470,_ZZN2sb6TensorIlE5applyIZNS1_dVIlQ11CanDivideToIT_S4_TL0__EEERS1_RKS4_EUlRlE_Qsr3stdE9invocableIS5_RS4_EEEvOS4_ENKUlRKSt6vectorImSaImEEE_clESH_
FN:174,_ZZN2sb6TensorIlEdVIlQ11CanDivideToIT_S3_TL0__EEERS1_RKS3_ENKUlRlE_clES8_
FN:309,_ZN2sbdvIllQ11CanDivideToIT0_T_S1_EEENS_6TensorIS1_EERKS2_RKS4_
FN:1469,_ZN2sb6TensorIlE5applyIZNS_dvIllQ11CanDivideToIT0_T_S4_EEENS0_IS4_EERKS5_RKS6_EUlRlE_Qsr3stdE9invocableITL0__RS5_EEEvOS5_
FN:1470,_ZZN2sb6TensorIlE5applyIZNS_dvIllQ11CanDivideToIT0_T_S4_EEENS0_IS4_EERKS5_RKS6_EUlRlE_Qsr3stdE9invocableITL0__RS5_EEEvOS5_ENKUlRKSt6vectorImSaImEEE_clESK_
FN:311,_ZZN2sbdvIllQ11CanDivideToIT0_T_S1_EEENS_6TensorIS1_EERKS2_RKS4_ENKUlRlE_clES9_
FN:331,_ZN2sb3powIllQ6CanPowIT_T0_EEENS_6TensorIS1_EERKS4_S2_
FN:1469,_ZN2sb6TensorIlE5applyIZNS_3powIllQ6CanPowIT_T0_EEENS0_IS4_EERKS6_S5_EUlRlE_Qsr3stdE9invocableITL0__RS4_EEEvOS4_
FN:1470,_ZZN2sb6TensorIlE5applyIZNS_3powIllQ6CanPowIT_T0_EEENS0_IS4_EERKS6_S5_EUlRlE_Qsr3stdE9invocableITL0__RS4_EEEvOS4_ENKUlRKSt6vectorImSaImEEE_clESI_
FN:333,_ZZN2sb3powIllQ6CanPowIT_T0_EEENS_6TensorIS1_EERKS4_S2_ENKUlRlE_clES7_
FN:1432,_ZNK2sb6TensorIlE6any_ofIZZN5sb_py30register_typed_tensor_bindingsIlEEvRN8pybind117module_ERKNSt7__cxx1112basic_stringIcSt11char_traitsIcESaIcEEESF_ENKUlRKS1_lE7_clESH_lEUlRKlE_Qsr3stdE9invocableITL0__RKT_EEEbOSN_
FN:1664,_ZN2sb6any_ofIlZZN5sb_py30register_typed_tensor_bindingsIlEEvRN8pybind117module_ERKNSt7__cxx1112basic_stringIcSt11char_traitsIcESaIcEEESD_ENKUlRKNS_6TensorIlEElE7_clESH_lEUlRKlE_Qsr3stdE9invocableIT0_RKT_EEEbRKNSE_ISN_EEOSM_
FN:1666,_ZZN2sb6any_ofIlZZN5sb_py30register_typed_tensor_bindingsIlEEvRN8pybind117module_ERKNSt7__cxx1112basic_stringIcSt11char_traitsIcESaIcEEESD_ENKUlRKNS_6TensorIlEElE7_clESH_lEUlRKlE_Qsr3stdE9invocableIT0_RKT_EEEbRKNSE_ISN_EEOSM_ENKUlRKSt6vectorImSaImEEE_clESY_
FN:350,_ZN2sb4ipowIllQ6CanPowIT_T0_EEEvRNS_6TensorIS1_EES2_
FN:1469,_ZN2sb6TensorIlE5applyIZNS_4ipowIllQ6CanPowIT_T0_EEEvRNS0_IS4_EES5_EUlRlE_Qsr3stdE9invocableITL0__RS4_EEEvOS4_
FN:1470,_ZZN2sb6TensorIlE5applyIZNS_4ipowIllQ6CanPowIT_T0_EEEvRNS0_IS4_EES5_EUlRlE_Qsr3stdE9invocableITL0__RS4_EEEvOS4_ENKUlRKSt6vectorImSaImEEE_clESH_
FN:351,_ZZN2sb4ipowIllQ6CanPowIT_T0_EEEvRNS_6TensorIS1_EES2_ENKUlRlE_clES6_
FN:84,_ZNK2sb6TensorIjEixISt6vectorISt7variantIJNS_10SliceIndexENS_10SliceRangeEEESaIS7_EEEES1_T_
FN:1476,_ZNK2sb6TensorIjE7extractISt6vectorISt7variantIJNS_10SliceIndexENS_10SliceRangeEEESaIS7_EEEES1_T_
FN:1499,_ZZNK2sb6TensorIjE7extractISt6vectorISt7variantIJNS_10SliceIndexENS_10SliceRangeEEESaIS7_EEEES1_T_ENKUlOSA_E_clIRS5_EEDaSB_
FN:1499,_ZZNK2sb6TensorIjE7extractISt6vectorISt7variantIJNS_10SliceIndexENS_10SliceRangeEEESaIS7_EEEES1_T_ENKUlOSA_E_clIRS6_EEDaSB_
FN:128,_ZN2sb6TensorIjE11assign_fromIjQsr3stdE18is_constructible_vIT_TL0__EEEvRKNS0_IS3_EE
FN:362,_ZNK2sb6TensorIjE12broadcast_toERKSt6vectorImSaImEE
FN:152,_ZZN2sb6TensorIjE11assign_fromIjQsr3stdE18is_constructible_vIT_TL0__EEEvRKNS0_IS3_EEENKUlRKSt6vectorImSaImEEE_clESC_
FN:162,_ZZN2sb6TensorIjE11assign_fromIjQsr3stdE18is_constructible_vIT_TL0__EEEvRKNS0_IS3_EEENKUlRKSt6vectorImSaImEEE0_clESC_
FN:486,_ZN2sb14elementwise_eqIjQsr3stdE19equality_comparableIT_EEENS_6TensorIbEERKNS2_IS1_EES6_
FN:418,_ZN2sb6detail15broadcast_binopIjZNS_14elementwise_eqIjQsr3stdE19equality_comparableIT_EEENS_6TensorIbEERKNS4_IS3_EES8_EUlRKjSA_E_bEENS4_IT1_EES8_S8_T0_
FN:423,_ZZN2sb6detail15broadcast_binopIjZNS_14elementwise_eqIjQsr3stdE19equality_comparableIT_EEENS_6TensorIbEERKNS4_IS3_EES8_EUlRKjSA_E_bEENS4_IT1_EES8_S8_T0_ENKUlRKSt6vectorImSaImEEE_clESJ_
FN:486,_ZZN2sb14elementwise_eqIjQsr3stdE19equality_comparableIT_EEENS_6TensorIbEERKNS2_IS1_EES6_ENKUlRKjS8_E_clES8_S8_
FN:491,_ZN2sb14elementwise_neIjQsr3stdE19equality_comparableIT_EEENS_6TensorIbEERKNS2_IS1_EES6_
FN:418,_ZN2sb6detail15broadcast_binopIjZNS_14elementwise_neIjQsr3stdE19equality_comparableIT_EEENS_6TensorIbEERKNS4_IS3_EES8_EUlRKjSA_E_bEENS4_IT1_EES8_S8_T0_
FN:423,_ZZN2sb6detail15broadcast_binopIjZNS_14elementwise_neIjQsr3stdE19equality_comparableIT_EEENS_6TensorIbEERKNS4_IS3_EES8_EUlRKjSA_E_bEENS4_IT1_EES8_S8_T0_ENKUlRKSt6vectorImSaImEEE_clESJ_
FN:491,_ZZN2sb14elementwise_neIjQsr3stdE19equality_comparableIT_EEENS_6TensorIbEERKNS2_IS1_EES6_ENKUlRKjS8_E_clES8_S8_
FN:53,_ZNK2sb6TensorIjEeqIjQsr3stdE24equality_comparable_withITL0__T_EEEbRKNS0_IS4_EE
FN:60,_ZZNK2sb6TensorIjEeqIjQsr3stdE24equality_comparable_withITL0__T_EEEbRKNS0_IS4_EEENKUlRKSt6vectorImSaImEEE_clESC_
FN:108,_ZN2sb6TensorIjEclEm
FN:1198,_ZNK2sb6TensorIjE4copyEv
FN:1201,_ZZNK2sb6TensorIjE4copyEvENKUlRKSt6vectorImSaImEEE_clES6_
FN:1210,_ZNK2sb6TensorIjE7flattenEv
FN:1229,_ZNK2sb6TensorIjE7reshapeERKSt6vectorIlSaIlEE
FN:1369,_ZNK2sb6TensorIjE9transposeERKSt6vectorImSaImEE
FN:1414,_ZNK2sb6TensorIjE8swapaxesEmm
FN:1294,_ZNK2sb6TensorIjE7squeezeEv
FN:1315,_ZNK2sb6TensorIjE7squeezeEm
FN:1343,_ZNK2sb6TensorIjE11expand_dimsEl
FN:933,_ZN2sb11concatenateIjEENS_6TensorIT_EERKSt6vectorIS3_SaIS3_EEm
FN:967,_ZZN2sb11concatenateIjEENS_6TensorIT_EERKSt6vectorIS3_SaIS3_EEmENKUlRKS4_ImSaImEEE_clESC_
FN:980,_ZN2sb5stackIjEENS_6TensorIT_EERKSt6vectorIS3_SaIS3_EEl
FN:1048,_ZN2sb5splitIjEESt6vectorINS_6TensorIT_EESaIS4_EERKS4_mm
FN:1011,_ZN2sb5splitIjEESt6vectorINS_6TensorIT_EESaIS4_EERKS4_RKS1_ImSaImEEm
FN:1075,_ZN2sb11array_splitIjEESt6vectorINS_6TensorIT_EESaIS4_EERKS4_mm
FN:262,_ZNK2sb6TensorIjEngEvQ9CanNegateIT_E
FN:1469,_ZN2sb6TensorIjE5applyIZNKS1_ngEvQ9CanNegateIT_EEUlRjE_Qsr3stdE9invocableITL0__RS3_EEEvOS3_
FN:1470,_ZZN2sb6TensorIjE5applyIZNKS1_ngEvQ9CanNegateIT_EEUlRjE_Qsr3stdE9invocableITL0__RS3_EEEvOS3_ENKUlRKSt6vectorImSaImEEE_clESD_
FN:264,_ZZNK2sb6TensorIjEngEvQ9CanNegateIT_EENKUlRjE_clES3_
FN:496,_ZN2sb14elementwise_ltIjQ8CanOrderIT_EEENS_6TensorIbEERKNS2_IS1_EES6_
FN:418,_ZN2sb6detail15broadcast_binopIjZNS_14elementwise_ltIjQ8CanOrderIT_EEENS_6TensorIbEERKNS4_IS3_EES8_EUlRKjSA_E_bEENS4_IT1_EES8_S8_T0_
FN:423,_ZZN2sb6detail15broadcast_binopIjZNS_14elementwise_ltIjQ8CanOrderIT_EEENS_6TensorIbEERKNS4_IS3_EES8_EUlRKjSA_E_bEENS4_IT1_EES8_S8_T0_ENKUlRKSt6vectorImSaImEEE_clESJ_
FN:496,_ZZN2sb14elementwise_ltIjQ8CanOrderIT_EEENS_6TensorIbEERKNS2_IS1_EES6_ENKUlRKjS8_E_clES8_S8_
FN:501,_ZN2sb14elementwise_leIjQ8CanOrderIT_EEENS_6TensorIbEERKNS2_IS1_EES6_
FN:418,_ZN2sb6detail15broadcast_binopIjZNS_14elementwise_leIjQ8CanOrderIT_EEENS_6TensorIbEERKNS4_IS3_EES8_EUlRKjSA_E_bEENS4_IT1_EES8_S8_T0_
FN:423,_ZZN2sb6detail15broadcast_binopIjZNS_14elementwise_leIjQ8CanOrderIT_EEENS_6TensorIbEERKNS4_IS3_EES8_EUlRKjSA_E_bEENS4_IT1_EES8_S8_T0_ENKUlRKSt6vectorImSaImEEE_clESJ_
FN:501,_ZZN2sb14elementwise_leIjQ8CanOrderIT_EEENS_6TensorIbEERKNS2_IS1_EES6_ENKUlRKjS8_E_clES8_S8_
FN:506,_ZN2sb14elementwise_gtIjQ8CanOrderIT_EEENS_6TensorIbEERKNS2_IS1_EES6_
FN:418,_ZN2sb6detail15broadcast_binopIjZNS_14elementwise_gtIjQ8CanOrderIT_EEENS_6TensorIbEERKNS4_IS3_EES8_EUlRKjSA_E_bEENS4_IT1_EES8_S8_T0_
FN:423,_ZZN2sb6detail15broadcast_binopIjZNS_14elementwise_gtIjQ8CanOrderIT_EEENS_6TensorIbEERKNS4_IS3_EES8_EUlRKjSA_E_bEENS4_IT1_EES8_S8_T0_ENKUlRKSt6vectorImSaImEEE_clESJ_
FN:506,_ZZN2sb14elementwise_gtIjQ8CanOrderIT_EEENS_6TensorIbEERKNS2_IS1_EES6_ENKUlRKjS8_E_clES8_S8_
FN:511,_ZN2sb14elementwise_geIjQ8CanOrderIT_EEENS_6TensorIbEERKNS2_IS1_EES6_
FN:418,_ZN2sb6detail15broadcast_binopIjZNS_14elementwise_geIjQ8CanOrderIT_EEENS_6TensorIbEERKNS4_IS3_EES8_EUlRKjSA_E_bEENS4_IT1_EES8_S8_T0_
FN:423,_ZZN2sb6detail15broadcast_binopIjZNS_14elementwise_geIjQ8CanOrderIT_EEENS_6TensorIbEERKNS4_IS3_EES8_EUlRKjSA_E_bEENS4_IT1_EES8_S8_T0_ENKUlRKSt6vectorImSaImEEE_clESJ_
FN:511,_ZZN2sb14elementwise_geIjQ8CanOrderIT_EEENS_6TensorIbEERKNS2_IS1_EES6_ENKUlRKjS8_E_clES8_S8_
FN:446,_ZNK2sb6TensorIjEplERKS1_
FN:418,_ZN2sb6detail15broadcast_binopIjZNKS_6TensorIjEplERKS3_EUlRKjS7_E_jEENS2_IT1_EERKNS2_IT_EESE_T0_
FN:423,_ZZN2sb6detail15broadcast_binopIjZNKS_6TensorIjEplERKS3_EUlRKjS7_E_jEENS2_IT1_EERKNS2_IT_EESE_T0_ENKUlRKSt6vectorImSaImEEE_clESK_
FN:446,_ZZNK2sb6TensorIjEplERKS1_ENKUlRKjS5_E_clES5_S5_
FN:467,_ZN2sb6TensorIjEpLERKS1_
FN:431,_ZN2sb6detail23broadcast_binop_inplaceIjZNS_6TensorIjEpLERKS3_EUlRKjS7_E_EERNS2_IT_EESB_RKSA_T0_
FN:437,_ZZN2sb6detail23broadcast_binop_inplaceIjZNS_6TensorIjEpLERKS3_EUlRKjS7_E_EERNS2_IT_EESB_RKSA_T0_ENKUlRKSt6vectorImSaImEEE_clESJ_
FN:467,_ZZN2sb6TensorIjEpLERKS1_ENKUlRKjS5_E_clES5_S5_
FN:450,_ZNK2sb6TensorIjEmiERKS1_
FN:418,_ZN2sb6detail15broadcast_binopIjZNKS_6TensorIjEmiERKS3_EUlRKjS7_E_jEENS2_IT1_EERKNS2_IT_EESE_T0_
FN:423,_ZZN2sb6detail15broadcast_binopIjZNKS_6TensorIjEmiERKS3_EUlRKjS7_E_jEENS2_IT1_EERKNS2_IT_EESE_T0_ENKUlRKSt6vectorImSaImEEE_clESK_
FN:450,_ZZNK2sb6TensorIjEmiERKS1_ENKUlRKjS5_E_clES5_S5_
FN:471,_ZN2sb6TensorIjEmIERKS1_
FN:431,_ZN2sb6detail23broadcast_binop_inplaceIjZNS_6TensorIjEmIERKS3_EUlRKjS7_E_EERNS2_IT_EESB_RKSA_T0_
FN:437,_ZZN2sb6detail23broadcast_binop_inplaceIjZNS_6TensorIjEmIERKS3_EUlRKjS7_E_EERNS2_IT_EESB_RKSA_T0_ENKUlRKSt6vectorImSaImEEE_clESJ_
FN:471,_ZZN2sb6TensorIjEmIERKS1_ENKUlRKjS5_E_clES5_S5_
FN:454,_ZNK2sb6TensorIjEmlERKS1_
FN:418,_ZN2sb6detail15broadcast_binopIjZNKS_6TensorIjEmlERKS3_EUlRKjS7_E_jEENS2_IT1_EERKNS2_IT_EESE_T0_
FN:423,_ZZN2sb6detail15broadcast_binopIjZNKS_6TensorIjEmlERKS3_EUlRKjS7_E_jEENS2_IT1_EERKNS2_IT_EESE_T0_ENKUlRKSt6vectorImSaImEEE_clESK_
FN:458,_ZZNK2sb6TensorIjEmlERKS1_ENKUlRKjS5_E_clES5_S5_
FN:475,_ZN2sb6TensorIjEmLERKS1_
FN:431,_ZN2sb6detail23broadcast_binop_inplaceIjZNS_6TensorIjEmLERKS3_EUlRKjS7_E_EERNS2_IT_EESB_RKSA_T0_
FN:437,_ZZN2sb6detail23broadcast_binop_inplaceIjZNS_6TensorIjEmLERKS3_EUlRKjS7_E_EERNS2_IT_EESB_RKSA_T0_ENKUlRKSt6vectorImSaImEEE_clESJ_
FN:475,_ZZN2sb6TensorIjEmLERKS1_ENKUlRKjS5_E_clES5_S5_
FN:463,_ZNK2sb6TensorIjEdvERKS1_
FN:418,_ZN2sb6detail15broadcast_binopIjZNKS_6TensorIjEdvERKS3_EUlRKjS7_E_jEENS2_IT1_EERKNS2_IT_EESE_T0_
FN:423,_ZZN2sb6detail15broadcast_binopIjZNKS_6TensorIjEdvERKS3_EUlRKjS7_E_jEENS2_IT1_EERKNS2_IT_EESE_T0_ENKUlRKSt6vectorImSaImEEE_clESK_
FN:463,_ZZNK2sb6TensorIjEdvERKS1_ENKUlRKjS5_E_clES5_S5_
FN:479,_ZN2sb6TensorIjEdVERKS1_
FN:431,_ZN2sb6detail23broadcast_binop_inplaceIjZNS_6TensorIjEdVERKS3_EUlRKjS7_E_EERNS2_IT_EESB_RKSA_T0_
FN:437,_ZZN2sb6detail23broadcast_binop_inplaceIjZNS_6TensorIjEdVERKS3_EUlRKjS7_E_EERNS2_IT_EESB_RKSA_T0_ENKUlRKSt6vectorImSaImEEE_clESJ_
FN:479,_ZZN2sb6TensorIjEdVERKS1_ENKUlRKjS5_E_clES5_S5_
FN:519,_ZN2sb13masked_selectIjEENS_6TensorIT_EERKS3_RKNS1_IbEE
FN:528,_ZZN2sb13masked_selectIjEENS_6TensorIT_EERKS3_RKNS1_IbEEENKUlRKSt6vectorImSaImEEE_clESD_
FN:546,_ZN2sb13masked_assignIjEEvRNS_6TensorIT_EERKNS1_IbEERKS3_
FN:554,_ZZN2sb13masked_assignIjEEvRNS_6TensorIT_EERKNS1_IbEERKS3_ENKUlRKSt6vectorImSaImEEE_clESE_
FN:102,_ZNK2sb6TensorIjEclEm
FN:1188,_ZNK2sb6TensorIjE4sizeEv
FN:576,_ZN2sb11masked_fillIjEEvRNS_6TensorIT_EERKNS1_IbEERKS2_
FN:583,_ZZN2sb11masked_fillIjEEvRNS_6TensorIT_EERKNS1_IbEERKS2_ENKUlRKSt6vectorImSaImEEE_clESE_
FN:620,_ZN2sb11axis_selectIjEENS_6TensorIT_EERKS3_mRKNS1_IbEE
FN:634,_ZZN2sb11axis_selectIjEENS_6TensorIT_EERKS3_mRKNS1_IbEEENKUlRKSt6vectorImSaImEEE_clESD_
FN:645,_ZN2sb11axis_assignIjEEvRNS_6TensorIT_EEmRKNS1_IbEERKS3_
FN:659,_ZZN2sb11axis_assignIjEEvRNS_6TensorIT_EEmRKNS1_IbEERKS3_ENKUlRKSt6vectorImSaImEEE_clESE_
FN:668,_ZN2sb9axis_fillIjEEvRNS_6TensorIT_EEmRKNS1_IbEERKS2_
FN:671,_ZZN2sb9axis_fillIjEEvRNS_6TensorIT_EEmRKNS1_IbEERKS2_ENKUlRKSt6vectorImSaImEEE_clESE_
FN:703,_ZN2sb17multi_axis_selectIjEENS_6TensorIT_EERKS3_RKSt6vectorISt4pairImNS1_IbEEESaIS9_EE
FN:711,_ZZN2sb17multi_axis_selectIjEENS_6TensorIT_EERKS3_RKSt6vectorISt4pairImNS1_IbEEESaIS9_EEENKUlRKS6_ImSaImEEE_clESH_
FN:743,_ZN2sb17multi_axis_assignIjEEvRNS_6TensorIT_EERKSt6vectorISt4pairImNS1_IbEEESaIS8_EERKS3_
FN:758,_ZZN2sb17multi_axis_assignIjEEvRNS_6TensorIT_EERKSt6vectorISt4pairImNS1_IbEEESaIS8_EERKS3_ENKUlRKS5_ImSaImEEE_clESI_
FN:725,_ZN2sb15multi_axis_fillIjEEvRNS_6TensorIT_EERKSt6vectorISt4pairImNS1_IbEEESaIS8_EERKS2_
FN:729,_ZZN2sb15multi_axis_fillIjEEvRNS_6TensorIT_EERKSt6vectorISt4pairImNS1_IbEEESaIS8_EERKS2_ENKUlRKS5_ImSaImEEE_clESI_
FN:830,_ZN2sb12outer_selectIjEENS_6TensorIT_EERKS3_RKSt6vectorISt4pairImSt7variantIJNS1_IbEENS1_IlEEEEESaISC_EE
FN:838,_ZZN2sb12outer_selectIjEENS_6TensorIT_EERKS3_RKSt6vectorISt4pairImSt7variantIJNS1_IbEENS1_IlEEEEESaISC_EEENKUlRKS6_ImSaImEEE_clESK_
FN:878,_ZN2sb12outer_assignIjEEvRNS_6TensorIT_EERKSt6vectorISt4pairImSt7variantIJNS1_IbEENS1_IlEEEEESaISB_EERKS3_
FN:893,_ZZN2sb12outer_assignIjEEvRNS_6TensorIT_EERKSt6vectorISt4pairImSt7variantIJNS1_IbEENS1_IlEEEEESaISB_EERKS3_ENKUlRKS5_ImSaImEEE_clESL_
FN:852,_ZN2sb10outer_fillIjEEvRNS_6TensorIT_EERKSt6vectorISt4pairImSt7variantIJNS1_IbEENS1_IlEEEEESaISB_EERKS2_
FN:864,_ZZN2sb10outer_fillIjEEvRNS_6TensorIT_EERKSt6vectorISt4pairImSt7variantIJNS1_IbEENS1_IlEEEEESaISB_EERKS2_ENKUlRKS5_ImSaImEEE_clESL_
FN:1129,_ZN2sb12index_selectIjlEENS_6TensorIT_EERKS3_mRKNS1_IT0_EE
FN:1141,_ZZN2sb12index_selectIjlEENS_6TensorIT_EERKS3_mRKNS1_IT0_EEENKUlRKSt6vectorImSaImEEE_clESE_
FN:1152,_ZN2sb12index_assignIjlEEvRNS_6TensorIT_EEmRKNS1_IT0_EERKS3_
FN:1163,_ZZN2sb12index_assignIjlEEvRNS_6TensorIT_EEmRKNS1_IT0_EERKS3_ENKUlRKSt6vectorImSaImEEE_clESF_
FN:1172,_ZN2sb10index_fillIjlEEvRNS_6TensorIT_EEmRKNS1_IT0_EERKS2_
FN:1179,_ZZN2sb10index_fillIjlEEvRNS_6TensorIT_EEmRKNS1_IT0_EERKS2_ENKUlRKSt6vectorImSaImEEE_clESF_
FN:232,_ZNK2sb6TensorIjEplIjQ8CanAddToIT_S3_TL0__EEES1_RKS3_
FN:220,_ZN2sb6TensorIjEpLIjQ8CanAddToIT_S3_TL0__EEERS1_RKS3_
FN:1469,_ZN2sb6TensorIjE5applyIZNS1_pLIjQ8CanAddToIT_S4_TL0__EEERS1_RKS4_EUlRjE_Qsr3stdE9invocableIS5_RS4_EEEvOS4_
FN:1470,_ZZN2sb6TensorIjE5applyIZNS1_pLIjQ8CanAddToIT_S4_TL0__EEERS1_RKS4_EUlRjE_Qsr3stdE9invocableIS5_RS4_EEEvOS4_ENKUlRKSt6vectorImSaImEEE_clESH_
FN:221,_ZZN2sb6TensorIjEpLIjQ8CanAddToIT_S3_TL0__EEERS1_RKS3_ENKUlRjE_clES8_
FN:287,_ZN2sbplIjjQ8CanAddToIT0_T_S1_EEENS_6TensorIS1_EERKS2_RKS4_
FN:1469,_ZN2sb6TensorIjE5applyIZNS_plIjjQ8CanAddToIT0_T_S4_EEENS0_IS4_EERKS5_RKS6_EUlRjE_Qsr3stdE9invocableITL0__RS5_EEEvOS5_
FN:1470,_ZZN2sb6TensorIjE5applyIZNS_plIjjQ8CanAddToIT0_T_S4_EEENS0_IS4_EERKS5_RKS6_EUlRjE_Qsr3stdE9invocableITL0__RS5_EEEvOS5_ENKUlRKSt6vectorImSaImEEE_clESK_
FN:289,_ZZN2sbplIjjQ8CanAddToIT0_T_S1_EEENS_6TensorIS1_EERKS2_RKS4_ENKUlRjE_clES9_
FN:254,_ZNK2sb6TensorIjEmiIjQ13CanSubtractToIT_S3_TL0__EEES1_RKS3_
FN:242,_ZN2sb6TensorIjEmIIjQ13CanSubtractToIT_S3_TL0__EEERS1_RKS3_
FN:1469,_ZN2sb6TensorIjE5applyIZNS1_mIIjQ13CanSubtractToIT_S4_TL0__EEERS1_RKS4_EUlRjE_Qsr3stdE9invocableIS5_RS4_EEEvOS4_
FN:1470,_ZZN2sb6TensorIjE5applyIZNS1_mIIjQ13CanSubtractToIT_S4_TL0__EEERS1_RKS4_EUlRjE_Qsr3stdE9invocableIS5_RS4_EEEvOS4_ENKUlRKSt6vectorImSaImEEE_clESH_
FN:243,_ZZN2sb6TensorIjEmIIjQ13CanSubtractToIT_S3_TL0__EEERS1_RKS3_ENKUlRjE_clES8_
FN:298,_ZN2sbmiIjjQ13CanSubtractToIT0_T_S1_EEENS_6TensorIS1_EERKS2_RKS4_
FN:1469,_ZN2sb6TensorIjE5applyIZNS_miIjjQ13CanSubtractToIT0_T_S4_EEENS0_IS4_EERKS5_RKS6_EUlRjE_Qsr3stdE9invocableITL0__RS5_EEEvOS5_
FN:1470,_ZZN2sb6TensorIjE5applyIZNS_miIjjQ13CanSubtractToIT0_T_S4_EEENS0_IS4_EERKS5_RKS6_EUlRjE_Qsr3stdE9invocableITL0__RS5_EEEvOS5_ENKUlRKSt6vectorImSaImEEE_clESK_
FN:300,_ZZN2sbmiIjjQ13CanSubtractToIT0_T_S1_EEENS_6TensorIS1_EERKS2_RKS4_ENKUlRjE_clES9_
FN:210,_ZNK2sb6TensorIjEmlIjQ13CanMultiplyToIT_S3_TL0__EEES1_RKS3_
FN:195,_ZN2sb6TensorIjEmLIjQ13CanMultiplyToIT_S3_TL0__EEERS1_RKS3_
FN:1469,_ZN2sb6TensorIjE5applyIZNS1_mLIjQ13CanMultiplyToIT_S4_TL0__EEERS1_RKS4_EUlRjE_Qsr3stdE9invocableIS5_RS4_EEEvOS4_
FN:1470,_ZZN2sb6TensorIjE5applyIZNS1_mLIjQ13CanMultiplyToIT_S4_TL0__EEERS1_RKS4_EUlRjE_Qsr3stdE9invocableIS5_RS4_EEEvOS4_ENKUlRKSt6vectorImSaImEEE_clESH_
FN:196,_ZZN2sb6TensorIjEmLIjQ13CanMultiplyToIT_S3_TL0__EEERS1_RKS3_ENKUlRjE_clES8_
FN:273,_ZN2sbmlIjjQ13CanMultiplyToIT0_T_S1_EEENS_6TensorIS1_EERKS2_RKS4_
FN:1469,_ZN2sb6TensorIjE5applyIZNS_mlIjjQ13CanMultiplyToIT0_T_S4_EEENS0_IS4_EERKS5_RKS6_EUlRjE_Qsr3stdE9invocableITL0__RS5_EEEvOS5_
FN:1470,_ZZN2sb6TensorIjE5applyIZNS_mlIjjQ13CanMultiplyToIT0_T_S4_EEENS0_IS4_EERKS5_RKS6_EUlRjE_Qsr3stdE9invocableITL0__RS5_EEEvOS5_ENKUlRKSt6vectorImSaImEEE_clESK_
FN:275,_ZZN2sbmlIjjQ13CanMultiplyToIT0_T_S1_EEENS_6TensorIS1_EERKS2_RKS4_ENKUlRjE_clES9_
FN:185,_ZNK2sb6TensorIjEdvIjQ11CanDivideToIT_S3_TL0__EEES1_RKS3_
FN:173,_ZN2sb6TensorIjEdVIjQ11CanDivideToIT_S3_TL0__EEERS1_RKS3_
FN:1469,_ZN2sb6TensorIjE5applyIZNS1_dVIjQ11CanDivideToIT_S4_TL0__EEERS1_RKS4_EUlRjE_Qsr3stdE9invocableIS5_RS4_EEEvOS4_
FN:1470,_ZZN2sb6TensorIjE5applyIZNS1_dVIjQ11CanDivideToIT_S4_TL0__EEERS1_RKS4_EUlRjE_Qsr3stdE9invocableIS5_RS4_EEEvOS4_ENKUlRKSt6vectorImSaImEEE_clESH_
FN:174,_ZZN2sb6TensorIjEdVIjQ11CanDivideToIT_S3_TL0__EEERS1_RKS3_ENKUlRjE_clES8_
FN:309,_ZN2sbdvIjjQ11CanDivideToIT0_T_S1_EEENS_6TensorIS1_EERKS2_RKS4_
FN:1469,_ZN2sb6TensorIjE5applyIZNS_dvIjjQ11CanDivideToIT0_T_S4_EEENS0_IS4_EERKS5_RKS6_EUlRjE_Qsr3stdE9invocableITL0__RS5_EEEvOS5_
FN:1470,_ZZN2sb6TensorIjE5applyIZNS_dvIjjQ11CanDivideToIT0_T_S4_EEENS0_IS4_EERKS5_RKS6_EUlRjE_Qsr3stdE9invocableITL0__RS5_EEEvOS5_ENKUlRKSt6vectorImSaImEEE_clESK_
FN:311,_ZZN2sbdvIjjQ11CanDivideToIT0_T_S1_EEENS_6TensorIS1_EERKS2_RKS4_ENKUlRjE_clES9_
FN:331,_ZN2sb3powIjjQ6CanPowIT_T0_EEENS_6TensorIS1_EERKS4_S2_
FN:1469,_ZN2sb6TensorIjE5applyIZNS_3powIjjQ6CanPowIT_T0_EEENS0_IS4_EERKS6_S5_EUlRjE_Qsr3stdE9invocableITL0__RS4_EEEvOS4_
FN:1470,_ZZN2sb6TensorIjE5applyIZNS_3powIjjQ6CanPowIT_T0_EEENS0_IS4_EERKS6_S5_EUlRjE_Qsr3stdE9invocableITL0__RS4_EEEvOS4_ENKUlRKSt6vectorImSaImEEE_clESI_
FN:333,_ZZN2sb3powIjjQ6CanPowIT_T0_EEENS_6TensorIS1_EERKS4_S2_ENKUlRjE_clES7_
FN:1432,_ZNK2sb6TensorIjE6any_ofIZZN5sb_py30register_typed_tensor_bindingsIjEEvRN8pybind117module_ERKNSt7__cxx1112basic_stringIcSt11char_traitsIcESaIcEEESF_ENKUlRKS1_jE7_clESH_jEUlRKjE_Qsr3stdE9invocableITL0__RKT_EEEbOSN_
FN:1664,_ZN2sb6any_ofIjZZN5sb_py30register_typed_tensor_bindingsIjEEvRN8pybind117module_ERKNSt7__cxx1112basic_stringIcSt11char_traitsIcESaIcEEESD_ENKUlRKNS_6TensorIjEEjE7_clESH_jEUlRKjE_Qsr3stdE9invocableIT0_RKT_EEEbRKNSE_ISN_EEOSM_
FN:1666,_ZZN2sb6any_ofIjZZN5sb_py30register_typed_tensor_bindingsIjEEvRN8pybind117module_ERKNSt7__cxx1112basic_stringIcSt11char_traitsIcESaIcEEESD_ENKUlRKNS_6TensorIjEEjE7_clESH_jEUlRKjE_Qsr3stdE9invocableIT0_RKT_EEEbRKNSE_ISN_EEOSM_ENKUlRKSt6vectorImSaImEEE_clESY_
FN:350,_ZN2sb4ipowIjjQ6CanPowIT_T0_EEEvRNS_6TensorIS1_EES2_
FN:1469,_ZN2sb6TensorIjE5applyIZNS_4ipowIjjQ6CanPowIT_T0_EEEvRNS0_IS4_EES5_EUlRjE_Qsr3stdE9invocableITL0__RS4_EEEvOS4_
FN:1470,_ZZN2sb6TensorIjE5applyIZNS_4ipowIjjQ6CanPowIT_T0_EEEvRNS0_IS4_EES5_EUlRjE_Qsr3stdE9invocableITL0__RS4_EEEvOS4_ENKUlRKSt6vectorImSaImEEE_clESH_
FN:351,_ZZN2sb4ipowIjjQ6CanPowIT_T0_EEEvRNS_6TensorIS1_EES2_ENKUlRjE_clES6_
FN:84,_ZNK2sb6TensorImEixISt6vectorISt7variantIJNS_10SliceIndexENS_10SliceRangeEEESaIS7_EEEES1_T_
FN:1476,_ZNK2sb6TensorImE7extractISt6vectorISt7variantIJNS_10SliceIndexENS_10SliceRangeEEESaIS7_EEEES1_T_
FN:1499,_ZZNK2sb6TensorImE7extractISt6vectorISt7variantIJNS_10SliceIndexENS_10SliceRangeEEESaIS7_EEEES1_T_ENKUlOSA_E_clIRS5_EEDaSB_
FN:1499,_ZZNK2sb6TensorImE7extractISt6vectorISt7variantIJNS_10SliceIndexENS_10SliceRangeEEESaIS7_EEEES1_T_ENKUlOSA_E_clIRS6_EEDaSB_
FN:128,_ZN2sb6TensorImE11assign_fromImQsr3stdE18is_constructible_vIT_TL0__EEEvRKNS0_IS3_EE
FN:362,_ZNK2sb6TensorImE12broadcast_toERKSt6vectorImSaImEE
FN:152,_ZZN2sb6TensorImE11assign_fromImQsr3stdE18is_constructible_vIT_TL0__EEEvRKNS0_IS3_EEENKUlRKSt6vectorImSaImEEE_clESC_
FN:162,_ZZN2sb6TensorImE11assign_fromImQsr3stdE18is_constructible_vIT_TL0__EEEvRKNS0_IS3_EEENKUlRKSt6vectorImSaImEEE0_clESC_
FN:486,_ZN2sb14elementwise_eqImQsr3stdE19equality_comparableIT_EEENS_6TensorIbEERKNS2_IS1_EES6_
FN:418,_ZN2sb6detail15broadcast_binopImZNS_14elementwise_eqImQsr3stdE19equality_comparableIT_EEENS_6TensorIbEERKNS4_IS3_EES8_EUlRKmSA_E_bEENS4_IT1_EES8_S8_T0_
FN:423,_ZZN2sb6detail15broadcast_binopImZNS_14elementwise_eqImQsr3stdE19equality_comparableIT_EEENS_6TensorIbEERKNS4_IS3_EES8_EUlRKmSA_E_bEENS4_IT1_EES8_S8_T0_ENKUlRKSt6vectorImSaImEEE_clESJ_
FN:486,_ZZN2sb14elementwise_eqImQsr3stdE19equality_comparableIT_EEENS_6TensorIbEERKNS2_IS1_EES6_ENKUlRKmS8_E_clES8_S8_
FN:491,_ZN2sb14elementwise_neImQsr3stdE19equality_comparableIT_EEENS_6TensorIbEERKNS2_IS1_EES6_
FN:418,_ZN2sb6detail15broadcast_binopImZNS_14elementwise_neImQsr3stdE19equality_comparableIT_EEENS_6TensorIbEERKNS4_IS3_EES8_EUlRKmSA_E_bEENS4_IT1_EES8_S8_T0_
FN:423,_ZZN2sb6detail15broadcast_binopImZNS_14elementwise_neImQsr3stdE19equality_comparableIT_EEENS_6TensorIbEERKNS4_IS3_EES8_EUlRKmSA_E_bEENS4_IT1_EES8_S8_T0_ENKUlRKSt6vectorImSaImEEE_clESJ_
FN:491,_ZZN2sb14elementwise_neImQsr3stdE19equality_comparableIT_EEENS_6TensorIbEERKNS2_IS1_EES6_ENKUlRKmS8_E_clES8_S8_
FN:53,_ZNK2sb6TensorImEeqImQsr3stdE24equality_comparable_withITL0__T_EEEbRKNS0_IS4_EE
FN:60,_ZZNK2sb6TensorImEeqImQsr3stdE24equality_comparable_withITL0__T_EEEbRKNS0_IS4_EEENKUlRKSt6vectorImSaImEEE_clESC_
FN:108,_ZN2sb6TensorImEclEm
FN:1198,_ZNK2sb6TensorImE4copyEv
FN:1201,_ZZNK2sb6TensorImE4copyEvENKUlRKSt6vectorImSaImEEE_clES6_
FN:1210,_ZNK2sb6TensorImE7flattenEv
FN:1229,_ZNK2sb6TensorImE7reshapeERKSt6vectorIlSaIlEE
FN:1369,_ZNK2sb6TensorImE9transposeERKSt6vectorImSaImEE
FN:1414,_ZNK2sb6TensorImE8swapaxesEmm
FN:1294,_ZNK2sb6TensorImE7squeezeEv
FN:1315,_ZNK2sb6TensorImE7squeezeEm
FN:1343,_ZNK2sb6TensorImE11expand_dimsEl
FN:933,_ZN2sb11concatenateImEENS_6TensorIT_EERKSt6vectorIS3_SaIS3_EEm
FN:967,_ZZN2sb11concatenateImEENS_6TensorIT_EERKSt6vectorIS3_SaIS3_EEmENKUlRKS4_ImSaImEEE_clESC_
FN:980,_ZN2sb5stackImEENS_6TensorIT_EERKSt6vectorIS3_SaIS3_EEl
FN:1048,_ZN2sb5splitImEESt6vectorINS_6TensorIT_EESaIS4_EERKS4_mm
FN:1011,_ZN2sb5splitImEESt6vectorINS_6TensorIT_EESaIS4_EERKS4_RKS1_ImSaImEEm
FN:1075,_ZN2sb11array_splitImEESt6vectorINS_6TensorIT_EESaIS4_EERKS4_mm
FN:262,_ZNK2sb6TensorImEngEvQ9CanNegateIT_E
FN:1469,_ZN2sb6TensorImE5applyIZNKS1_ngEvQ9CanNegateIT_EEUlRmE_Qsr3stdE9invocableITL0__RS3_EEEvOS3_
FN:1470,_ZZN2sb6TensorImE5applyIZNKS1_ngEvQ9CanNegateIT_EEUlRmE_Qsr3stdE9invocableITL0__RS3_EEEvOS3_ENKUlRKSt6vectorImSaImEEE_clESD_
FN:264,_ZZNK2sb6TensorImEngEvQ9CanNegateIT_EENKUlRmE_clES3_
FN:496,_ZN2sb14elementwise_ltImQ8CanOrderIT_EEENS_6TensorIbEERKNS2_IS1_EES6_
FN:418,_ZN2sb6detail15broadcast_binopImZNS_14elementwise_ltImQ8CanOrderIT_EEENS_6TensorIbEERKNS4_IS3_EES8_EUlRKmSA_E_bEENS4_IT1_EES8_S8_T0_
FN:423,_ZZN2sb6detail15broadcast_binopImZNS_14elementwise_ltImQ8CanOrderIT_EEENS_6TensorIbEERKNS4_IS3_EES8_EUlRKmSA_E_bEENS4_IT1_EES8_S8_T0_ENKUlRKSt6vectorImSaImEEE_clESJ_
FN:496,_ZZN2sb14elementwise_ltImQ8CanOrderIT_EEENS_6TensorIbEERKNS2_IS1_EES6_ENKUlRKmS8_E_clES8_S8_
FN:501,_ZN2sb14elementwise_leImQ8CanOrderIT_EEENS_6TensorIbEERKNS2_IS1_EES6_
FN:418,_ZN2sb6detail15broadcast_binopImZNS_14elementwise_leImQ8CanOrderIT_EEENS_6TensorIbEERKNS4_IS3_EES8_EUlRKmSA_E_bEENS4_IT1_EES8_S8_T0_
FN:423,_ZZN2sb6detail15broadcast_binopImZNS_14elementwise_leImQ8CanOrderIT_EEENS_6TensorIbEERKNS4_IS3_EES8_EUlRKmSA_E_bEENS4_IT1_EES8_S8_T0_ENKUlRKSt6vectorImSaImEEE_clESJ_
FN:501,_ZZN2sb14elementwise_leImQ8CanOrderIT_EEENS_6TensorIbEERKNS2_IS1_EES6_ENKUlRKmS8_E_clES8_S8_
FN:506,_ZN2sb14elementwise_gtImQ8CanOrderIT_EEENS_6TensorIbEERKNS2_IS1_EES6_
FN:418,_ZN2sb6detail15broadcast_binopImZNS_14elementwise_gtImQ8CanOrderIT_EEENS_6TensorIbEERKNS4_IS3_EES8_EUlRKmSA_E_bEENS4_IT1_EES8_S8_T0_
FN:423,_ZZN2sb6detail15broadcast_binopImZNS_14elementwise_gtImQ8CanOrderIT_EEENS_6TensorIbEERKNS4_IS3_EES8_EUlRKmSA_E_bEENS4_IT1_EES8_S8_T0_ENKUlRKSt6vectorImSaImEEE_clESJ_
FN:506,_ZZN2sb14elementwise_gtImQ8CanOrderIT_EEENS_6TensorIbEERKNS2_IS1_EES6_ENKUlRKmS8_E_clES8_S8_
FN:511,_ZN2sb14elementwise_geImQ8CanOrderIT_EEENS_6TensorIbEERKNS2_IS1_EES6_
FN:418,_ZN2sb6detail15broadcast_binopImZNS_14elementwise_geImQ8CanOrderIT_EEENS_6TensorIbEERKNS4_IS3_EES8_EUlRKmSA_E_bEENS4_IT1_EES8_S8_T0_
FN:423,_ZZN2sb6detail15broadcast_binopImZNS_14elementwise_geImQ8CanOrderIT_EEENS_6TensorIbEERKNS4_IS3_EES8_EUlRKmSA_E_bEENS4_IT1_EES8_S8_T0_ENKUlRKSt6vectorImSaImEEE_clESJ_
FN:511,_ZZN2sb14elementwise_geImQ8CanOrderIT_EEENS_6TensorIbEERKNS2_IS1_EES6_ENKUlRKmS8_E_clES8_S8_
FN:446,_ZNK2sb6TensorImEplERKS1_
FN:418,_ZN2sb6detail15broadcast_binopImZNKS_6TensorImEplERKS3_EUlRKmS7_E_mEENS2_IT1_EERKNS2_IT_EESE_T0_
FN:423,_ZZN2sb6detail15broadcast_binopImZNKS_6TensorImEplERKS3_EUlRKmS7_E_mEENS2_IT1_EERKNS2_IT_EESE_T0_ENKUlRKSt6vectorImSaImEEE_clESK_
FN:446,_ZZNK2sb6TensorImEplERKS1_ENKUlRKmS5_E_clES5_S5_
FN:467,_ZN2sb6TensorImEpLERKS1_
FN:431,_ZN2sb6detail23broadcast_binop_inplaceImZNS_6TensorImEpLERKS3_EUlRKmS7_E_EERNS2_IT_EESB_RKSA_T0_
FN:437,_ZZN2sb6detail23broadcast_binop_inplaceImZNS_6TensorImEpLERKS3_EUlRKmS7_E_EERNS2_IT_EESB_RKSA_T0_ENKUlRKSt6vectorImSaImEEE_clESJ_
FN:467,_ZZN2sb6TensorImEpLERKS1_ENKUlRKmS5_E_clES5_S5_
FN:450,_ZNK2sb6TensorImEmiERKS1_
FN:418,_ZN2sb6detail15broadcast_binopImZNKS_6TensorImEmiERKS3_EUlRKmS7_E_mEENS2_IT1_EERKNS2_IT_EESE_T0_
FN:423,_ZZN2sb6detail15broadcast_binopImZNKS_6TensorImEmiERKS3_EUlRKmS7_E_mEENS2_IT1_EERKNS2_IT_EESE_T0_ENKUlRKSt6vectorImSaImEEE_clESK_
FN:450,_ZZNK2sb6TensorImEmiERKS1_ENKUlRKmS5_E_clES5_S5_
FN:471,_ZN2sb6TensorImEmIERKS1_
FN:431,_ZN2sb6detail23broadcast_binop_inplaceImZNS_6TensorImEmIERKS3_EUlRKmS7_E_EERNS2_IT_EESB_RKSA_T0_
FN:437,_ZZN2sb6detail23broadcast_binop_inplaceImZNS_6TensorImEmIERKS3_EUlRKmS7_E_EERNS2_IT_EESB_RKSA_T0_ENKUlRKSt6vectorImSaImEEE_clESJ_
FN:471,_ZZN2sb6TensorImEmIERKS1_ENKUlRKmS5_E_clES5_S5_
FN:454,_ZNK2sb6TensorImEmlERKS1_
FN:418,_ZN2sb6detail15broadcast_binopImZNKS_6TensorImEmlERKS3_EUlRKmS7_E_mEENS2_IT1_EERKNS2_IT_EESE_T0_
FN:423,_ZZN2sb6detail15broadcast_binopImZNKS_6TensorImEmlERKS3_EUlRKmS7_E_mEENS2_IT1_EERKNS2_IT_EESE_T0_ENKUlRKSt6vectorImSaImEEE_clESK_
FN:458,_ZZNK2sb6TensorImEmlERKS1_ENKUlRKmS5_E_clES5_S5_
FN:475,_ZN2sb6TensorImEmLERKS1_
FN:431,_ZN2sb6detail23broadcast_binop_inplaceImZNS_6TensorImEmLERKS3_EUlRKmS7_E_EERNS2_IT_EESB_RKSA_T0_
FN:437,_ZZN2sb6detail23broadcast_binop_inplaceImZNS_6TensorImEmLERKS3_EUlRKmS7_E_EERNS2_IT_EESB_RKSA_T0_ENKUlRKSt6vectorImSaImEEE_clESJ_
FN:475,_ZZN2sb6TensorImEmLERKS1_ENKUlRKmS5_E_clES5_S5_
FN:463,_ZNK2sb6TensorImEdvERKS1_
FN:418,_ZN2sb6detail15broadcast_binopImZNKS_6TensorImEdvERKS3_EUlRKmS7_E_mEENS2_IT1_EERKNS2_IT_EESE_T0_
FN:423,_ZZN2sb6detail15broadcast_binopImZNKS_6TensorImEdvERKS3_EUlRKmS7_E_mEENS2_IT1_EERKNS2_IT_EESE_T0_ENKUlRKSt6vectorImSaImEEE_clESK_
FN:463,_ZZNK2sb6TensorImEdvERKS1_ENKUlRKmS5_E_clES5_S5_
FN:479,_ZN2sb6TensorImEdVERKS1_
FN:431,_ZN2sb6detail23broadcast_binop_inplaceImZNS_6TensorImEdVERKS3_EUlRKmS7_E_EERNS2_IT_EESB_RKSA_T0_
FN:437,_ZZN2sb6detail23broadcast_binop_inplaceImZNS_6TensorImEdVERKS3_EUlRKmS7_E_EERNS2_IT_EESB_RKSA_T0_ENKUlRKSt6vectorImSaImEEE_clESJ_
FN:479,_ZZN2sb6TensorImEdVERKS1_ENKUlRKmS5_E_clES5_S5_
FN:519,_ZN2sb13masked_selectImEENS_6TensorIT_EERKS3_RKNS1_IbEE
FN:528,_ZZN2sb13masked_selectImEENS_6TensorIT_EERKS3_RKNS1_IbEEENKUlRKSt6vectorImSaImEEE_clESD_
FN:546,_ZN2sb13masked_assignImEEvRNS_6TensorIT_EERKNS1_IbEERKS3_
FN:554,_ZZN2sb13masked_assignImEEvRNS_6TensorIT_EERKNS1_IbEERKS3_ENKUlRKSt6vectorImSaImEEE_clESE_
FN:102,_ZNK2sb6TensorImEclEm
FN:1188,_ZNK2sb6TensorImE4sizeEv
FN:576,_ZN2sb11masked_fillImEEvRNS_6TensorIT_EERKNS1_IbEERKS2_
FN:583,_ZZN2sb11masked_fillImEEvRNS_6TensorIT_EERKNS1_IbEERKS2_ENKUlRKSt6vectorImSaImEEE_clESE_
FN:620,_ZN2sb11axis_selectImEENS_6TensorIT_EERKS3_mRKNS1_IbEE
FN:634,_ZZN2sb11axis_selectImEENS_6TensorIT_EERKS3_mRKNS1_IbEEENKUlRKSt6vectorImSaImEEE_clESD_
FN:645,_ZN2sb11axis_assignImEEvRNS_6TensorIT_EEmRKNS1_IbEERKS3_
FN:659,_ZZN2sb11axis_assignImEEvRNS_6TensorIT_EEmRKNS1_IbEERKS3_ENKUlRKSt6vectorImSaImEEE_clESE_
FN:668,_ZN2sb9axis_fillImEEvRNS_6TensorIT_EEmRKNS1_IbEERKS2_
FN:671,_ZZN2sb9axis_fillImEEvRNS_6TensorIT_EEmRKNS1_IbEERKS2_ENKUlRKSt6vectorImSaImEEE_clESE_
FN:703,_ZN2sb17multi_axis_selectImEENS_6TensorIT_EERKS3_RKSt6vectorISt4pairImNS1_IbEEESaIS9_EE
FN:711,_ZZN2sb17multi_axis_selectImEENS_6TensorIT_EERKS3_RKSt6vectorISt4pairImNS1_IbEEESaIS9_EEENKUlRKS6_ImSaImEEE_clESH_
FN:743,_ZN2sb17multi_axis_assignImEEvRNS_6TensorIT_EERKSt6vectorISt4pairImNS1_IbEEESaIS8_EERKS3_
FN:758,_ZZN2sb17multi_axis_assignImEEvRNS_6TensorIT_EERKSt6vectorISt4pairImNS1_IbEEESaIS8_EERKS3_ENKUlRKS5_ImSaImEEE_clESI_
FN:725,_ZN2sb15multi_axis_fillImEEvRNS_6TensorIT_EERKSt6vectorISt4pairImNS1_IbEEESaIS8_EERKS2_
FN:729,_ZZN2sb15multi_axis_fillImEEvRNS_6TensorIT_EERKSt6vectorISt4pairImNS1_IbEEESaIS8_EERKS2_ENKUlRKS5_ImSaImEEE_clESI_
FN:830,_ZN2sb12outer_selectImEENS_6TensorIT_EERKS3_RKSt6vectorISt4pairImSt7variantIJNS1_IbEENS1_IlEEEEESaISC_EE
FN:838,_ZZN2sb12outer_selectImEENS_6TensorIT_EERKS3_RKSt6vectorISt4pairImSt7variantIJNS1_IbEENS1_IlEEEEESaISC_EEENKUlRKS6_ImSaImEEE_clESK_
FN:878,_ZN2sb12outer_assignImEEvRNS_6TensorIT_EERKSt6vectorISt4pairImSt7variantIJNS1_IbEENS1_IlEEEEESaISB_EERKS3_
FN:893,_ZZN2sb12outer_assignImEEvRNS_6TensorIT_EERKSt6vectorISt4pairImSt7variantIJNS1_IbEENS1_IlEEEEESaISB_EERKS3_ENKUlRKS5_ImSaImEEE_clESL_
FN:852,_ZN2sb10outer_fillImEEvRNS_6TensorIT_EERKSt6vectorISt4pairImSt7variantIJNS1_IbEENS1_IlEEEEESaISB_EERKS2_
FN:864,_ZZN2sb10outer_fillImEEvRNS_6TensorIT_EERKSt6vectorISt4pairImSt7variantIJNS1_IbEENS1_IlEEEEESaISB_EERKS2_ENKUlRKS5_ImSaImEEE_clESL_
FN:1129,_ZN2sb12index_selectImlEENS_6TensorIT_EERKS3_mRKNS1_IT0_EE
FN:1141,_ZZN2sb12index_selectImlEENS_6TensorIT_EERKS3_mRKNS1_IT0_EEENKUlRKSt6vectorImSaImEEE_clESE_
FN:1152,_ZN2sb12index_assignImlEEvRNS_6TensorIT_EEmRKNS1_IT0_EERKS3_
FN:1163,_ZZN2sb12index_assignImlEEvRNS_6TensorIT_EEmRKNS1_IT0_EERKS3_ENKUlRKSt6vectorImSaImEEE_clESF_
FN:1172,_ZN2sb10index_fillImlEEvRNS_6TensorIT_EEmRKNS1_IT0_EERKS2_
FN:1179,_ZZN2sb10index_fillImlEEvRNS_6TensorIT_EEmRKNS1_IT0_EERKS2_ENKUlRKSt6vectorImSaImEEE_clESF_
FN:232,_ZNK2sb6TensorImEplImQ8CanAddToIT_S3_TL0__EEES1_RKS3_
FN:220,_ZN2sb6TensorImEpLImQ8CanAddToIT_S3_TL0__EEERS1_RKS3_
FN:1469,_ZN2sb6TensorImE5applyIZNS1_pLImQ8CanAddToIT_S4_TL0__EEERS1_RKS4_EUlRmE_Qsr3stdE9invocableIS5_RS4_EEEvOS4_
FN:1470,_ZZN2sb6TensorImE5applyIZNS1_pLImQ8CanAddToIT_S4_TL0__EEERS1_RKS4_EUlRmE_Qsr3stdE9invocableIS5_RS4_EEEvOS4_ENKUlRKSt6vectorImSaImEEE_clESH_
FN:221,_ZZN2sb6TensorImEpLImQ8CanAddToIT_S3_TL0__EEERS1_RKS3_ENKUlRmE_clES8_
FN:287,_ZN2sbplImmQ8CanAddToIT0_T_S1_EEENS_6TensorIS1_EERKS2_RKS4_
FN:1469,_ZN2sb6TensorImE5applyIZNS_plImmQ8CanAddToIT0_T_S4_EEENS0_IS4_EERKS5_RKS6_EUlRmE_Qsr3stdE9invocableITL0__RS5_EEEvOS5_
FN:1470,_ZZN2sb6TensorImE5applyIZNS_plImmQ8CanAddToIT0_T_S4_EEENS0_IS4_EERKS5_RKS6_EUlRmE_Qsr3stdE9invocableITL0__RS5_EEEvOS5_ENKUlRKSt6vectorImSaImEEE_clESK_
FN:289,_ZZN2sbplImmQ8CanAddToIT0_T_S1_EEENS_6TensorIS1_EERKS2_RKS4_ENKUlRmE_clES9_
FN:254,_ZNK2sb6TensorImEmiImQ13CanSubtractToIT_S3_TL0__EEES1_RKS3_
FN:242,_ZN2sb6TensorImEmIImQ13CanSubtractToIT_S3_TL0__EEERS1_RKS3_
FN:1469,_ZN2sb6TensorImE5applyIZNS1_mIImQ13CanSubtractToIT_S4_TL0__EEERS1_RKS4_EUlRmE_Qsr3stdE9invocableIS5_RS4_EEEvOS4_
FN:1470,_ZZN2sb6TensorImE5applyIZNS1_mIImQ13CanSubtractToIT_S4_TL0__EEERS1_RKS4_EUlRmE_Qsr3stdE9invocableIS5_RS4_EEEvOS4_ENKUlRKSt6vectorImSaImEEE_clESH_
FN:243,_ZZN2sb6TensorImEmIImQ13CanSubtractToIT_S3_TL0__EEERS1_RKS3_ENKUlRmE_clES8_
FN:298,_ZN2sbmiImmQ13CanSubtractToIT0_T_S1_EEENS_6TensorIS1_EERKS2_RKS4_
FN:1469,_ZN2sb6TensorImE5applyIZNS_miImmQ13CanSubtractToIT0_T_S4_EEENS0_IS4_EERKS5_RKS6_EUlRmE_Qsr3stdE9invocableITL0__RS5_EEEvOS5_
FN:1470,_ZZN2sb6TensorImE5applyIZNS_miImmQ13CanSubtractToIT0_T_S4_EEENS0_IS4_EERKS5_RKS6_EUlRmE_Qsr3stdE9invocableITL0__RS5_EEEvOS5_ENKUlRKSt6vectorImSaImEEE_clESK_
FN:300,_ZZN2sbmiImmQ13CanSubtractToIT0_T_S1_EEENS_6TensorIS1_EERKS2_RKS4_ENKUlRmE_clES9_
FN:210,_ZNK2sb6TensorImEmlImQ13CanMultiplyToIT_S3_TL0__EEES1_RKS3_
FN:195,_ZN2sb6TensorImEmLImQ13CanMultiplyToIT_S3_TL0__EEERS1_RKS3_
FN:1469,_ZN2sb6TensorImE5applyIZNS1_mLImQ13CanMultiplyToIT_S4_TL0__EEERS1_RKS4_EUlRmE_Qsr3stdE9invocableIS5_RS4_EEEvOS4_
FN:1470,_ZZN2sb6TensorImE5applyIZNS1_mLImQ13CanMultiplyToIT_S4_TL0__EEERS1_RKS4_EUlRmE_Qsr3stdE9invocableIS5_RS4_EEEvOS4_ENKUlRKSt6vectorImSaImEEE_clESH_
FN:196,_ZZN2sb6TensorImEmLImQ13CanMultiplyToIT_S3_TL0__EEERS1_RKS3_ENKUlRmE_clES8_
FN:273,_ZN2sbmlImmQ13CanMultiplyToIT0_T_S1_EEENS_6TensorIS1_EERKS2_RKS4_
FN:1469,_ZN2sb6TensorImE5applyIZNS_mlImmQ13CanMultiplyToIT0_T_S4_EEENS0_IS4_EERKS5_RKS6_EUlRmE_Qsr3stdE9invocableITL0__RS5_EEEvOS5_
FN:1470,_ZZN2sb6TensorImE5applyIZNS_mlImmQ13CanMultiplyToIT0_T_S4_EEENS0_IS4_EERKS5_RKS6_EUlRmE_Qsr3stdE9invocableITL0__RS5_EEEvOS5_ENKUlRKSt6vectorImSaImEEE_clESK_
FN:275,_ZZN2sbmlImmQ13CanMultiplyToIT0_T_S1_EEENS_6TensorIS1_EERKS2_RKS4_ENKUlRmE_clES9_
FN:185,_ZNK2sb6TensorImEdvImQ11CanDivideToIT_S3_TL0__EEES1_RKS3_
FN:173,_ZN2sb6TensorImEdVImQ11CanDivideToIT_S3_TL0__EEERS1_RKS3_
FN:1469,_ZN2sb6TensorImE5applyIZNS1_dVImQ11CanDivideToIT_S4_TL0__EEERS1_RKS4_EUlRmE_Qsr3stdE9invocableIS5_RS4_EEEvOS4_
FN:1470,_ZZN2sb6TensorImE5applyIZNS1_dVImQ11CanDivideToIT_S4_TL0__EEERS1_RKS4_EUlRmE_Qsr3stdE9invocableIS5_RS4_EEEvOS4_ENKUlRKSt6vectorImSaImEEE_clESH_
FN:174,_ZZN2sb6TensorImEdVImQ11CanDivideToIT_S3_TL0__EEERS1_RKS3_ENKUlRmE_clES8_
FN:309,_ZN2sbdvImmQ11CanDivideToIT0_T_S1_EEENS_6TensorIS1_EERKS2_RKS4_
FN:1469,_ZN2sb6TensorImE5applyIZNS_dvImmQ11CanDivideToIT0_T_S4_EEENS0_IS4_EERKS5_RKS6_EUlRmE_Qsr3stdE9invocableITL0__RS5_EEEvOS5_
FN:1470,_ZZN2sb6TensorImE5applyIZNS_dvImmQ11CanDivideToIT0_T_S4_EEENS0_IS4_EERKS5_RKS6_EUlRmE_Qsr3stdE9invocableITL0__RS5_EEEvOS5_ENKUlRKSt6vectorImSaImEEE_clESK_
FN:311,_ZZN2sbdvImmQ11CanDivideToIT0_T_S1_EEENS_6TensorIS1_EERKS2_RKS4_ENKUlRmE_clES9_
FN:331,_ZN2sb3powImmQ6CanPowIT_T0_EEENS_6TensorIS1_EERKS4_S2_
FN:1469,_ZN2sb6TensorImE5applyIZNS_3powImmQ6CanPowIT_T0_EEENS0_IS4_EERKS6_S5_EUlRmE_Qsr3stdE9invocableITL0__RS4_EEEvOS4_
FN:1470,_ZZN2sb6TensorImE5applyIZNS_3powImmQ6CanPowIT_T0_EEENS0_IS4_EERKS6_S5_EUlRmE_Qsr3stdE9invocableITL0__RS4_EEEvOS4_ENKUlRKSt6vectorImSaImEEE_clESI_
FN:333,_ZZN2sb3powImmQ6CanPowIT_T0_EEENS_6TensorIS1_EERKS4_S2_ENKUlRmE_clES7_
FN:1432,_ZNK2sb6TensorImE6any_ofIZZN5sb_py30register_typed_tensor_bindingsImEEvRN8pybind117module_ERKNSt7__cxx1112basic_stringIcSt11char_traitsIcESaIcEEESF_ENKUlRKS1_mE8_clESH_mEUlRKmE_Qsr3stdE9invocableITL0__RKT_EEEbOSN_
FN:1664,_ZN2sb6any_ofImZZN5sb_py30register_typed_tensor_bindingsImEEvRN8pybind117module_ERKNSt7__cxx1112basic_stringIcSt11char_traitsIcESaIcEEESD_ENKUlRKNS_6TensorImEEmE8_clESH_mEUlRKmE_Qsr3stdE9invocableIT0_RKT_EEEbRKNSE_ISN_EEOSM_
FN:1666,_ZZN2sb6any_ofImZZN5sb_py30register_typed_tensor_bindingsImEEvRN8pybind117module_ERKNSt7__cxx1112basic_stringIcSt11char_traitsIcESaIcEEESD_ENKUlRKNS_6TensorImEEmE8_clESH_mEUlRKmE_Qsr3stdE9invocableIT0_RKT_EEEbRKNSE_ISN_EEOSM_ENKUlRKSt6vectorImSaImEEE_clESY_
FN:350,_ZN2sb4ipowImmQ6CanPowIT_T0_EEEvRNS_6TensorIS1_EES2_
FN:1469,_ZN2sb6TensorImE5applyIZNS_4ipowImmQ6CanPowIT_T0_EEEvRNS0_IS4_EES5_EUlRmE_Qsr3stdE9invocableITL0__RS4_EEEvOS4_
FN:1470,_ZZN2sb6TensorImE5applyIZNS_4ipowImmQ6CanPowIT_T0_EEEvRNS0_IS4_EES5_EUlRmE_Qsr3stdE9invocableITL0__RS4_EEEvOS4_ENKUlRKSt6vectorImSaImEEE_clESH_
FN:351,_ZZN2sb4ipowImmQ6CanPowIT_T0_EEEvRNS_6TensorIS1_EES2_ENKUlRmE_clES6_
FN:84,_ZNK2sb6TensorINS_3PcfIffEEEixISt6vectorISt7variantIJNS_10SliceIndexENS_10SliceRangeEEESaIS9_EEEES3_T_
FN:1476,_ZNK2sb6TensorINS_3PcfIffEEE7extractISt6vectorISt7variantIJNS_10SliceIndexENS_10SliceRangeEEESaIS9_EEEES3_T_
FN:1499,_ZZNK2sb6TensorINS_3PcfIffEEE7extractISt6vectorISt7variantIJNS_10SliceIndexENS_10SliceRangeEEESaIS9_EEEES3_T_ENKUlOSC_E_clIRS7_EEDaSD_
FN:1499,_ZZNK2sb6TensorINS_3PcfIffEEE7extractISt6vectorISt7variantIJNS_10SliceIndexENS_10SliceRangeEEESaIS9_EEEES3_T_ENKUlOSC_E_clIRS8_EEDaSD_
FN:128,_ZN2sb6TensorINS_3PcfIffEEE11assign_fromIS2_Qsr3stdE18is_constructible_vIT_TL0__EEEvRKNS0_IS5_EE
FN:362,_ZNK2sb6TensorINS_3PcfIffEEE12broadcast_toERKSt6vectorImSaImEE
FN:152,_ZZN2sb6TensorINS_3PcfIffEEE11assign_fromIS2_Qsr3stdE18is_constructible_vIT_TL0__EEEvRKNS0_IS5_EEENKUlRKSt6vectorImSaImEEE_clESE_
FN:162,_ZZN2sb6TensorINS_3PcfIffEEE11assign_fromIS2_Qsr3stdE18is_constructible_vIT_TL0__EEEvRKNS0_IS5_EEENKUlRKSt6vectorImSaImEEE0_clESE_
FN:486,_ZN2sb14elementwise_eqINS_3PcfIffEEQsr3stdE19equality_comparableIT_EEENS_6TensorIbEERKNS4_IS3_EES8_
FN:418,_ZN2sb6detail15broadcast_binopINS_3PcfIffEEZNS_14elementwise_eqIS3_Qsr3stdE19equality_comparableIT_EEENS_6TensorIbEERKNS6_IS5_EESA_EUlRKS3_SC_E_bEENS6_IT1_EESA_SA_T0_
FN:423,_ZZN2sb6detail15broadcast_binopINS_3PcfIffEEZNS_14elementwise_eqIS3_Qsr3stdE19equality_comparableIT_EEENS_6TensorIbEERKNS6_IS5_EESA_EUlRKS3_SC_E_bEENS6_IT1_EESA_SA_T0_ENKUlRKSt6vectorImSaImEEE_clESL_
FN:486,_ZZN2sb14elementwise_eqINS_3PcfIffEEQsr3stdE19equality_comparableIT_EEENS_6TensorIbEERKNS4_IS3_EES8_ENKUlRKS2_SA_E_clESA_SA_
FN:491,_ZN2sb14elementwise_neINS_3PcfIffEEQsr3stdE19equality_comparableIT_EEENS_6TensorIbEERKNS4_IS3_EES8_
FN:418,_ZN2sb6detail15broadcast_binopINS_3PcfIffEEZNS_14elementwise_neIS3_Qsr3stdE19equality_comparableIT_EEENS_6TensorIbEERKNS6_IS5_EESA_EUlRKS3_SC_E_bEENS6_IT1_EESA_SA_T0_
FN:423,_ZZN2sb6detail15broadcast_binopINS_3PcfIffEEZNS_14elementwise_neIS3_Qsr3stdE19equality_comparableIT_EEENS_6TensorIbEERKNS6_IS5_EESA_EUlRKS3_SC_E_bEENS6_IT1_EESA_SA_T0_ENKUlRKSt6vectorImSaImEEE_clESL_
FN:491,_ZZN2sb14elementwise_neINS_3PcfIffEEQsr3stdE19equality_comparableIT_EEENS_6TensorIbEERKNS4_IS3_EES8_ENKUlRKS2_SA_E_clESA_SA_
FN:53,_ZNK2sb6TensorINS_3PcfIffEEEeqIS2_Qsr3stdE24equality_comparable_withITL0__T_EEEbRKNS0_IS6_EE
FN:60,_ZZNK2sb6TensorINS_3PcfIffEEEeqIS2_Qsr3stdE24equality_comparable_withITL0__T_EEEbRKNS0_IS6_EEENKUlRKSt6vectorImSaImEEE_clESE_
FN:1198,_ZNK2sb6TensorINS_3PcfIffEEE4copyEv
FN:1201,_ZZNK2sb6TensorINS_3PcfIffEEE4copyEvENKUlRKSt6vectorImSaImEEE_clES8_
FN:1210,_ZNK2sb6TensorINS_3PcfIffEEE7flattenEv
FN:1229,_ZNK2sb6TensorINS_3PcfIffEEE7reshapeERKSt6vectorIlSaIlEE
FN:1369,_ZNK2sb6TensorINS_3PcfIffEEE9transposeERKSt6vectorImSaImEE
FN:1414,_ZNK2sb6TensorINS_3PcfIffEEE8swapaxesEmm
FN:1294,_ZNK2sb6TensorINS_3PcfIffEEE7squeezeEv
FN:1315,_ZNK2sb6TensorINS_3PcfIffEEE7squeezeEm
FN:1343,_ZNK2sb6TensorINS_3PcfIffEEE11expand_dimsEl
FN:933,_ZN2sb11concatenateINS_3PcfIffEEEENS_6TensorIT_EERKSt6vectorIS5_SaIS5_EEm
FN:967,_ZZN2sb11concatenateINS_3PcfIffEEEENS_6TensorIT_EERKSt6vectorIS5_SaIS5_EEmENKUlRKS6_ImSaImEEE_clESE_
FN:980,_ZN2sb5stackINS_3PcfIffEEEENS_6TensorIT_EERKSt6vectorIS5_SaIS5_EEl
FN:1048,_ZN2sb5splitINS_3PcfIffEEEESt6vectorINS_6TensorIT_EESaIS6_EERKS6_mm
FN:1011,_ZN2sb5splitINS_3PcfIffEEEESt6vectorINS_6TensorIT_EESaIS6_EERKS6_RKS3_ImSaImEEm
FN:1075,_ZN2sb11array_splitINS_3PcfIffEEEESt6vectorINS_6TensorIT_EESaIS6_EERKS6_mm
FN:262,_ZNK2sb6TensorINS_3PcfIffEEEngEvQ9CanNegateIT_E
FN:1469,_ZN2sb6TensorINS_3PcfIffEEE5applyIZNKS3_ngEvQ9CanNegateIT_EEUlRS2_E_Qsr3stdE9invocableITL0__RS5_EEEvOS5_
FN:1470,_ZZN2sb6TensorINS_3PcfIffEEE5applyIZNKS3_ngEvQ9CanNegateIT_EEUlRS2_E_Qsr3stdE9invocableITL0__RS5_EEEvOS5_ENKUlRKSt6vectorImSaImEEE_clESF_
FN:264,_ZZNK2sb6TensorINS_3PcfIffEEEngEvQ9CanNegateIT_EENKUlRS2_E_clES5_
FN:446,_ZNK2sb6TensorINS_3PcfIffEEEplERKS3_
FN:418,_ZN2sb6detail15broadcast_binopINS_3PcfIffEEZNKS_6TensorIS3_EplERKS5_EUlRKS3_S9_E_S3_EENS4_IT1_EERKNS4_IT_EESG_T0_
FN:423,_ZZN2sb6detail15broadcast_binopINS_3PcfIffEEZNKS_6TensorIS3_EplERKS5_EUlRKS3_S9_E_S3_EENS4_IT1_EERKNS4_IT_EESG_T0_ENKUlRKSt6vectorImSaImEEE_clESM_
FN:446,_ZZNK2sb6TensorINS_3PcfIffEEEplERKS3_ENKUlRKS2_S7_E_clES7_S7_
FN:467,_ZN2sb6TensorINS_3PcfIffEEEpLERKS3_
FN:431,_ZN2sb6detail23broadcast_binop_inplaceINS_3PcfIffEEZNS_6TensorIS3_EpLERKS5_EUlRKS3_S9_E_EERNS4_IT_EESD_RKSC_T0_
FN:437,_ZZN2sb6detail23broadcast_binop_inplaceINS_3PcfIffEEZNS_6TensorIS3_EpLERKS5_EUlRKS3_S9_E_EERNS4_IT_EESD_RKSC_T0_ENKUlRKSt6vectorImSaImEEE_clESL_
FN:467,_ZZN2sb6TensorINS_3PcfIffEEEpLERKS3_ENKUlRKS2_S7_E_clES7_S7_
FN:450,_ZNK2sb6TensorINS_3PcfIffEEEmiERKS3_
FN:418,_ZN2sb6detail15broadcast_binopINS_3PcfIffEEZNKS_6TensorIS3_EmiERKS5_EUlRKS3_S9_E_S3_EENS4_IT1_EERKNS4_IT_EESG_T0_
FN:423,_ZZN2sb6detail15broadcast_binopINS_3PcfIffEEZNKS_6TensorIS3_EmiERKS5_EUlRKS3_S9_E_S3_EENS4_IT1_EERKNS4_IT_EESG_T0_ENKUlRKSt6vectorImSaImEEE_clESM_
FN:450,_ZZNK2sb6TensorINS_3PcfIffEEEmiERKS3_ENKUlRKS2_S7_E_clES7_S7_
FN:471,_ZN2sb6TensorINS_3PcfIffEEEmIERKS3_
FN:431,_ZN2sb6detail23broadcast_binop_inplaceINS_3PcfIffEEZNS_6TensorIS3_EmIERKS5_EUlRKS3_S9_E_EERNS4_IT_EESD_RKSC_T0_
FN:437,_ZZN2sb6detail23broadcast_binop_inplaceINS_3PcfIffEEZNS_6TensorIS3_EmIERKS5_EUlRKS3_S9_E_EERNS4_IT_EESD_RKSC_T0_ENKUlRKSt6vectorImSaImEEE_clESL_
FN:471,_ZZN2sb6TensorINS_3PcfIffEEEmIERKS3_ENKUlRKS2_S7_E_clES7_S7_
FN:454,_ZNK2sb6TensorINS_3PcfIffEEEmlERKS3_
FN:418,_ZN2sb6detail15broadcast_binopINS_3PcfIffEEZNKS_6TensorIS3_EmlERKS5_EUlRKS3_S9_E_S3_EENS4_IT1_EERKNS4_IT_EESG_T0_
FN:423,_ZZN2sb6detail15broadcast_binopINS_3PcfIffEEZNKS_6TensorIS3_EmlERKS5_EUlRKS3_S9_E_S3_EENS4_IT1_EERKNS4_IT_EESG_T0_ENKUlRKSt6vectorImSaImEEE_clESM_
FN:458,_ZZNK2sb6TensorINS_3PcfIffEEEmlERKS3_ENKUlRKS2_S7_E_clES7_S7_
FN:475,_ZN2sb6TensorINS_3PcfIffEEEmLERKS3_
FN:431,_ZN2sb6detail23broadcast_binop_inplaceINS_3PcfIffEEZNS_6TensorIS3_EmLERKS5_EUlRKS3_S9_E_EERNS4_IT_EESD_RKSC_T0_
FN:437,_ZZN2sb6detail23broadcast_binop_inplaceINS_3PcfIffEEZNS_6TensorIS3_EmLERKS5_EUlRKS3_S9_E_EERNS4_IT_EESD_RKSC_T0_ENKUlRKSt6vectorImSaImEEE_clESL_
FN:475,_ZZN2sb6TensorINS_3PcfIffEEEmLERKS3_ENKUlRKS2_S7_E_clES7_S7_
FN:463,_ZNK2sb6TensorINS_3PcfIffEEEdvERKS3_
FN:418,_ZN2sb6detail15broadcast_binopINS_3PcfIffEEZNKS_6TensorIS3_EdvERKS5_EUlRKS3_S9_E_S3_EENS4_IT1_EERKNS4_IT_EESG_T0_
FN:423,_ZZN2sb6detail15broadcast_binopINS_3PcfIffEEZNKS_6TensorIS3_EdvERKS5_EUlRKS3_S9_E_S3_EENS4_IT1_EERKNS4_IT_EESG_T0_ENKUlRKSt6vectorImSaImEEE_clESM_
FN:463,_ZZNK2sb6TensorINS_3PcfIffEEEdvERKS3_ENKUlRKS2_S7_E_clES7_S7_
FN:479,_ZN2sb6TensorINS_3PcfIffEEEdVERKS3_
FN:431,_ZN2sb6detail23broadcast_binop_inplaceINS_3PcfIffEEZNS_6TensorIS3_EdVERKS5_EUlRKS3_S9_E_EERNS4_IT_EESD_RKSC_T0_
FN:437,_ZZN2sb6detail23broadcast_binop_inplaceINS_3PcfIffEEZNS_6TensorIS3_EdVERKS5_EUlRKS3_S9_E_EERNS4_IT_EESD_RKSC_T0_ENKUlRKSt6vectorImSaImEEE_clESL_
FN:479,_ZZN2sb6TensorINS_3PcfIffEEEdVERKS3_ENKUlRKS2_S7_E_clES7_S7_
FN:519,_ZN2sb13masked_selectINS_3PcfIffEEEENS_6TensorIT_EERKS5_RKNS3_IbEE
FN:528,_ZZN2sb13masked_selectINS_3PcfIffEEEENS_6TensorIT_EERKS5_RKNS3_IbEEENKUlRKSt6vectorImSaImEEE_clESF_
FN:546,_ZN2sb13masked_assignINS_3PcfIffEEEEvRNS_6TensorIT_EERKNS3_IbEERKS5_
FN:554,_ZZN2sb13masked_assignINS_3PcfIffEEEEvRNS_6TensorIT_EERKNS3_IbEERKS5_ENKUlRKSt6vectorImSaImEEE_clESG_
FN:102,_ZNK2sb6TensorINS_3PcfIffEEEclEm
FN:576,_ZN2sb11masked_fillINS_3PcfIffEEEEvRNS_6TensorIT_EERKNS3_IbEERKS4_
FN:583,_ZZN2sb11masked_fillINS_3PcfIffEEEEvRNS_6TensorIT_EERKNS3_IbEERKS4_ENKUlRKSt6vectorImSaImEEE_clESG_
FN:620,_ZN2sb11axis_selectINS_3PcfIffEEEENS_6TensorIT_EERKS5_mRKNS3_IbEE
FN:634,_ZZN2sb11axis_selectINS_3PcfIffEEEENS_6TensorIT_EERKS5_mRKNS3_IbEEENKUlRKSt6vectorImSaImEEE_clESF_
FN:645,_ZN2sb11axis_assignINS_3PcfIffEEEEvRNS_6TensorIT_EEmRKNS3_IbEERKS5_
FN:659,_ZZN2sb11axis_assignINS_3PcfIffEEEEvRNS_6TensorIT_EEmRKNS3_IbEERKS5_ENKUlRKSt6vectorImSaImEEE_clESG_
FN:668,_ZN2sb9axis_fillINS_3PcfIffEEEEvRNS_6TensorIT_EEmRKNS3_IbEERKS4_
FN:671,_ZZN2sb9axis_fillINS_3PcfIffEEEEvRNS_6TensorIT_EEmRKNS3_IbEERKS4_ENKUlRKSt6vectorImSaImEEE_clESG_
FN:703,_ZN2sb17multi_axis_selectINS_3PcfIffEEEENS_6TensorIT_EERKS5_RKSt6vectorISt4pairImNS3_IbEEESaISB_EE
FN:711,_ZZN2sb17multi_axis_selectINS_3PcfIffEEEENS_6TensorIT_EERKS5_RKSt6vectorISt4pairImNS3_IbEEESaISB_EEENKUlRKS8_ImSaImEEE_clESJ_
FN:743,_ZN2sb17multi_axis_assignINS_3PcfIffEEEEvRNS_6TensorIT_EERKSt6vectorISt4pairImNS3_IbEEESaISA_EERKS5_
FN:758,_ZZN2sb17multi_axis_assignINS_3PcfIffEEEEvRNS_6TensorIT_EERKSt6vectorISt4pairImNS3_IbEEESaISA_EERKS5_ENKUlRKS7_ImSaImEEE_clESK_
FN:725,_ZN2sb15multi_axis_fillINS_3PcfIffEEEEvRNS_6TensorIT_EERKSt6vectorISt4pairImNS3_IbEEESaISA_EERKS4_
FN:729,_ZZN2sb15multi_axis_fillINS_3PcfIffEEEEvRNS_6TensorIT_EERKSt6vectorISt4pairImNS3_IbEEESaISA_EERKS4_ENKUlRKS7_ImSaImEEE_clESK_
FN:830,_ZN2sb12outer_selectINS_3PcfIffEEEENS_6TensorIT_EERKS5_RKSt6vectorISt4pairImSt7variantIJNS3_IbEENS3_IlEEEEESaISE_EE
FN:838,_ZZN2sb12outer_selectINS_3PcfIffEEEENS_6TensorIT_EERKS5_RKSt6vectorISt4pairImSt7variantIJNS3_IbEENS3_IlEEEEESaISE_EEENKUlRKS8_ImSaImEEE_clESM_
FN:878,_ZN2sb12outer_assignINS_3PcfIffEEEEvRNS_6TensorIT_EERKSt6vectorISt4pairImSt7variantIJNS3_IbEENS3_IlEEEEESaISD_EERKS5_
FN:893,_ZZN2sb12outer_assignINS_3PcfIffEEEEvRNS_6TensorIT_EERKSt6vectorISt4pairImSt7variantIJNS3_IbEENS3_IlEEEEESaISD_EERKS5_ENKUlRKS7_ImSaImEEE_clESN_
FN:852,_ZN2sb10outer_fillINS_3PcfIffEEEEvRNS_6TensorIT_EERKSt6vectorISt4pairImSt7variantIJNS3_IbEENS3_IlEEEEESaISD_EERKS4_
FN:864,_ZZN2sb10outer_fillINS_3PcfIffEEEEvRNS_6TensorIT_EERKSt6vectorISt4pairImSt7variantIJNS3_IbEENS3_IlEEEEESaISD_EERKS4_ENKUlRKS7_ImSaImEEE_clESN_
FN:1129,_ZN2sb12index_selectINS_3PcfIffEElEENS_6TensorIT_EERKS5_mRKNS3_IT0_EE
FN:1141,_ZZN2sb12index_selectINS_3PcfIffEElEENS_6TensorIT_EERKS5_mRKNS3_IT0_EEENKUlRKSt6vectorImSaImEEE_clESG_
FN:1152,_ZN2sb12index_assignINS_3PcfIffEElEEvRNS_6TensorIT_EEmRKNS3_IT0_EERKS5_
FN:1163,_ZZN2sb12index_assignINS_3PcfIffEElEEvRNS_6TensorIT_EEmRKNS3_IT0_EERKS5_ENKUlRKSt6vectorImSaImEEE_clESH_
FN:1172,_ZN2sb10index_fillINS_3PcfIffEElEEvRNS_6TensorIT_EEmRKNS3_IT0_EERKS4_
FN:1179,_ZZN2sb10index_fillINS_3PcfIffEElEEvRNS_6TensorIT_EEmRKNS3_IT0_EERKS4_ENKUlRKSt6vectorImSaImEEE_clESH_
FN:232,_ZNK2sb6TensorINS_3PcfIffEEEplIS2_Q8CanAddToIT_S5_TL0__EEES3_RKS5_
FN:220,_ZN2sb6TensorINS_3PcfIffEEEpLIS2_Q8CanAddToIT_S5_TL0__EEERS3_RKS5_
FN:1469,_ZN2sb6TensorINS_3PcfIffEEE5applyIZNS3_pLIS2_Q8CanAddToIT_S6_TL0__EEERS3_RKS6_EUlRS2_E_Qsr3stdE9invocableIS7_RS6_EEEvOS6_
FN:1470,_ZZN2sb6TensorINS_3PcfIffEEE5applyIZNS3_pLIS2_Q8CanAddToIT_S6_TL0__EEERS3_RKS6_EUlRS2_E_Qsr3stdE9invocableIS7_RS6_EEEvOS6_ENKUlRKSt6vectorImSaImEEE_clESJ_
FN:221,_ZZN2sb6TensorINS_3PcfIffEEEpLIS2_Q8CanAddToIT_S5_TL0__EEERS3_RKS5_ENKUlRS2_E_clESA_
FN:287,_ZN2sbplINS_3PcfIffEES2_Q8CanAddToIT0_T_S3_EEENS_6TensorIS3_EERKS4_RKS6_
FN:1469,_ZN2sb6TensorINS_3PcfIffEEE5applyIZNS_plIS2_S2_Q8CanAddToIT0_T_S6_EEENS0_IS6_EERKS7_RKS8_EUlRS2_E_Qsr3stdE9invocableITL0__RS7_EEEvOS7_
FN:1470,_ZZN2sb6TensorINS_3PcfIffEEE5applyIZNS_plIS2_S2_Q8CanAddToIT0_T_S6_EEENS0_IS6_EERKS7_RKS8_EUlRS2_E_Qsr3stdE9invocableITL0__RS7_EEEvOS7_ENKUlRKSt6vectorImSaImEEE_clESM_
FN:289,_ZZN2sbplINS_3PcfIffEES2_Q8CanAddToIT0_T_S3_EEENS_6TensorIS3_EERKS4_RKS6_ENKUlRS2_E_clESB_
FN:232,_ZNK2sb6TensorINS_3PcfIffEEEplIfQ8CanAddToIT_S5_TL0__EEES3_RKS5_
FN:220,_ZN2sb6TensorINS_3PcfIffEEEpLIfQ8CanAddToIT_S5_TL0__EEERS3_RKS5_
FN:1469,_ZN2sb6TensorINS_3PcfIffEEE5applyIZNS3_pLIfQ8CanAddToIT_S6_TL0__EEERS3_RKS6_EUlRS2_E_Qsr3stdE9invocableIS7_RS6_EEEvOS6_
FN:1470,_ZZN2sb6TensorINS_3PcfIffEEE5applyIZNS3_pLIfQ8CanAddToIT_S6_TL0__EEERS3_RKS6_EUlRS2_E_Qsr3stdE9invocableIS7_RS6_EEEvOS6_ENKUlRKSt6vectorImSaImEEE_clESJ_
FN:221,_ZZN2sb6TensorINS_3PcfIffEEEpLIfQ8CanAddToIT_S5_TL0__EEERS3_RKS5_ENKUlRS2_E_clESA_
FN:287,_ZN2sbplIfNS_3PcfIffEEQ8CanAddToIT0_T_S3_EEENS_6TensorIS3_EERKS4_RKS6_
FN:1469,_ZN2sb6TensorINS_3PcfIffEEE5applyIZNS_plIfS2_Q8CanAddToIT0_T_S6_EEENS0_IS6_EERKS7_RKS8_EUlRS2_E_Qsr3stdE9invocableITL0__RS7_EEEvOS7_
FN:1470,_ZZN2sb6TensorINS_3PcfIffEEE5applyIZNS_plIfS2_Q8CanAddToIT0_T_S6_EEENS0_IS6_EERKS7_RKS8_EUlRS2_E_Qsr3stdE9invocableITL0__RS7_EEEvOS7_ENKUlRKSt6vectorImSaImEEE_clESM_
FN:289,_ZZN2sbplIfNS_3PcfIffEEQ8CanAddToIT0_T_S3_EEENS_6TensorIS3_EERKS4_RKS6_ENKUlRS2_E_clESB_
FN:254,_ZNK2sb6TensorINS_3PcfIffEEEmiIS2_Q13CanSubtractToIT_S5_TL0__EEES3_RKS5_
FN:242,_ZN2sb6TensorINS_3PcfIffEEEmIIS2_Q13CanSubtractToIT_S5_TL0__EEERS3_RKS5_
FN:1469,_ZN2sb6TensorINS_3PcfIffEEE5applyIZNS3_mIIS2_Q13CanSubtractToIT_S6_TL0__EEERS3_RKS6_EUlRS2_E_Qsr3stdE9invocableIS7_RS6_EEEvOS6_
FN:1470,_ZZN2sb6TensorINS_3PcfIffEEE5applyIZNS3_mIIS2_Q13CanSubtractToIT_S6_TL0__EEERS3_RKS6_EUlRS2_E_Qsr3stdE9invocableIS7_RS6_EEEvOS6_ENKUlRKSt6vectorImSaImEEE_clESJ_
FN:243,_ZZN2sb6TensorINS_3PcfIffEEEmIIS2_Q13CanSubtractToIT_S5_TL0__EEERS3_RKS5_ENKUlRS2_E_clESA_
FN:298,_ZN2sbmiINS_3PcfIffEES2_Q13CanSubtractToIT0_T_S3_EEENS_6TensorIS3_EERKS4_RKS6_
FN:1469,_ZN2sb6TensorINS_3PcfIffEEE5applyIZNS_miIS2_S2_Q13CanSubtractToIT0_T_S6_EEENS0_IS6_EERKS7_RKS8_EUlRS2_E_Qsr3stdE9invocableITL0__RS7_EEEvOS7_
FN:1470,_ZZN2sb6TensorINS_3PcfIffEEE5applyIZNS_miIS2_S2_Q13CanSubtractToIT0_T_S6_EEENS0_IS6_EERKS7_RKS8_EUlRS2_E_Qsr3stdE9invocableITL0__RS7_EEEvOS7_ENKUlRKSt6vectorImSaImEEE_clESM_
FN:300,_ZZN2sbmiINS_3PcfIffEES2_Q13CanSubtractToIT0_T_S3_EEENS_6TensorIS3_EERKS4_RKS6_ENKUlRS2_E_clESB_
FN:254,_ZNK2sb6TensorINS_3PcfIffEEEmiIfQ13CanSubtractToIT_S5_TL0__EEES3_RKS5_
FN:242,_ZN2sb6TensorINS_3PcfIffEEEmIIfQ13CanSubtractToIT_S5_TL0__EEERS3_RKS5_
FN:1469,_ZN2sb6TensorINS_3PcfIffEEE5applyIZNS3_mIIfQ13CanSubtractToIT_S6_TL0__EEERS3_RKS6_EUlRS2_E_Qsr3stdE9invocableIS7_RS6_EEEvOS6_
FN:1470,_ZZN2sb6TensorINS_3PcfIffEEE5applyIZNS3_mIIfQ13CanSubtractToIT_S6_TL0__EEERS3_RKS6_EUlRS2_E_Qsr3stdE9invocableIS7_RS6_EEEvOS6_ENKUlRKSt6vectorImSaImEEE_clESJ_
FN:243,_ZZN2sb6TensorINS_3PcfIffEEEmIIfQ13CanSubtractToIT_S5_TL0__EEERS3_RKS5_ENKUlRS2_E_clESA_
FN:298,_ZN2sbmiIfNS_3PcfIffEEQ13CanSubtractToIT0_T_S3_EEENS_6TensorIS3_EERKS4_RKS6_
FN:1469,_ZN2sb6TensorINS_3PcfIffEEE5applyIZNS_miIfS2_Q13CanSubtractToIT0_T_S6_EEENS0_IS6_EERKS7_RKS8_EUlRS2_E_Qsr3stdE9invocableITL0__RS7_EEEvOS7_
FN:1470,_ZZN2sb6TensorINS_3PcfIffEEE5applyIZNS_miIfS2_Q13CanSubtractToIT0_T_S6_EEENS0_IS6_EERKS7_RKS8_EUlRS2_E_Qsr3stdE9invocableITL0__RS7_EEEvOS7_ENKUlRKSt6vectorImSaImEEE_clESM_
FN:300,_ZZN2sbmiIfNS_3PcfIffEEQ13CanSubtractToIT0_T_S3_EEENS_6TensorIS3_EERKS4_RKS6_ENKUlRS2_E_clESB_
FN:210,_ZNK2sb6TensorINS_3PcfIffEEEmlIfQ13CanMultiplyToIT_S5_TL0__EEES3_RKS5_
FN:195,_ZN2sb6TensorINS_3PcfIffEEEmLIfQ13CanMultiplyToIT_S5_TL0__EEERS3_RKS5_
FN:1469,_ZN2sb6TensorINS_3PcfIffEEE5applyIZNS3_mLIfQ13CanMultiplyToIT_S6_TL0__EEERS3_RKS6_EUlRS2_E_Qsr3stdE9invocableIS7_RS6_EEEvOS6_
FN:1470,_ZZN2sb6TensorINS_3PcfIffEEE5applyIZNS3_mLIfQ13CanMultiplyToIT_S6_TL0__EEERS3_RKS6_EUlRS2_E_Qsr3stdE9invocableIS7_RS6_EEEvOS6_ENKUlRKSt6vectorImSaImEEE_clESJ_
FN:196,_ZZN2sb6TensorINS_3PcfIffEEEmLIfQ13CanMultiplyToIT_S5_TL0__EEERS3_RKS5_ENKUlRS2_E_clESA_
FN:273,_ZN2sbmlIfNS_3PcfIffEEQ13CanMultiplyToIT0_T_S3_EEENS_6TensorIS3_EERKS4_RKS6_
FN:1469,_ZN2sb6TensorINS_3PcfIffEEE5applyIZNS_mlIfS2_Q13CanMultiplyToIT0_T_S6_EEENS0_IS6_EERKS7_RKS8_EUlRS2_E_Qsr3stdE9invocableITL0__RS7_EEEvOS7_
FN:1470,_ZZN2sb6TensorINS_3PcfIffEEE5applyIZNS_mlIfS2_Q13CanMultiplyToIT0_T_S6_EEENS0_IS6_EERKS7_RKS8_EUlRS2_E_Qsr3stdE9invocableITL0__RS7_EEEvOS7_ENKUlRKSt6vectorImSaImEEE_clESM_
FN:275,_ZZN2sbmlIfNS_3PcfIffEEQ13CanMultiplyToIT0_T_S3_EEENS_6TensorIS3_EERKS4_RKS6_ENKUlRS2_E_clESB_
FN:185,_ZNK2sb6TensorINS_3PcfIffEEEdvIfQ11CanDivideToIT_S5_TL0__EEES3_RKS5_
FN:173,_ZN2sb6TensorINS_3PcfIffEEEdVIfQ11CanDivideToIT_S5_TL0__EEERS3_RKS5_
FN:1469,_ZN2sb6TensorINS_3PcfIffEEE5applyIZNS3_dVIfQ11CanDivideToIT_S6_TL0__EEERS3_RKS6_EUlRS2_E_Qsr3stdE9invocableIS7_RS6_EEEvOS6_
FN:1470,_ZZN2sb6TensorINS_3PcfIffEEE5applyIZNS3_dVIfQ11CanDivideToIT_S6_TL0__EEERS3_RKS6_EUlRS2_E_Qsr3stdE9invocableIS7_RS6_EEEvOS6_ENKUlRKSt6vectorImSaImEEE_clESJ_
FN:174,_ZZN2sb6TensorINS_3PcfIffEEEdVIfQ11CanDivideToIT_S5_TL0__EEERS3_RKS5_ENKUlRS2_E_clESA_
FN:309,_ZN2sbdvIfNS_3PcfIffEEQ11CanDivideToIT0_T_S3_EEENS_6TensorIS3_EERKS4_RKS6_
FN:1469,_ZN2sb6TensorINS_3PcfIffEEE5applyIZNS_dvIfS2_Q11CanDivideToIT0_T_S6_EEENS0_IS6_EERKS7_RKS8_EUlRS2_E_Qsr3stdE9invocableITL0__RS7_EEEvOS7_
FN:1470,_ZZN2sb6TensorINS_3PcfIffEEE5applyIZNS_dvIfS2_Q11CanDivideToIT0_T_S6_EEENS0_IS6_EERKS7_RKS8_EUlRS2_E_Qsr3stdE9invocableITL0__RS7_EEEvOS7_ENKUlRKSt6vectorImSaImEEE_clESM_
FN:311,_ZZN2sbdvIfNS_3PcfIffEEQ11CanDivideToIT0_T_S3_EEENS_6TensorIS3_EERKS4_RKS6_ENKUlRS2_E_clESB_
FN:331,_ZN2sb3powINS_3PcfIffEEfQ6CanPowIT_T0_EEENS_6TensorIS3_EERKS6_S4_
FN:1469,_ZN2sb6TensorINS_3PcfIffEEE5applyIZNS_3powIS2_fQ6CanPowIT_T0_EEENS0_IS6_EERKS8_S7_EUlRS2_E_Qsr3stdE9invocableITL0__RS6_EEEvOS6_
FN:1470,_ZZN2sb6TensorINS_3PcfIffEEE5applyIZNS_3powIS2_fQ6CanPowIT_T0_EEENS0_IS6_EERKS8_S7_EUlRS2_E_Qsr3stdE9invocableITL0__RS6_EEEvOS6_ENKUlRKSt6vectorImSaImEEE_clESK_
FN:333,_ZZN2sb3powINS_3PcfIffEEfQ6CanPowIT_T0_EEENS_6TensorIS3_EERKS6_S4_ENKUlRS2_E_clES9_
FN:1432,_ZNK2sb6TensorINS_3PcfIffEEE6any_ofIZZN5sb_py30register_typed_tensor_bindingsIS2_EEvRN8pybind117module_ERKNSt7__cxx1112basic_stringIcSt11char_traitsIcESaIcEEESH_ENKUlRKS3_fE7_clESJ_fEUlRKS2_E_Qsr3stdE9invocableITL0__RKT_EEEbOSP_
FN:1664,_ZN2sb6any_ofINS_3PcfIffEEZZN5sb_py30register_typed_tensor_bindingsIS2_EEvRN8pybind117module_ERKNSt7__cxx1112basic_stringIcSt11char_traitsIcESaIcEEESF_ENKUlRKNS_6TensorIS2_EEfE7_clESJ_fEUlRKS2_E_Qsr3stdE9invocableIT0_RKT_EEEbRKNSG_ISP_EEOSO_
FN:1666,_ZZN2sb6any_ofINS_3PcfIffEEZZN5sb_py30register_typed_tensor_bindingsIS2_EEvRN8pybind117module_ERKNSt7__cxx1112basic_stringIcSt11char_traitsIcESaIcEEESF_ENKUlRKNS_6TensorIS2_EEfE7_clESJ_fEUlRKS2_E_Qsr3stdE9invocableIT0_RKT_EEEbRKNSG_ISP_EEOSO_ENKUlRKSt6vectorImSaImEEE_clES10_
FN:350,_ZN2sb4ipowINS_3PcfIffEEfQ6CanPowIT_T0_EEEvRNS_6TensorIS3_EES4_
FN:1469,_ZN2sb6TensorINS_3PcfIffEEE5applyIZNS_4ipowIS2_fQ6CanPowIT_T0_EEEvRNS0_IS6_EES7_EUlRS2_E_Qsr3stdE9invocableITL0__RS6_EEEvOS6_
FN:1470,_ZZN2sb6TensorINS_3PcfIffEEE5applyIZNS_4ipowIS2_fQ6CanPowIT_T0_EEEvRNS0_IS6_EES7_EUlRS2_E_Qsr3stdE9invocableITL0__RS6_EEEvOS6_ENKUlRKSt6vectorImSaImEEE_clESJ_
FN:351,_ZZN2sb4ipowINS_3PcfIffEEfQ6CanPowIT_T0_EEEvRNS_6TensorIS3_EES4_ENKUlRS2_E_clES8_
FN:84,_ZNK2sb6TensorINS_3PcfIddEEEixISt6vectorISt7variantIJNS_10SliceIndexENS_10SliceRangeEEESaIS9_EEEES3_T_
FN:1476,_ZNK2sb6TensorINS_3PcfIddEEE7extractISt6vectorISt7variantIJNS_10SliceIndexENS_10SliceRangeEEESaIS9_EEEES3_T_
FN:1499,_ZZNK2sb6TensorINS_3PcfIddEEE7extractISt6vectorISt7variantIJNS_10SliceIndexENS_10SliceRangeEEESaIS9_EEEES3_T_ENKUlOSC_E_clIRS7_EEDaSD_
FN:1499,_ZZNK2sb6TensorINS_3PcfIddEEE7extractISt6vectorISt7variantIJNS_10SliceIndexENS_10SliceRangeEEESaIS9_EEEES3_T_ENKUlOSC_E_clIRS8_EEDaSD_
FN:128,_ZN2sb6TensorINS_3PcfIddEEE11assign_fromIS2_Qsr3stdE18is_constructible_vIT_TL0__EEEvRKNS0_IS5_EE
FN:362,_ZNK2sb6TensorINS_3PcfIddEEE12broadcast_toERKSt6vectorImSaImEE
FN:152,_ZZN2sb6TensorINS_3PcfIddEEE11assign_fromIS2_Qsr3stdE18is_constructible_vIT_TL0__EEEvRKNS0_IS5_EEENKUlRKSt6vectorImSaImEEE_clESE_
FN:162,_ZZN2sb6TensorINS_3PcfIddEEE11assign_fromIS2_Qsr3stdE18is_constructible_vIT_TL0__EEEvRKNS0_IS5_EEENKUlRKSt6vectorImSaImEEE0_clESE_
FN:486,_ZN2sb14elementwise_eqINS_3PcfIddEEQsr3stdE19equality_comparableIT_EEENS_6TensorIbEERKNS4_IS3_EES8_
FN:418,_ZN2sb6detail15broadcast_binopINS_3PcfIddEEZNS_14elementwise_eqIS3_Qsr3stdE19equality_comparableIT_EEENS_6TensorIbEERKNS6_IS5_EESA_EUlRKS3_SC_E_bEENS6_IT1_EESA_SA_T0_
FN:423,_ZZN2sb6detail15broadcast_binopINS_3PcfIddEEZNS_14elementwise_eqIS3_Qsr3stdE19equality_comparableIT_EEENS_6TensorIbEERKNS6_IS5_EESA_EUlRKS3_SC_E_bEENS6_IT1_EESA_SA_T0_ENKUlRKSt6vectorImSaImEEE_clESL_
FN:486,_ZZN2sb14elementwise_eqINS_3PcfIddEEQsr3stdE19equality_comparableIT_EEENS_6TensorIbEERKNS4_IS3_EES8_ENKUlRKS2_SA_E_clESA_SA_
FN:491,_ZN2sb14elementwise_neINS_3PcfIddEEQsr3stdE19equality_comparableIT_EEENS_6TensorIbEERKNS4_IS3_EES8_
FN:418,_ZN2sb6detail15broadcast_binopINS_3PcfIddEEZNS_14elementwise_neIS3_Qsr3stdE19equality_comparableIT_EEENS_6TensorIbEERKNS6_IS5_EESA_EUlRKS3_SC_E_bEENS6_IT1_EESA_SA_T0_
FN:423,_ZZN2sb6detail15broadcast_binopINS_3PcfIddEEZNS_14elementwise_neIS3_Qsr3stdE19equality_comparableIT_EEENS_6TensorIbEERKNS6_IS5_EESA_EUlRKS3_SC_E_bEENS6_IT1_EESA_SA_T0_ENKUlRKSt6vectorImSaImEEE_clESL_
FN:491,_ZZN2sb14elementwise_neINS_3PcfIddEEQsr3stdE19equality_comparableIT_EEENS_6TensorIbEERKNS4_IS3_EES8_ENKUlRKS2_SA_E_clESA_SA_
FN:53,_ZNK2sb6TensorINS_3PcfIddEEEeqIS2_Qsr3stdE24equality_comparable_withITL0__T_EEEbRKNS0_IS6_EE
FN:60,_ZZNK2sb6TensorINS_3PcfIddEEEeqIS2_Qsr3stdE24equality_comparable_withITL0__T_EEEbRKNS0_IS6_EEENKUlRKSt6vectorImSaImEEE_clESE_
FN:1198,_ZNK2sb6TensorINS_3PcfIddEEE4copyEv
FN:1201,_ZZNK2sb6TensorINS_3PcfIddEEE4copyEvENKUlRKSt6vectorImSaImEEE_clES8_
FN:1210,_ZNK2sb6TensorINS_3PcfIddEEE7flattenEv
FN:1229,_ZNK2sb6TensorINS_3PcfIddEEE7reshapeERKSt6vectorIlSaIlEE
FN:1369,_ZNK2sb6TensorINS_3PcfIddEEE9transposeERKSt6vectorImSaImEE
FN:1414,_ZNK2sb6TensorINS_3PcfIddEEE8swapaxesEmm
FN:1294,_ZNK2sb6TensorINS_3PcfIddEEE7squeezeEv
FN:1315,_ZNK2sb6TensorINS_3PcfIddEEE7squeezeEm
FN:1343,_ZNK2sb6TensorINS_3PcfIddEEE11expand_dimsEl
FN:933,_ZN2sb11concatenateINS_3PcfIddEEEENS_6TensorIT_EERKSt6vectorIS5_SaIS5_EEm
FN:967,_ZZN2sb11concatenateINS_3PcfIddEEEENS_6TensorIT_EERKSt6vectorIS5_SaIS5_EEmENKUlRKS6_ImSaImEEE_clESE_
FN:980,_ZN2sb5stackINS_3PcfIddEEEENS_6TensorIT_EERKSt6vectorIS5_SaIS5_EEl
FN:1048,_ZN2sb5splitINS_3PcfIddEEEESt6vectorINS_6TensorIT_EESaIS6_EERKS6_mm
FN:1011,_ZN2sb5splitINS_3PcfIddEEEESt6vectorINS_6TensorIT_EESaIS6_EERKS6_RKS3_ImSaImEEm
FN:1075,_ZN2sb11array_splitINS_3PcfIddEEEESt6vectorINS_6TensorIT_EESaIS6_EERKS6_mm
FN:262,_ZNK2sb6TensorINS_3PcfIddEEEngEvQ9CanNegateIT_E
FN:1469,_ZN2sb6TensorINS_3PcfIddEEE5applyIZNKS3_ngEvQ9CanNegateIT_EEUlRS2_E_Qsr3stdE9invocableITL0__RS5_EEEvOS5_
FN:1470,_ZZN2sb6TensorINS_3PcfIddEEE5applyIZNKS3_ngEvQ9CanNegateIT_EEUlRS2_E_Qsr3stdE9invocableITL0__RS5_EEEvOS5_ENKUlRKSt6vectorImSaImEEE_clESF_
FN:264,_ZZNK2sb6TensorINS_3PcfIddEEEngEvQ9CanNegateIT_EENKUlRS2_E_clES5_
FN:446,_ZNK2sb6TensorINS_3PcfIddEEEplERKS3_
FN:418,_ZN2sb6detail15broadcast_binopINS_3PcfIddEEZNKS_6TensorIS3_EplERKS5_EUlRKS3_S9_E_S3_EENS4_IT1_EERKNS4_IT_EESG_T0_
FN:423,_ZZN2sb6detail15broadcast_binopINS_3PcfIddEEZNKS_6TensorIS3_EplERKS5_EUlRKS3_S9_E_S3_EENS4_IT1_EERKNS4_IT_EESG_T0_ENKUlRKSt6vectorImSaImEEE_clESM_
FN:446,_ZZNK2sb6TensorINS_3PcfIddEEEplERKS3_ENKUlRKS2_S7_E_clES7_S7_
FN:467,_ZN2sb6TensorINS_3PcfIddEEEpLERKS3_
FN:431,_ZN2sb6detail23broadcast_binop_inplaceINS_3PcfIddEEZNS_6TensorIS3_EpLERKS5_EUlRKS3_S9_E_EERNS4_IT_EESD_RKSC_T0_
FN:437,_ZZN2sb6detail23broadcast_binop_inplaceINS_3PcfIddEEZNS_6TensorIS3_EpLERKS5_EUlRKS3_S9_E_EERNS4_IT_EESD_RKSC_T0_ENKUlRKSt6vectorImSaImEEE_clESL_
FN:467,_ZZN2sb6TensorINS_3PcfIddEEEpLERKS3_ENKUlRKS2_S7_E_clES7_S7_
FN:450,_ZNK2sb6TensorINS_3PcfIddEEEmiERKS3_
FN:418,_ZN2sb6detail15broadcast_binopINS_3PcfIddEEZNKS_6TensorIS3_EmiERKS5_EUlRKS3_S9_E_S3_EENS4_IT1_EERKNS4_IT_EESG_T0_
FN:423,_ZZN2sb6detail15broadcast_binopINS_3PcfIddEEZNKS_6TensorIS3_EmiERKS5_EUlRKS3_S9_E_S3_EENS4_IT1_EERKNS4_IT_EESG_T0_ENKUlRKSt6vectorImSaImEEE_clESM_
FN:450,_ZZNK2sb6TensorINS_3PcfIddEEEmiERKS3_ENKUlRKS2_S7_E_clES7_S7_
FN:471,_ZN2sb6TensorINS_3PcfIddEEEmIERKS3_
FN:431,_ZN2sb6detail23broadcast_binop_inplaceINS_3PcfIddEEZNS_6TensorIS3_EmIERKS5_EUlRKS3_S9_E_EERNS4_IT_EESD_RKSC_T0_
FN:437,_ZZN2sb6detail23broadcast_binop_inplaceINS_3PcfIddEEZNS_6TensorIS3_EmIERKS5_EUlRKS3_S9_E_EERNS4_IT_EESD_RKSC_T0_ENKUlRKSt6vectorImSaImEEE_clESL_
FN:471,_ZZN2sb6TensorINS_3PcfIddEEEmIERKS3_ENKUlRKS2_S7_E_clES7_S7_
FN:454,_ZNK2sb6TensorINS_3PcfIddEEEmlERKS3_
FN:418,_ZN2sb6detail15broadcast_binopINS_3PcfIddEEZNKS_6TensorIS3_EmlERKS5_EUlRKS3_S9_E_S3_EENS4_IT1_EERKNS4_IT_EESG_T0_
FN:423,_ZZN2sb6detail15broadcast_binopINS_3PcfIddEEZNKS_6TensorIS3_EmlERKS5_EUlRKS3_S9_E_S3_EENS4_IT1_EERKNS4_IT_EESG_T0_ENKUlRKSt6vectorImSaImEEE_clESM_
FN:458,_ZZNK2sb6TensorINS_3PcfIddEEEmlERKS3_ENKUlRKS2_S7_E_clES7_S7_
FN:475,_ZN2sb6TensorINS_3PcfIddEEEmLERKS3_
FN:431,_ZN2sb6detail23broadcast_binop_inplaceINS_3PcfIddEEZNS_6TensorIS3_EmLERKS5_EUlRKS3_S9_E_EERNS4_IT_EESD_RKSC_T0_
FN:437,_ZZN2sb6detail23broadcast_binop_inplaceINS_3PcfIddEEZNS_6TensorIS3_EmLERKS5_EUlRKS3_S9_E_EERNS4_IT_EESD_RKSC_T0_ENKUlRKSt6vectorImSaImEEE_clESL_
FN:475,_ZZN2sb6TensorINS_3PcfIddEEEmLERKS3_ENKUlRKS2_S7_E_clES7_S7_
FN:463,_ZNK2sb6TensorINS_3PcfIddEEEdvERKS3_
FN:418,_ZN2sb6detail15broadcast_binopINS_3PcfIddEEZNKS_6TensorIS3_EdvERKS5_EUlRKS3_S9_E_S3_EENS4_IT1_EERKNS4_IT_EESG_T0_
FN:423,_ZZN2sb6detail15broadcast_binopINS_3PcfIddEEZNKS_6TensorIS3_EdvERKS5_EUlRKS3_S9_E_S3_EENS4_IT1_EERKNS4_IT_EESG_T0_ENKUlRKSt6vectorImSaImEEE_clESM_
FN:463,_ZZNK2sb6TensorINS_3PcfIddEEEdvERKS3_ENKUlRKS2_S7_E_clES7_S7_
FN:479,_ZN2sb6TensorINS_3PcfIddEEEdVERKS3_
FN:431,_ZN2sb6detail23broadcast_binop_inplaceINS_3PcfIddEEZNS_6TensorIS3_EdVERKS5_EUlRKS3_S9_E_EERNS4_IT_EESD_RKSC_T0_
FN:437,_ZZN2sb6detail23broadcast_binop_inplaceINS_3PcfIddEEZNS_6TensorIS3_EdVERKS5_EUlRKS3_S9_E_EERNS4_IT_EESD_RKSC_T0_ENKUlRKSt6vectorImSaImEEE_clESL_
FN:479,_ZZN2sb6TensorINS_3PcfIddEEEdVERKS3_ENKUlRKS2_S7_E_clES7_S7_
FN:519,_ZN2sb13masked_selectINS_3PcfIddEEEENS_6TensorIT_EERKS5_RKNS3_IbEE
FN:528,_ZZN2sb13masked_selectINS_3PcfIddEEEENS_6TensorIT_EERKS5_RKNS3_IbEEENKUlRKSt6vectorImSaImEEE_clESF_
FN:546,_ZN2sb13masked_assignINS_3PcfIddEEEEvRNS_6TensorIT_EERKNS3_IbEERKS5_
FN:554,_ZZN2sb13masked_assignINS_3PcfIddEEEEvRNS_6TensorIT_EERKNS3_IbEERKS5_ENKUlRKSt6vectorImSaImEEE_clESG_
FN:102,_ZNK2sb6TensorINS_3PcfIddEEEclEm
FN:576,_ZN2sb11masked_fillINS_3PcfIddEEEEvRNS_6TensorIT_EERKNS3_IbEERKS4_
FN:583,_ZZN2sb11masked_fillINS_3PcfIddEEEEvRNS_6TensorIT_EERKNS3_IbEERKS4_ENKUlRKSt6vectorImSaImEEE_clESG_
FN:620,_ZN2sb11axis_selectINS_3PcfIddEEEENS_6TensorIT_EERKS5_mRKNS3_IbEE
FN:634,_ZZN2sb11axis_selectINS_3PcfIddEEEENS_6TensorIT_EERKS5_mRKNS3_IbEEENKUlRKSt6vectorImSaImEEE_clESF_
FN:645,_ZN2sb11axis_assignINS_3PcfIddEEEEvRNS_6TensorIT_EEmRKNS3_IbEERKS5_
FN:659,_ZZN2sb11axis_assignINS_3PcfIddEEEEvRNS_6TensorIT_EEmRKNS3_IbEERKS5_ENKUlRKSt6vectorImSaImEEE_clESG_
FN:668,_ZN2sb9axis_fillINS_3PcfIddEEEEvRNS_6TensorIT_EEmRKNS3_IbEERKS4_
FN:671,_ZZN2sb9axis_fillINS_3PcfIddEEEEvRNS_6TensorIT_EEmRKNS3_IbEERKS4_ENKUlRKSt6vectorImSaImEEE_clESG_
FN:703,_ZN2sb17multi_axis_selectINS_3PcfIddEEEENS_6TensorIT_EERKS5_RKSt6vectorISt4pairImNS3_IbEEESaISB_EE
FN:711,_ZZN2sb17multi_axis_selectINS_3PcfIddEEEENS_6TensorIT_EERKS5_RKSt6vectorISt4pairImNS3_IbEEESaISB_EEENKUlRKS8_ImSaImEEE_clESJ_
FN:743,_ZN2sb17multi_axis_assignINS_3PcfIddEEEEvRNS_6TensorIT_EERKSt6vectorISt4pairImNS3_IbEEESaISA_EERKS5_
FN:758,_ZZN2sb17multi_axis_assignINS_3PcfIddEEEEvRNS_6TensorIT_EERKSt6vectorISt4pairImNS3_IbEEESaISA_EERKS5_ENKUlRKS7_ImSaImEEE_clESK_
FN:725,_ZN2sb15multi_axis_fillINS_3PcfIddEEEEvRNS_6TensorIT_EERKSt6vectorISt4pairImNS3_IbEEESaISA_EERKS4_
FN:729,_ZZN2sb15multi_axis_fillINS_3PcfIddEEEEvRNS_6TensorIT_EERKSt6vectorISt4pairImNS3_IbEEESaISA_EERKS4_ENKUlRKS7_ImSaImEEE_clESK_
FN:830,_ZN2sb12outer_selectINS_3PcfIddEEEENS_6TensorIT_EERKS5_RKSt6vectorISt4pairImSt7variantIJNS3_IbEENS3_IlEEEEESaISE_EE
FN:838,_ZZN2sb12outer_selectINS_3PcfIddEEEENS_6TensorIT_EERKS5_RKSt6vectorISt4pairImSt7variantIJNS3_IbEENS3_IlEEEEESaISE_EEENKUlRKS8_ImSaImEEE_clESM_
FN:878,_ZN2sb12outer_assignINS_3PcfIddEEEEvRNS_6TensorIT_EERKSt6vectorISt4pairImSt7variantIJNS3_IbEENS3_IlEEEEESaISD_EERKS5_
FN:893,_ZZN2sb12outer_assignINS_3PcfIddEEEEvRNS_6TensorIT_EERKSt6vectorISt4pairImSt7variantIJNS3_IbEENS3_IlEEEEESaISD_EERKS5_ENKUlRKS7_ImSaImEEE_clESN_
FN:852,_ZN2sb10outer_fillINS_3PcfIddEEEEvRNS_6TensorIT_EERKSt6vectorISt4pairImSt7variantIJNS3_IbEENS3_IlEEEEESaISD_EERKS4_
FN:864,_ZZN2sb10outer_fillINS_3PcfIddEEEEvRNS_6TensorIT_EERKSt6vectorISt4pairImSt7variantIJNS3_IbEENS3_IlEEEEESaISD_EERKS4_ENKUlRKS7_ImSaImEEE_clESN_
FN:1129,_ZN2sb12index_selectINS_3PcfIddEElEENS_6TensorIT_EERKS5_mRKNS3_IT0_EE
FN:1141,_ZZN2sb12index_selectINS_3PcfIddEElEENS_6TensorIT_EERKS5_mRKNS3_IT0_EEENKUlRKSt6vectorImSaImEEE_clESG_
FN:1152,_ZN2sb12index_assignINS_3PcfIddEElEEvRNS_6TensorIT_EEmRKNS3_IT0_EERKS5_
FN:1163,_ZZN2sb12index_assignINS_3PcfIddEElEEvRNS_6TensorIT_EEmRKNS3_IT0_EERKS5_ENKUlRKSt6vectorImSaImEEE_clESH_
FN:1172,_ZN2sb10index_fillINS_3PcfIddEElEEvRNS_6TensorIT_EEmRKNS3_IT0_EERKS4_
FN:1179,_ZZN2sb10index_fillINS_3PcfIddEElEEvRNS_6TensorIT_EEmRKNS3_IT0_EERKS4_ENKUlRKSt6vectorImSaImEEE_clESH_
FN:232,_ZNK2sb6TensorINS_3PcfIddEEEplIS2_Q8CanAddToIT_S5_TL0__EEES3_RKS5_
FN:220,_ZN2sb6TensorINS_3PcfIddEEEpLIS2_Q8CanAddToIT_S5_TL0__EEERS3_RKS5_
FN:1469,_ZN2sb6TensorINS_3PcfIddEEE5applyIZNS3_pLIS2_Q8CanAddToIT_S6_TL0__EEERS3_RKS6_EUlRS2_E_Qsr3stdE9invocableIS7_RS6_EEEvOS6_
FN:1470,_ZZN2sb6TensorINS_3PcfIddEEE5applyIZNS3_pLIS2_Q8CanAddToIT_S6_TL0__EEERS3_RKS6_EUlRS2_E_Qsr3stdE9invocableIS7_RS6_EEEvOS6_ENKUlRKSt6vectorImSaImEEE_clESJ_
FN:221,_ZZN2sb6TensorINS_3PcfIddEEEpLIS2_Q8CanAddToIT_S5_TL0__EEERS3_RKS5_ENKUlRS2_E_clESA_
FN:287,_ZN2sbplINS_3PcfIddEES2_Q8CanAddToIT0_T_S3_EEENS_6TensorIS3_EERKS4_RKS6_
FN:1469,_ZN2sb6TensorINS_3PcfIddEEE5applyIZNS_plIS2_S2_Q8CanAddToIT0_T_S6_EEENS0_IS6_EERKS7_RKS8_EUlRS2_E_Qsr3stdE9invocableITL0__RS7_EEEvOS7_
FN:1470,_ZZN2sb6TensorINS_3PcfIddEEE5applyIZNS_plIS2_S2_Q8CanAddToIT0_T_S6_EEENS0_IS6_EERKS7_RKS8_EUlRS2_E_Qsr3stdE9invocableITL0__RS7_EEEvOS7_ENKUlRKSt6vectorImSaImEEE_clESM_
FN:289,_ZZN2sbplINS_3PcfIddEES2_Q8CanAddToIT0_T_S3_EEENS_6TensorIS3_EERKS4_RKS6_ENKUlRS2_E_clESB_
FN:232,_ZNK2sb6TensorINS_3PcfIddEEEplIdQ8CanAddToIT_S5_TL0__EEES3_RKS5_
FN:220,_ZN2sb6TensorINS_3PcfIddEEEpLIdQ8CanAddToIT_S5_TL0__EEERS3_RKS5_
FN:1469,_ZN2sb6TensorINS_3PcfIddEEE5applyIZNS3_pLIdQ8CanAddToIT_S6_TL0__EEERS3_RKS6_EUlRS2_E_Qsr3stdE9invocableIS7_RS6_EEEvOS6_
FN:1470,_ZZN2sb6TensorINS_3PcfIddEEE5applyIZNS3_pLIdQ8CanAddToIT_S6_TL0__EEERS3_RKS6_EUlRS2_E_Qsr3stdE9invocableIS7_RS6_EEEvOS6_ENKUlRKSt6vectorImSaImEEE_clESJ_
FN:221,_ZZN2sb6TensorINS_3PcfIddEEEpLIdQ8CanAddToIT_S5_TL0__EEERS3_RKS5_ENKUlRS2_E_clESA_
FN:287,_ZN2sbplIdNS_3PcfIddEEQ8CanAddToIT0_T_S3_EEENS_6TensorIS3_EERKS4_RKS6_
FN:1469,_ZN2sb6TensorINS_3PcfIddEEE5applyIZNS_plIdS2_Q8CanAddToIT0_T_S6_EEENS0_IS6_EERKS7_RKS8_EUlRS2_E_Qsr3stdE9invocableITL0__RS7_EEEvOS7_
FN:1470,_ZZN2sb6TensorINS_3PcfIddEEE5applyIZNS_plIdS2_Q8CanAddToIT0_T_S6_EEENS0_IS6_EERKS7_RKS8_EUlRS2_E_Qsr3stdE9invocableITL0__RS7_EEEvOS7_ENKUlRKSt6vectorImSaImEEE_clESM_
FN:289,_ZZN2sbplIdNS_3PcfIddEEQ8CanAddToIT0_T_S3_EEENS_6TensorIS3_EERKS4_RKS6_ENKUlRS2_E_clESB_
FN:254,_ZNK2sb6TensorINS_3PcfIddEEEmiIS2_Q13CanSubtractToIT_S5_TL0__EEES3_RKS5_
FN:242,_ZN2sb6TensorINS_3PcfIddEEEmIIS2_Q13CanSubtractToIT_S5_TL0__EEERS3_RKS5_
FN:1469,_ZN2sb6TensorINS_3PcfIddEEE5applyIZNS3_mIIS2_Q13CanSubtractToIT_S6_TL0__EEERS3_RKS6_EUlRS2_E_Qsr3stdE9invocableIS7_RS6_EEEvOS6_
FN:1470,_ZZN2sb6TensorINS_3PcfIddEEE5applyIZNS3_mIIS2_Q13CanSubtractToIT_S6_TL0__EEERS3_RKS6_EUlRS2_E_Qsr3stdE9invocableIS7_RS6_EEEvOS6_ENKUlRKSt6vectorImSaImEEE_clESJ_
FN:243,_ZZN2sb6TensorINS_3PcfIddEEEmIIS2_Q13CanSubtractToIT_S5_TL0__EEERS3_RKS5_ENKUlRS2_E_clESA_
FN:298,_ZN2sbmiINS_3PcfIddEES2_Q13CanSubtractToIT0_T_S3_EEENS_6TensorIS3_EERKS4_RKS6_
FN:1469,_ZN2sb6TensorINS_3PcfIddEEE5applyIZNS_miIS2_S2_Q13CanSubtractToIT0_T_S6_EEENS0_IS6_EERKS7_RKS8_EUlRS2_E_Qsr3stdE9invocableITL0__RS7_EEEvOS7_
FN:1470,_ZZN2sb6TensorINS_3PcfIddEEE5applyIZNS_miIS2_S2_Q13CanSubtractToIT0_T_S6_EEENS0_IS6_EERKS7_RKS8_EUlRS2_E_Qsr3stdE9invocableITL0__RS7_EEEvOS7_ENKUlRKSt6vectorImSaImEEE_clESM_
FN:300,_ZZN2sbmiINS_3PcfIddEES2_Q13CanSubtractToIT0_T_S3_EEENS_6TensorIS3_EERKS4_RKS6_ENKUlRS2_E_clESB_
FN:254,_ZNK2sb6TensorINS_3PcfIddEEEmiIdQ13CanSubtractToIT_S5_TL0__EEES3_RKS5_
FN:242,_ZN2sb6TensorINS_3PcfIddEEEmIIdQ13CanSubtractToIT_S5_TL0__EEERS3_RKS5_
FN:1469,_ZN2sb6TensorINS_3PcfIddEEE5applyIZNS3_mIIdQ13CanSubtractToIT_S6_TL0__EEERS3_RKS6_EUlRS2_E_Qsr3stdE9invocableIS7_RS6_EEEvOS6_
FN:1470,_ZZN2sb6TensorINS_3PcfIddEEE5applyIZNS3_mIIdQ13CanSubtractToIT_S6_TL0__EEERS3_RKS6_EUlRS2_E_Qsr3stdE9invocableIS7_RS6_EEEvOS6_ENKUlRKSt6vectorImSaImEEE_clESJ_
FN:243,_ZZN2sb6TensorINS_3PcfIddEEEmIIdQ13CanSubtractToIT_S5_TL0__EEERS3_RKS5_ENKUlRS2_E_clESA_
FN:298,_ZN2sbmiIdNS_3PcfIddEEQ13CanSubtractToIT0_T_S3_EEENS_6TensorIS3_EERKS4_RKS6_
FN:1469,_ZN2sb6TensorINS_3PcfIddEEE5applyIZNS_miIdS2_Q13CanSubtractToIT0_T_S6_EEENS0_IS6_EERKS7_RKS8_EUlRS2_E_Qsr3stdE9invocableITL0__RS7_EEEvOS7_
FN:1470,_ZZN2sb6TensorINS_3PcfIddEEE5applyIZNS_miIdS2_Q13CanSubtractToIT0_T_S6_EEENS0_IS6_EERKS7_RKS8_EUlRS2_E_Qsr3stdE9invocableITL0__RS7_EEEvOS7_ENKUlRKSt6vectorImSaImEEE_clESM_
FN:300,_ZZN2sbmiIdNS_3PcfIddEEQ13CanSubtractToIT0_T_S3_EEENS_6TensorIS3_EERKS4_RKS6_ENKUlRS2_E_clESB_
FN:210,_ZNK2sb6TensorINS_3PcfIddEEEmlIdQ13CanMultiplyToIT_S5_TL0__EEES3_RKS5_
FN:195,_ZN2sb6TensorINS_3PcfIddEEEmLIdQ13CanMultiplyToIT_S5_TL0__EEERS3_RKS5_
FN:1469,_ZN2sb6TensorINS_3PcfIddEEE5applyIZNS3_mLIdQ13CanMultiplyToIT_S6_TL0__EEERS3_RKS6_EUlRS2_E_Qsr3stdE9invocableIS7_RS6_EEEvOS6_
FN:1470,_ZZN2sb6TensorINS_3PcfIddEEE5applyIZNS3_mLIdQ13CanMultiplyToIT_S6_TL0__EEERS3_RKS6_EUlRS2_E_Qsr3stdE9invocableIS7_RS6_EEEvOS6_ENKUlRKSt6vectorImSaImEEE_clESJ_
FN:196,_ZZN2sb6TensorINS_3PcfIddEEEmLIdQ13CanMultiplyToIT_S5_TL0__EEERS3_RKS5_ENKUlRS2_E_clESA_
FN:273,_ZN2sbmlIdNS_3PcfIddEEQ13CanMultiplyToIT0_T_S3_EEENS_6TensorIS3_EERKS4_RKS6_
FN:1469,_ZN2sb6TensorINS_3PcfIddEEE5applyIZNS_mlIdS2_Q13CanMultiplyToIT0_T_S6_EEENS0_IS6_EERKS7_RKS8_EUlRS2_E_Qsr3stdE9invocableITL0__RS7_EEEvOS7_
FN:1470,_ZZN2sb6TensorINS_3PcfIddEEE5applyIZNS_mlIdS2_Q13CanMultiplyToIT0_T_S6_EEENS0_IS6_EERKS7_RKS8_EUlRS2_E_Qsr3stdE9invocableITL0__RS7_EEEvOS7_ENKUlRKSt6vectorImSaImEEE_clESM_
FN:275,_ZZN2sbmlIdNS_3PcfIddEEQ13CanMultiplyToIT0_T_S3_EEENS_6TensorIS3_EERKS4_RKS6_ENKUlRS2_E_clESB_
FN:185,_ZNK2sb6TensorINS_3PcfIddEEEdvIdQ11CanDivideToIT_S5_TL0__EEES3_RKS5_
FN:173,_ZN2sb6TensorINS_3PcfIddEEEdVIdQ11CanDivideToIT_S5_TL0__EEERS3_RKS5_
FN:1469,_ZN2sb6TensorINS_3PcfIddEEE5applyIZNS3_dVIdQ11CanDivideToIT_S6_TL0__EEERS3_RKS6_EUlRS2_E_Qsr3stdE9invocableIS7_RS6_EEEvOS6_
FN:1470,_ZZN2sb6TensorINS_3PcfIddEEE5applyIZNS3_dVIdQ11CanDivideToIT_S6_TL0__EEERS3_RKS6_EUlRS2_E_Qsr3stdE9invocableIS7_RS6_EEEvOS6_ENKUlRKSt6vectorImSaImEEE_clESJ_
FN:174,_ZZN2sb6TensorINS_3PcfIddEEEdVIdQ11CanDivideToIT_S5_TL0__EEERS3_RKS5_ENKUlRS2_E_clESA_
FN:309,_ZN2sbdvIdNS_3PcfIddEEQ11CanDivideToIT0_T_S3_EEENS_6TensorIS3_EERKS4_RKS6_
FN:1469,_ZN2sb6TensorINS_3PcfIddEEE5applyIZNS_dvIdS2_Q11CanDivideToIT0_T_S6_EEENS0_IS6_EERKS7_RKS8_EUlRS2_E_Qsr3stdE9invocableITL0__RS7_EEEvOS7_
FN:1470,_ZZN2sb6TensorINS_3PcfIddEEE5applyIZNS_dvIdS2_Q11CanDivideToIT0_T_S6_EEENS0_IS6_EERKS7_RKS8_EUlRS2_E_Qsr3stdE9invocableITL0__RS7_EEEvOS7_ENKUlRKSt6vectorImSaImEEE_clESM_
FN:311,_ZZN2sbdvIdNS_3PcfIddEEQ11CanDivideToIT0_T_S3_EEENS_6TensorIS3_EERKS4_RKS6_ENKUlRS2_E_clESB_
FN:331,_ZN2sb3powINS_3PcfIddEEdQ6CanPowIT_T0_EEENS_6TensorIS3_EERKS6_S4_
FN:1469,_ZN2sb6TensorINS_3PcfIddEEE5applyIZNS_3powIS2_dQ6CanPowIT_T0_EEENS0_IS6_EERKS8_S7_EUlRS2_E_Qsr3stdE9invocableITL0__RS6_EEEvOS6_
FN:1470,_ZZN2sb6TensorINS_3PcfIddEEE5applyIZNS_3powIS2_dQ6CanPowIT_T0_EEENS0_IS6_EERKS8_S7_EUlRS2_E_Qsr3stdE9invocableITL0__RS6_EEEvOS6_ENKUlRKSt6vectorImSaImEEE_clESK_
FN:333,_ZZN2sb3powINS_3PcfIddEEdQ6CanPowIT_T0_EEENS_6TensorIS3_EERKS6_S4_ENKUlRS2_E_clES9_
FN:1432,_ZNK2sb6TensorINS_3PcfIddEEE6any_ofIZZN5sb_py30register_typed_tensor_bindingsIS2_EEvRN8pybind117module_ERKNSt7__cxx1112basic_stringIcSt11char_traitsIcESaIcEEESH_ENKUlRKS3_dE7_clESJ_dEUlRKS2_E_Qsr3stdE9invocableITL0__RKT_EEEbOSP_
FN:1664,_ZN2sb6any_ofINS_3PcfIddEEZZN5sb_py30register_typed_tensor_bindingsIS2_EEvRN8pybind117module_ERKNSt7__cxx1112basic_stringIcSt11char_traitsIcESaIcEEESF_ENKUlRKNS_6TensorIS2_EEdE7_clESJ_dEUlRKS2_E_Qsr3stdE9invocableIT0_RKT_EEEbRKNSG_ISP_EEOSO_
FN:1666,_ZZN2sb6any_ofINS_3PcfIddEEZZN5sb_py30register_typed_tensor_bindingsIS2_EEvRN8pybind117module_ERKNSt7__cxx1112basic_stringIcSt11char_traitsIcESaIcEEESF_ENKUlRKNS_6TensorIS2_EEdE7_clESJ_dEUlRKS2_E_Qsr3stdE9invocableIT0_RKT_EEEbRKNSG_ISP_EEOSO_ENKUlRKSt6vectorImSaImEEE_clES10_
FN:350,_ZN2sb4ipowINS_3PcfIddEEdQ6CanPowIT_T0_EEEvRNS_6TensorIS3_EES4_
FN:1469,_ZN2sb6TensorINS_3PcfIddEEE5applyIZNS_4ipowIS2_dQ6CanPowIT_T0_EEEvRNS0_IS6_EES7_EUlRS2_E_Qsr3stdE9invocableITL0__RS6_EEEvOS6_
FN:1470,_ZZN2sb6TensorINS_3PcfIddEEE5applyIZNS_4ipowIS2_dQ6CanPowIT_T0_EEEvRNS0_IS6_EES7_EUlRS2_E_Qsr3stdE9invocableITL0__RS6_EEEvOS6_ENKUlRKSt6vectorImSaImEEE_clESJ_
FN:351,_ZZN2sb4ipowINS_3PcfIddEEdQ6CanPowIT_T0_EEEvRNS_6TensorIS3_EES4_ENKUlRS2_E_clES8_
FN:84,_ZNK2sb6TensorINS_3PcfIiiEEEixISt6vectorISt7variantIJNS_10SliceIndexENS_10SliceRangeEEESaIS9_EEEES3_T_
FN:1476,_ZNK2sb6TensorINS_3PcfIiiEEE7extractISt6vectorISt7variantIJNS_10SliceIndexENS_10SliceRangeEEESaIS9_EEEES3_T_
FN:1499,_ZZNK2sb6TensorINS_3PcfIiiEEE7extractISt6vectorISt7variantIJNS_10SliceIndexENS_10SliceRangeEEESaIS9_EEEES3_T_ENKUlOSC_E_clIRS7_EEDaSD_
FN:1499,_ZZNK2sb6TensorINS_3PcfIiiEEE7extractISt6vectorISt7variantIJNS_10SliceIndexENS_10SliceRangeEEESaIS9_EEEES3_T_ENKUlOSC_E_clIRS8_EEDaSD_
FN:128,_ZN2sb6TensorINS_3PcfIiiEEE11assign_fromIS2_Qsr3stdE18is_constructible_vIT_TL0__EEEvRKNS0_IS5_EE
FN:362,_ZNK2sb6TensorINS_3PcfIiiEEE12broadcast_toERKSt6vectorImSaImEE
FN:152,_ZZN2sb6TensorINS_3PcfIiiEEE11assign_fromIS2_Qsr3stdE18is_constructible_vIT_TL0__EEEvRKNS0_IS5_EEENKUlRKSt6vectorImSaImEEE_clESE_
FN:162,_ZZN2sb6TensorINS_3PcfIiiEEE11assign_fromIS2_Qsr3stdE18is_constructible_vIT_TL0__EEEvRKNS0_IS5_EEENKUlRKSt6vectorImSaImEEE0_clESE_
FN:486,_ZN2sb14elementwise_eqINS_3PcfIiiEEQsr3stdE19equality_comparableIT_EEENS_6TensorIbEERKNS4_IS3_EES8_
FN:418,_ZN2sb6detail15broadcast_binopINS_3PcfIiiEEZNS_14elementwise_eqIS3_Qsr3stdE19equality_comparableIT_EEENS_6TensorIbEERKNS6_IS5_EESA_EUlRKS3_SC_E_bEENS6_IT1_EESA_SA_T0_
FN:423,_ZZN2sb6detail15broadcast_binopINS_3PcfIiiEEZNS_14elementwise_eqIS3_Qsr3stdE19equality_comparableIT_EEENS_6TensorIbEERKNS6_IS5_EESA_EUlRKS3_SC_E_bEENS6_IT1_EESA_SA_T0_ENKUlRKSt6vectorImSaImEEE_clESL_
FN:486,_ZZN2sb14elementwise_eqINS_3PcfIiiEEQsr3stdE19equality_comparableIT_EEENS_6TensorIbEERKNS4_IS3_EES8_ENKUlRKS2_SA_E_clESA_SA_
FN:491,_ZN2sb14elementwise_neINS_3PcfIiiEEQsr3stdE19equality_comparableIT_EEENS_6TensorIbEERKNS4_IS3_EES8_
FN:418,_ZN2sb6detail15broadcast_binopINS_3PcfIiiEEZNS_14elementwise_neIS3_Qsr3stdE19equality_comparableIT_EEENS_6TensorIbEERKNS6_IS5_EESA_EUlRKS3_SC_E_bEENS6_IT1_EESA_SA_T0_
FN:423,_ZZN2sb6detail15broadcast_binopINS_3PcfIiiEEZNS_14elementwise_neIS3_Qsr3stdE19equality_comparableIT_EEENS_6TensorIbEERKNS6_IS5_EESA_EUlRKS3_SC_E_bEENS6_IT1_EESA_SA_T0_ENKUlRKSt6vectorImSaImEEE_clESL_
FN:491,_ZZN2sb14elementwise_neINS_3PcfIiiEEQsr3stdE19equality_comparableIT_EEENS_6TensorIbEERKNS4_IS3_EES8_ENKUlRKS2_SA_E_clESA_SA_
FN:53,_ZNK2sb6TensorINS_3PcfIiiEEEeqIS2_Qsr3stdE24equality_comparable_withITL0__T_EEEbRKNS0_IS6_EE
FN:60,_ZZNK2sb6TensorINS_3PcfIiiEEEeqIS2_Qsr3stdE24equality_comparable_withITL0__T_EEEbRKNS0_IS6_EEENKUlRKSt6vectorImSaImEEE_clESE_
FN:108,_ZN2sb6TensorINS_3PcfIiiEEEclEm
FN:1198,_ZNK2sb6TensorINS_3PcfIiiEEE4copyEv
FN:1201,_ZZNK2sb6TensorINS_3PcfIiiEEE4copyEvENKUlRKSt6vectorImSaImEEE_clES8_
FN:1210,_ZNK2sb6TensorINS_3PcfIiiEEE7flattenEv
FN:1229,_ZNK2sb6TensorINS_3PcfIiiEEE7reshapeERKSt6vectorIlSaIlEE
FN:1369,_ZNK2sb6TensorINS_3PcfIiiEEE9transposeERKSt6vectorImSaImEE
FN:1414,_ZNK2sb6TensorINS_3PcfIiiEEE8swapaxesEmm
FN:1294,_ZNK2sb6TensorINS_3PcfIiiEEE7squeezeEv
FN:1315,_ZNK2sb6TensorINS_3PcfIiiEEE7squeezeEm
FN:1343,_ZNK2sb6TensorINS_3PcfIiiEEE11expand_dimsEl
FN:933,_ZN2sb11concatenateINS_3PcfIiiEEEENS_6TensorIT_EERKSt6vectorIS5_SaIS5_EEm
FN:967,_ZZN2sb11concatenateINS_3PcfIiiEEEENS_6TensorIT_EERKSt6vectorIS5_SaIS5_EEmENKUlRKS6_ImSaImEEE_clESE_
FN:980,_ZN2sb5stackINS_3PcfIiiEEEENS_6TensorIT_EERKSt6vectorIS5_SaIS5_EEl
FN:1048,_ZN2sb5splitINS_3PcfIiiEEEESt6vectorINS_6TensorIT_EESaIS6_EERKS6_mm
FN:1011,_ZN2sb5splitINS_3PcfIiiEEEESt6vectorINS_6TensorIT_EESaIS6_EERKS6_RKS3_ImSaImEEm
FN:1075,_ZN2sb11array_splitINS_3PcfIiiEEEESt6vectorINS_6TensorIT_EESaIS6_EERKS6_mm
FN:262,_ZNK2sb6TensorINS_3PcfIiiEEEngEvQ9CanNegateIT_E
FN:1469,_ZN2sb6TensorINS_3PcfIiiEEE5applyIZNKS3_ngEvQ9CanNegateIT_EEUlRS2_E_Qsr3stdE9invocableITL0__RS5_EEEvOS5_
FN:1470,_ZZN2sb6TensorINS_3PcfIiiEEE5applyIZNKS3_ngEvQ9CanNegateIT_EEUlRS2_E_Qsr3stdE9invocableITL0__RS5_EEEvOS5_ENKUlRKSt6vectorImSaImEEE_clESF_
FN:264,_ZZNK2sb6TensorINS_3PcfIiiEEEngEvQ9CanNegateIT_EENKUlRS2_E_clES5_
FN:446,_ZNK2sb6TensorINS_3PcfIiiEEEplERKS3_
FN:418,_ZN2sb6detail15broadcast_binopINS_3PcfIiiEEZNKS_6TensorIS3_EplERKS5_EUlRKS3_S9_E_S3_EENS4_IT1_EERKNS4_IT_EESG_T0_
FN:423,_ZZN2sb6detail15broadcast_binopINS_3PcfIiiEEZNKS_6TensorIS3_EplERKS5_EUlRKS3_S9_E_S3_EENS4_IT1_EERKNS4_IT_EESG_T0_ENKUlRKSt6vectorImSaImEEE_clESM_
FN:446,_ZZNK2sb6TensorINS_3PcfIiiEEEplERKS3_ENKUlRKS2_S7_E_clES7_S7_
FN:467,_ZN2sb6TensorINS_3PcfIiiEEEpLERKS3_
FN:431,_ZN2sb6detail23broadcast_binop_inplaceINS_3PcfIiiEEZNS_6TensorIS3_EpLERKS5_EUlRKS3_S9_E_EERNS4_IT_EESD_RKSC_T0_
FN:437,_ZZN2sb6detail23broadcast_binop_inplaceINS_3PcfIiiEEZNS_6TensorIS3_EpLERKS5_EUlRKS3_S9_E_EERNS4_IT_EESD_RKSC_T0_ENKUlRKSt6vectorImSaImEEE_clESL_
FN:467,_ZZN2sb6TensorINS_3PcfIiiEEEpLERKS3_ENKUlRKS2_S7_E_clES7_S7_
FN:450,_ZNK2sb6TensorINS_3PcfIiiEEEmiERKS3_
FN:418,_ZN2sb6detail15broadcast_binopINS_3PcfIiiEEZNKS_6TensorIS3_EmiERKS5_EUlRKS3_S9_E_S3_EENS4_IT1_EERKNS4_IT_EESG_T0_
FN:423,_ZZN2sb6detail15broadcast_binopINS_3PcfIiiEEZNKS_6TensorIS3_EmiERKS5_EUlRKS3_S9_E_S3_EENS4_IT1_EERKNS4_IT_EESG_T0_ENKUlRKSt6vectorImSaImEEE_clESM_
FN:450,_ZZNK2sb6TensorINS_3PcfIiiEEEmiERKS3_ENKUlRKS2_S7_E_clES7_S7_
FN:471,_ZN2sb6TensorINS_3PcfIiiEEEmIERKS3_
FN:431,_ZN2sb6detail23broadcast_binop_inplaceINS_3PcfIiiEEZNS_6TensorIS3_EmIERKS5_EUlRKS3_S9_E_EERNS4_IT_EESD_RKSC_T0_
FN:437,_ZZN2sb6detail23broadcast_binop_inplaceINS_3PcfIiiEEZNS_6TensorIS3_EmIERKS5_EUlRKS3_S9_E_EERNS4_IT_EESD_RKSC_T0_ENKUlRKSt6vectorImSaImEEE_clESL_
FN:471,_ZZN2sb6TensorINS_3PcfIiiEEEmIERKS3_ENKUlRKS2_S7_E_clES7_S7_
FN:454,_ZNK2sb6TensorINS_3PcfIiiEEEmlERKS3_
FN:418,_ZN2sb6detail15broadcast_binopINS_3PcfIiiEEZNKS_6TensorIS3_EmlERKS5_EUlRKS3_S9_E_S3_EENS4_IT1_EERKNS4_IT_EESG_T0_
FN:423,_ZZN2sb6detail15broadcast_binopINS_3PcfIiiEEZNKS_6TensorIS3_EmlERKS5_EUlRKS3_S9_E_S3_EENS4_IT1_EERKNS4_IT_EESG_T0_ENKUlRKSt6vectorImSaImEEE_clESM_
FN:458,_ZZNK2sb6TensorINS_3PcfIiiEEEmlERKS3_ENKUlRKS2_S7_E_clES7_S7_
FN:475,_ZN2sb6TensorINS_3PcfIiiEEEmLERKS3_
FN:431,_ZN2sb6detail23broadcast_binop_inplaceINS_3PcfIiiEEZNS_6TensorIS3_EmLERKS5_EUlRKS3_S9_E_EERNS4_IT_EESD_RKSC_T0_
FN:437,_ZZN2sb6detail23broadcast_binop_inplaceINS_3PcfIiiEEZNS_6TensorIS3_EmLERKS5_EUlRKS3_S9_E_EERNS4_IT_EESD_RKSC_T0_ENKUlRKSt6vectorImSaImEEE_clESL_
FN:475,_ZZN2sb6TensorINS_3PcfIiiEEEmLERKS3_ENKUlRKS2_S7_E_clES7_S7_
FN:463,_ZNK2sb6TensorINS_3PcfIiiEEEdvERKS3_
FN:418,_ZN2sb6detail15broadcast_binopINS_3PcfIiiEEZNKS_6TensorIS3_EdvERKS5_EUlRKS3_S9_E_S3_EENS4_IT1_EERKNS4_IT_EESG_T0_
FN:423,_ZZN2sb6detail15broadcast_binopINS_3PcfIiiEEZNKS_6TensorIS3_EdvERKS5_EUlRKS3_S9_E_S3_EENS4_IT1_EERKNS4_IT_EESG_T0_ENKUlRKSt6vectorImSaImEEE_clESM_
FN:463,_ZZNK2sb6TensorINS_3PcfIiiEEEdvERKS3_ENKUlRKS2_S7_E_clES7_S7_
FN:479,_ZN2sb6TensorINS_3PcfIiiEEEdVERKS3_
FN:431,_ZN2sb6detail23broadcast_binop_inplaceINS_3PcfIiiEEZNS_6TensorIS3_EdVERKS5_EUlRKS3_S9_E_EERNS4_IT_EESD_RKSC_T0_
FN:437,_ZZN2sb6detail23broadcast_binop_inplaceINS_3PcfIiiEEZNS_6TensorIS3_EdVERKS5_EUlRKS3_S9_E_EERNS4_IT_EESD_RKSC_T0_ENKUlRKSt6vectorImSaImEEE_clESL_
FN:479,_ZZN2sb6TensorINS_3PcfIiiEEEdVERKS3_ENKUlRKS2_S7_E_clES7_S7_
FN:519,_ZN2sb13masked_selectINS_3PcfIiiEEEENS_6TensorIT_EERKS5_RKNS3_IbEE
FN:528,_ZZN2sb13masked_selectINS_3PcfIiiEEEENS_6TensorIT_EERKS5_RKNS3_IbEEENKUlRKSt6vectorImSaImEEE_clESF_
FN:546,_ZN2sb13masked_assignINS_3PcfIiiEEEEvRNS_6TensorIT_EERKNS3_IbEERKS5_
FN:554,_ZZN2sb13masked_assignINS_3PcfIiiEEEEvRNS_6TensorIT_EERKNS3_IbEERKS5_ENKUlRKSt6vectorImSaImEEE_clESG_
FN:102,_ZNK2sb6TensorINS_3PcfIiiEEEclEm
FN:1188,_ZNK2sb6TensorINS_3PcfIiiEEE4sizeEv
FN:576,_ZN2sb11masked_fillINS_3PcfIiiEEEEvRNS_6TensorIT_EERKNS3_IbEERKS4_
FN:583,_ZZN2sb11masked_fillINS_3PcfIiiEEEEvRNS_6TensorIT_EERKNS3_IbEERKS4_ENKUlRKSt6vectorImSaImEEE_clESG_
FN:620,_ZN2sb11axis_selectINS_3PcfIiiEEEENS_6TensorIT_EERKS5_mRKNS3_IbEE
FN:634,_ZZN2sb11axis_selectINS_3PcfIiiEEEENS_6TensorIT_EERKS5_mRKNS3_IbEEENKUlRKSt6vectorImSaImEEE_clESF_
FN:645,_ZN2sb11axis_assignINS_3PcfIiiEEEEvRNS_6TensorIT_EEmRKNS3_IbEERKS5_
FN:659,_ZZN2sb11axis_assignINS_3PcfIiiEEEEvRNS_6TensorIT_EEmRKNS3_IbEERKS5_ENKUlRKSt6vectorImSaImEEE_clESG_
FN:668,_ZN2sb9axis_fillINS_3PcfIiiEEEEvRNS_6TensorIT_EEmRKNS3_IbEERKS4_
FN:671,_ZZN2sb9axis_fillINS_3PcfIiiEEEEvRNS_6TensorIT_EEmRKNS3_IbEERKS4_ENKUlRKSt6vectorImSaImEEE_clESG_
FN:703,_ZN2sb17multi_axis_selectINS_3PcfIiiEEEENS_6TensorIT_EERKS5_RKSt6vectorISt4pairImNS3_IbEEESaISB_EE
FN:711,_ZZN2sb17multi_axis_selectINS_3PcfIiiEEEENS_6TensorIT_EERKS5_RKSt6vectorISt4pairImNS3_IbEEESaISB_EEENKUlRKS8_ImSaImEEE_clESJ_
FN:743,_ZN2sb17multi_axis_assignINS_3PcfIiiEEEEvRNS_6TensorIT_EERKSt6vectorISt4pairImNS3_IbEEESaISA_EERKS5_
FN:758,_ZZN2sb17multi_axis_assignINS_3PcfIiiEEEEvRNS_6TensorIT_EERKSt6vectorISt4pairImNS3_IbEEESaISA_EERKS5_ENKUlRKS7_ImSaImEEE_clESK_
FN:725,_ZN2sb15multi_axis_fillINS_3PcfIiiEEEEvRNS_6TensorIT_EERKSt6vectorISt4pairImNS3_IbEEESaISA_EERKS4_
FN:729,_ZZN2sb15multi_axis_fillINS_3PcfIiiEEEEvRNS_6TensorIT_EERKSt6vectorISt4pairImNS3_IbEEESaISA_EERKS4_ENKUlRKS7_ImSaImEEE_clESK_
FN:830,_ZN2sb12outer_selectINS_3PcfIiiEEEENS_6TensorIT_EERKS5_RKSt6vectorISt4pairImSt7variantIJNS3_IbEENS3_IlEEEEESaISE_EE
FN:838,_ZZN2sb12outer_selectINS_3PcfIiiEEEENS_6TensorIT_EERKS5_RKSt6vectorISt4pairImSt7variantIJNS3_IbEENS3_IlEEEEESaISE_EEENKUlRKS8_ImSaImEEE_clESM_
FN:878,_ZN2sb12outer_assignINS_3PcfIiiEEEEvRNS_6TensorIT_EERKSt6vectorISt4pairImSt7variantIJNS3_IbEENS3_IlEEEEESaISD_EERKS5_
FN:893,_ZZN2sb12outer_assignINS_3PcfIiiEEEEvRNS_6TensorIT_EERKSt6vectorISt4pairImSt7variantIJNS3_IbEENS3_IlEEEEESaISD_EERKS5_ENKUlRKS7_ImSaImEEE_clESN_
FN:852,_ZN2sb10outer_fillINS_3PcfIiiEEEEvRNS_6TensorIT_EERKSt6vectorISt4pairImSt7variantIJNS3_IbEENS3_IlEEEEESaISD_EERKS4_
FN:864,_ZZN2sb10outer_fillINS_3PcfIiiEEEEvRNS_6TensorIT_EERKSt6vectorISt4pairImSt7variantIJNS3_IbEENS3_IlEEEEESaISD_EERKS4_ENKUlRKS7_ImSaImEEE_clESN_
FN:1129,_ZN2sb12index_selectINS_3PcfIiiEElEENS_6TensorIT_EERKS5_mRKNS3_IT0_EE
FN:1141,_ZZN2sb12index_selectINS_3PcfIiiEElEENS_6TensorIT_EERKS5_mRKNS3_IT0_EEENKUlRKSt6vectorImSaImEEE_clESG_
FN:1152,_ZN2sb12index_assignINS_3PcfIiiEElEEvRNS_6TensorIT_EEmRKNS3_IT0_EERKS5_
FN:1163,_ZZN2sb12index_assignINS_3PcfIiiEElEEvRNS_6TensorIT_EEmRKNS3_IT0_EERKS5_ENKUlRKSt6vectorImSaImEEE_clESH_
FN:1172,_ZN2sb10index_fillINS_3PcfIiiEElEEvRNS_6TensorIT_EEmRKNS3_IT0_EERKS4_
FN:1179,_ZZN2sb10index_fillINS_3PcfIiiEElEEvRNS_6TensorIT_EEmRKNS3_IT0_EERKS4_ENKUlRKSt6vectorImSaImEEE_clESH_
FN:232,_ZNK2sb6TensorINS_3PcfIiiEEEplIS2_Q8CanAddToIT_S5_TL0__EEES3_RKS5_
FN:220,_ZN2sb6TensorINS_3PcfIiiEEEpLIS2_Q8CanAddToIT_S5_TL0__EEERS3_RKS5_
FN:1469,_ZN2sb6TensorINS_3PcfIiiEEE5applyIZNS3_pLIS2_Q8CanAddToIT_S6_TL0__EEERS3_RKS6_EUlRS2_E_Qsr3stdE9invocableIS7_RS6_EEEvOS6_
FN:1470,_ZZN2sb6TensorINS_3PcfIiiEEE5applyIZNS3_pLIS2_Q8CanAddToIT_S6_TL0__EEERS3_RKS6_EUlRS2_E_Qsr3stdE9invocableIS7_RS6_EEEvOS6_ENKUlRKSt6vectorImSaImEEE_clESJ_
FN:221,_ZZN2sb6TensorINS_3PcfIiiEEEpLIS2_Q8CanAddToIT_S5_TL0__EEERS3_RKS5_ENKUlRS2_E_clESA_
FN:287,_ZN2sbplINS_3PcfIiiEES2_Q8CanAddToIT0_T_S3_EEENS_6TensorIS3_EERKS4_RKS6_
FN:1469,_ZN2sb6TensorINS_3PcfIiiEEE5applyIZNS_plIS2_S2_Q8CanAddToIT0_T_S6_EEENS0_IS6_EERKS7_RKS8_EUlRS2_E_Qsr3stdE9invocableITL0__RS7_EEEvOS7_
FN:1470,_ZZN2sb6TensorINS_3PcfIiiEEE5applyIZNS_plIS2_S2_Q8CanAddToIT0_T_S6_EEENS0_IS6_EERKS7_RKS8_EUlRS2_E_Qsr3stdE9invocableITL0__RS7_EEEvOS7_ENKUlRKSt6vectorImSaImEEE_clESM_
FN:289,_ZZN2sbplINS_3PcfIiiEES2_Q8CanAddToIT0_T_S3_EEENS_6TensorIS3_EERKS4_RKS6_ENKUlRS2_E_clESB_
FN:232,_ZNK2sb6TensorINS_3PcfIiiEEEplIiQ8CanAddToIT_S5_TL0__EEES3_RKS5_
FN:220,_ZN2sb6TensorINS_3PcfIiiEEEpLIiQ8CanAddToIT_S5_TL0__EEERS3_RKS5_
FN:1469,_ZN2sb6TensorINS_3PcfIiiEEE5applyIZNS3_pLIiQ8CanAddToIT_S6_TL0__EEERS3_RKS6_EUlRS2_E_Qsr3stdE9invocableIS7_RS6_EEEvOS6_
FN:1470,_ZZN2sb6TensorINS_3PcfIiiEEE5applyIZNS3_pLIiQ8CanAddToIT_S6_TL0__EEERS3_RKS6_EUlRS2_E_Qsr3stdE9invocableIS7_RS6_EEEvOS6_ENKUlRKSt6vectorImSaImEEE_clESJ_
FN:221,_ZZN2sb6TensorINS_3PcfIiiEEEpLIiQ8CanAddToIT_S5_TL0__EEERS3_RKS5_ENKUlRS2_E_clESA_
FN:287,_ZN2sbplIiNS_3PcfIiiEEQ8CanAddToIT0_T_S3_EEENS_6TensorIS3_EERKS4_RKS6_
FN:1469,_ZN2sb6TensorINS_3PcfIiiEEE5applyIZNS_plIiS2_Q8CanAddToIT0_T_S6_EEENS0_IS6_EERKS7_RKS8_EUlRS2_E_Qsr3stdE9invocableITL0__RS7_EEEvOS7_
FN:1470,_ZZN2sb6TensorINS_3PcfIiiEEE5applyIZNS_plIiS2_Q8CanAddToIT0_T_S6_EEENS0_IS6_EERKS7_RKS8_EUlRS2_E_Qsr3stdE9invocableITL0__RS7_EEEvOS7_ENKUlRKSt6vectorImSaImEEE_clESM_
FN:289,_ZZN2sbplIiNS_3PcfIiiEEQ8CanAddToIT0_T_S3_EEENS_6TensorIS3_EERKS4_RKS6_ENKUlRS2_E_clESB_
FN:254,_ZNK2sb6TensorINS_3PcfIiiEEEmiIS2_Q13CanSubtractToIT_S5_TL0__EEES3_RKS5_
FN:242,_ZN2sb6TensorINS_3PcfIiiEEEmIIS2_Q13CanSubtractToIT_S5_TL0__EEERS3_RKS5_
FN:1469,_ZN2sb6TensorINS_3PcfIiiEEE5applyIZNS3_mIIS2_Q13CanSubtractToIT_S6_TL0__EEERS3_RKS6_EUlRS2_E_Qsr3stdE9invocableIS7_RS6_EEEvOS6_
FN:1470,_ZZN2sb6TensorINS_3PcfIiiEEE5applyIZNS3_mIIS2_Q13CanSubtractToIT_S6_TL0__EEERS3_RKS6_EUlRS2_E_Qsr3stdE9invocableIS7_RS6_EEEvOS6_ENKUlRKSt6vectorImSaImEEE_clESJ_
FN:243,_ZZN2sb6TensorINS_3PcfIiiEEEmIIS2_Q13CanSubtractToIT_S5_TL0__EEERS3_RKS5_ENKUlRS2_E_clESA_
FN:298,_ZN2sbmiINS_3PcfIiiEES2_Q13CanSubtractToIT0_T_S3_EEENS_6TensorIS3_EERKS4_RKS6_
FN:1469,_ZN2sb6TensorINS_3PcfIiiEEE5applyIZNS_miIS2_S2_Q13CanSubtractToIT0_T_S6_EEENS0_IS6_EERKS7_RKS8_EUlRS2_E_Qsr3stdE9invocableITL0__RS7_EEEvOS7_
FN:1470,_ZZN2sb6TensorINS_3PcfIiiEEE5applyIZNS_miIS2_S2_Q13CanSubtractToIT0_T_S6_EEENS0_IS6_EERKS7_RKS8_EUlRS2_E_Qsr3stdE9invocableITL0__RS7_EEEvOS7_ENKUlRKSt6vectorImSaImEEE_clESM_
FN:300,_ZZN2sbmiINS_3PcfIiiEES2_Q13CanSubtractToIT0_T_S3_EEENS_6TensorIS3_EERKS4_RKS6_ENKUlRS2_E_clESB_
FN:254,_ZNK2sb6TensorINS_3PcfIiiEEEmiIiQ13CanSubtractToIT_S5_TL0__EEES3_RKS5_
FN:242,_ZN2sb6TensorINS_3PcfIiiEEEmIIiQ13CanSubtractToIT_S5_TL0__EEERS3_RKS5_
FN:1469,_ZN2sb6TensorINS_3PcfIiiEEE5applyIZNS3_mIIiQ13CanSubtractToIT_S6_TL0__EEERS3_RKS6_EUlRS2_E_Qsr3stdE9invocableIS7_RS6_EEEvOS6_
FN:1470,_ZZN2sb6TensorINS_3PcfIiiEEE5applyIZNS3_mIIiQ13CanSubtractToIT_S6_TL0__EEERS3_RKS6_EUlRS2_E_Qsr3stdE9invocableIS7_RS6_EEEvOS6_ENKUlRKSt6vectorImSaImEEE_clESJ_
FN:243,_ZZN2sb6TensorINS_3PcfIiiEEEmIIiQ13CanSubtractToIT_S5_TL0__EEERS3_RKS5_ENKUlRS2_E_clESA_
FN:298,_ZN2sbmiIiNS_3PcfIiiEEQ13CanSubtractToIT0_T_S3_EEENS_6TensorIS3_EERKS4_RKS6_
FN:1469,_ZN2sb6TensorINS_3PcfIiiEEE5applyIZNS_miIiS2_Q13CanSubtractToIT0_T_S6_EEENS0_IS6_EERKS7_RKS8_EUlRS2_E_Qsr3stdE9invocableITL0__RS7_EEEvOS7_
FN:1470,_ZZN2sb6TensorINS_3PcfIiiEEE5applyIZNS_miIiS2_Q13CanSubtractToIT0_T_S6_EEENS0_IS6_EERKS7_RKS8_EUlRS2_E_Qsr3stdE9invocableITL0__RS7_EEEvOS7_ENKUlRKSt6vectorImSaImEEE_clESM_
FN:300,_ZZN2sbmiIiNS_3PcfIiiEEQ13CanSubtractToIT0_T_S3_EEENS_6TensorIS3_EERKS4_RKS6_ENKUlRS2_E_clESB_
FN:210,_ZNK2sb6TensorINS_3PcfIiiEEEmlIiQ13CanMultiplyToIT_S5_TL0__EEES3_RKS5_
FN:195,_ZN2sb6TensorINS_3PcfIiiEEEmLIiQ13CanMultiplyToIT_S5_TL0__EEERS3_RKS5_
FN:1469,_ZN2sb6TensorINS_3PcfIiiEEE5applyIZNS3_mLIiQ13CanMultiplyToIT_S6_TL0__EEERS3_RKS6_EUlRS2_E_Qsr3stdE9invocableIS7_RS6_EEEvOS6_
FN:1470,_ZZN2sb6TensorINS_3PcfIiiEEE5applyIZNS3_mLIiQ13CanMultiplyToIT_S6_TL0__EEERS3_RKS6_EUlRS2_E_Qsr3stdE9invocableIS7_RS6_EEEvOS6_ENKUlRKSt6vectorImSaImEEE_clESJ_
FN:196,_ZZN2sb6TensorINS_3PcfIiiEEEmLIiQ13CanMultiplyToIT_S5_TL0__EEERS3_RKS5_ENKUlRS2_E_clESA_
FN:273,_ZN2sbmlIiNS_3PcfIiiEEQ13CanMultiplyToIT0_T_S3_EEENS_6TensorIS3_EERKS4_RKS6_
FN:1469,_ZN2sb6TensorINS_3PcfIiiEEE5applyIZNS_mlIiS2_Q13CanMultiplyToIT0_T_S6_EEENS0_IS6_EERKS7_RKS8_EUlRS2_E_Qsr3stdE9invocableITL0__RS7_EEEvOS7_
FN:1470,_ZZN2sb6TensorINS_3PcfIiiEEE5applyIZNS_mlIiS2_Q13CanMultiplyToIT0_T_S6_EEENS0_IS6_EERKS7_RKS8_EUlRS2_E_Qsr3stdE9invocableITL0__RS7_EEEvOS7_ENKUlRKSt6vectorImSaImEEE_clESM_
FN:275,_ZZN2sbmlIiNS_3PcfIiiEEQ13CanMultiplyToIT0_T_S3_EEENS_6TensorIS3_EERKS4_RKS6_ENKUlRS2_E_clESB_
FN:185,_ZNK2sb6TensorINS_3PcfIiiEEEdvIiQ11CanDivideToIT_S5_TL0__EEES3_RKS5_
FN:173,_ZN2sb6TensorINS_3PcfIiiEEEdVIiQ11CanDivideToIT_S5_TL0__EEERS3_RKS5_
FN:1469,_ZN2sb6TensorINS_3PcfIiiEEE5applyIZNS3_dVIiQ11CanDivideToIT_S6_TL0__EEERS3_RKS6_EUlRS2_E_Qsr3stdE9invocableIS7_RS6_EEEvOS6_
FN:1470,_ZZN2sb6TensorINS_3PcfIiiEEE5applyIZNS3_dVIiQ11CanDivideToIT_S6_TL0__EEERS3_RKS6_EUlRS2_E_Qsr3stdE9invocableIS7_RS6_EEEvOS6_ENKUlRKSt6vectorImSaImEEE_clESJ_
FN:174,_ZZN2sb6TensorINS_3PcfIiiEEEdVIiQ11CanDivideToIT_S5_TL0__EEERS3_RKS5_ENKUlRS2_E_clESA_
FN:309,_ZN2sbdvIiNS_3PcfIiiEEQ11CanDivideToIT0_T_S3_EEENS_6TensorIS3_EERKS4_RKS6_
FN:1469,_ZN2sb6TensorINS_3PcfIiiEEE5applyIZNS_dvIiS2_Q11CanDivideToIT0_T_S6_EEENS0_IS6_EERKS7_RKS8_EUlRS2_E_Qsr3stdE9invocableITL0__RS7_EEEvOS7_
FN:1470,_ZZN2sb6TensorINS_3PcfIiiEEE5applyIZNS_dvIiS2_Q11CanDivideToIT0_T_S6_EEENS0_IS6_EERKS7_RKS8_EUlRS2_E_Qsr3stdE9invocableITL0__RS7_EEEvOS7_ENKUlRKSt6vectorImSaImEEE_clESM_
FN:311,_ZZN2sbdvIiNS_3PcfIiiEEQ11CanDivideToIT0_T_S3_EEENS_6TensorIS3_EERKS4_RKS6_ENKUlRS2_E_clESB_
FN:331,_ZN2sb3powINS_3PcfIiiEEiQ6CanPowIT_T0_EEENS_6TensorIS3_EERKS6_S4_
FN:1469,_ZN2sb6TensorINS_3PcfIiiEEE5applyIZNS_3powIS2_iQ6CanPowIT_T0_EEENS0_IS6_EERKS8_S7_EUlRS2_E_Qsr3stdE9invocableITL0__RS6_EEEvOS6_
FN:1470,_ZZN2sb6TensorINS_3PcfIiiEEE5applyIZNS_3powIS2_iQ6CanPowIT_T0_EEENS0_IS6_EERKS8_S7_EUlRS2_E_Qsr3stdE9invocableITL0__RS6_EEEvOS6_ENKUlRKSt6vectorImSaImEEE_clESK_
FN:333,_ZZN2sb3powINS_3PcfIiiEEiQ6CanPowIT_T0_EEENS_6TensorIS3_EERKS6_S4_ENKUlRS2_E_clES9_
FN:1432,_ZNK2sb6TensorINS_3PcfIiiEEE6any_ofIZZN5sb_py30register_typed_tensor_bindingsIS2_EEvRN8pybind117module_ERKNSt7__cxx1112basic_stringIcSt11char_traitsIcESaIcEEESH_ENKUlRKS3_iE7_clESJ_iEUlRKS2_E_Qsr3stdE9invocableITL0__RKT_EEEbOSP_
FN:1664,_ZN2sb6any_ofINS_3PcfIiiEEZZN5sb_py30register_typed_tensor_bindingsIS2_EEvRN8pybind117module_ERKNSt7__cxx1112basic_stringIcSt11char_traitsIcESaIcEEESF_ENKUlRKNS_6TensorIS2_EEiE7_clESJ_iEUlRKS2_E_Qsr3stdE9invocableIT0_RKT_EEEbRKNSG_ISP_EEOSO_
FN:1666,_ZZN2sb6any_ofINS_3PcfIiiEEZZN5sb_py30register_typed_tensor_bindingsIS2_EEvRN8pybind117module_ERKNSt7__cxx1112basic_stringIcSt11char_traitsIcESaIcEEESF_ENKUlRKNS_6TensorIS2_EEiE7_clESJ_iEUlRKS2_E_Qsr3stdE9invocableIT0_RKT_EEEbRKNSG_ISP_EEOSO_ENKUlRKSt6vectorImSaImEEE_clES10_
FN:350,_ZN2sb4ipowINS_3PcfIiiEEiQ6CanPowIT_T0_EEEvRNS_6TensorIS3_EES4_
FN:1469,_ZN2sb6TensorINS_3PcfIiiEEE5applyIZNS_4ipowIS2_iQ6CanPowIT_T0_EEEvRNS0_IS6_EES7_EUlRS2_E_Qsr3stdE9invocableITL0__RS6_EEEvOS6_
FN:1470,_ZZN2sb6TensorINS_3PcfIiiEEE5applyIZNS_4ipowIS2_iQ6CanPowIT_T0_EEEvRNS0_IS6_EES7_EUlRS2_E_Qsr3stdE9invocableITL0__RS6_EEEvOS6_ENKUlRKSt6vectorImSaImEEE_clESJ_
FN:351,_ZZN2sb4ipowINS_3PcfIiiEEiQ6CanPowIT_T0_EEEvRNS_6TensorIS3_EES4_ENKUlRS2_E_clES8_
FN:84,_ZNK2sb6TensorINS_3PcfIllEEEixISt6vectorISt7variantIJNS_10SliceIndexENS_10SliceRangeEEESaIS9_EEEES3_T_
FN:1476,_ZNK2sb6TensorINS_3PcfIllEEE7extractISt6vectorISt7variantIJNS_10SliceIndexENS_10SliceRangeEEESaIS9_EEEES3_T_
FN:1499,_ZZNK2sb6TensorINS_3PcfIllEEE7extractISt6vectorISt7variantIJNS_10SliceIndexENS_10SliceRangeEEESaIS9_EEEES3_T_ENKUlOSC_E_clIRS7_EEDaSD_
FN:1499,_ZZNK2sb6TensorINS_3PcfIllEEE7extractISt6vectorISt7variantIJNS_10SliceIndexENS_10SliceRangeEEESaIS9_EEEES3_T_ENKUlOSC_E_clIRS8_EEDaSD_
FN:128,_ZN2sb6TensorINS_3PcfIllEEE11assign_fromIS2_Qsr3stdE18is_constructible_vIT_TL0__EEEvRKNS0_IS5_EE
FN:362,_ZNK2sb6TensorINS_3PcfIllEEE12broadcast_toERKSt6vectorImSaImEE
FN:152,_ZZN2sb6TensorINS_3PcfIllEEE11assign_fromIS2_Qsr3stdE18is_constructible_vIT_TL0__EEEvRKNS0_IS5_EEENKUlRKSt6vectorImSaImEEE_clESE_
FN:162,_ZZN2sb6TensorINS_3PcfIllEEE11assign_fromIS2_Qsr3stdE18is_constructible_vIT_TL0__EEEvRKNS0_IS5_EEENKUlRKSt6vectorImSaImEEE0_clESE_
FN:486,_ZN2sb14elementwise_eqINS_3PcfIllEEQsr3stdE19equality_comparableIT_EEENS_6TensorIbEERKNS4_IS3_EES8_
FN:418,_ZN2sb6detail15broadcast_binopINS_3PcfIllEEZNS_14elementwise_eqIS3_Qsr3stdE19equality_comparableIT_EEENS_6TensorIbEERKNS6_IS5_EESA_EUlRKS3_SC_E_bEENS6_IT1_EESA_SA_T0_
FN:423,_ZZN2sb6detail15broadcast_binopINS_3PcfIllEEZNS_14elementwise_eqIS3_Qsr3stdE19equality_comparableIT_EEENS_6TensorIbEERKNS6_IS5_EESA_EUlRKS3_SC_E_bEENS6_IT1_EESA_SA_T0_ENKUlRKSt6vectorImSaImEEE_clESL_
FN:486,_ZZN2sb14elementwise_eqINS_3PcfIllEEQsr3stdE19equality_comparableIT_EEENS_6TensorIbEERKNS4_IS3_EES8_ENKUlRKS2_SA_E_clESA_SA_
FN:491,_ZN2sb14elementwise_neINS_3PcfIllEEQsr3stdE19equality_comparableIT_EEENS_6TensorIbEERKNS4_IS3_EES8_
FN:418,_ZN2sb6detail15broadcast_binopINS_3PcfIllEEZNS_14elementwise_neIS3_Qsr3stdE19equality_comparableIT_EEENS_6TensorIbEERKNS6_IS5_EESA_EUlRKS3_SC_E_bEENS6_IT1_EESA_SA_T0_
FN:423,_ZZN2sb6detail15broadcast_binopINS_3PcfIllEEZNS_14elementwise_neIS3_Qsr3stdE19equality_comparableIT_EEENS_6TensorIbEERKNS6_IS5_EESA_EUlRKS3_SC_E_bEENS6_IT1_EESA_SA_T0_ENKUlRKSt6vectorImSaImEEE_clESL_
FN:491,_ZZN2sb14elementwise_neINS_3PcfIllEEQsr3stdE19equality_comparableIT_EEENS_6TensorIbEERKNS4_IS3_EES8_ENKUlRKS2_SA_E_clESA_SA_
FN:53,_ZNK2sb6TensorINS_3PcfIllEEEeqIS2_Qsr3stdE24equality_comparable_withITL0__T_EEEbRKNS0_IS6_EE
FN:60,_ZZNK2sb6TensorINS_3PcfIllEEEeqIS2_Qsr3stdE24equality_comparable_withITL0__T_EEEbRKNS0_IS6_EEENKUlRKSt6vectorImSaImEEE_clESE_
FN:108,_ZN2sb6TensorINS_3PcfIllEEEclEm
FN:1198,_ZNK2sb6TensorINS_3PcfIllEEE4copyEv
FN:1201,_ZZNK2sb6TensorINS_3PcfIllEEE4copyEvENKUlRKSt6vectorImSaImEEE_clES8_
FN:1210,_ZNK2sb6TensorINS_3PcfIllEEE7flattenEv
FN:1229,_ZNK2sb6TensorINS_3PcfIllEEE7reshapeERKSt6vectorIlSaIlEE
FN:1369,_ZNK2sb6TensorINS_3PcfIllEEE9transposeERKSt6vectorImSaImEE
FN:1414,_ZNK2sb6TensorINS_3PcfIllEEE8swapaxesEmm
FN:1294,_ZNK2sb6TensorINS_3PcfIllEEE7squeezeEv
FN:1315,_ZNK2sb6TensorINS_3PcfIllEEE7squeezeEm
FN:1343,_ZNK2sb6TensorINS_3PcfIllEEE11expand_dimsEl
FN:933,_ZN2sb11concatenateINS_3PcfIllEEEENS_6TensorIT_EERKSt6vectorIS5_SaIS5_EEm
FN:967,_ZZN2sb11concatenateINS_3PcfIllEEEENS_6TensorIT_EERKSt6vectorIS5_SaIS5_EEmENKUlRKS6_ImSaImEEE_clESE_
FN:980,_ZN2sb5stackINS_3PcfIllEEEENS_6TensorIT_EERKSt6vectorIS5_SaIS5_EEl
FN:1048,_ZN2sb5splitINS_3PcfIllEEEESt6vectorINS_6TensorIT_EESaIS6_EERKS6_mm
FN:1011,_ZN2sb5splitINS_3PcfIllEEEESt6vectorINS_6TensorIT_EESaIS6_EERKS6_RKS3_ImSaImEEm
FN:1075,_ZN2sb11array_splitINS_3PcfIllEEEESt6vectorINS_6TensorIT_EESaIS6_EERKS6_mm
FN:262,_ZNK2sb6TensorINS_3PcfIllEEEngEvQ9CanNegateIT_E
FN:1469,_ZN2sb6TensorINS_3PcfIllEEE5applyIZNKS3_ngEvQ9CanNegateIT_EEUlRS2_E_Qsr3stdE9invocableITL0__RS5_EEEvOS5_
FN:1470,_ZZN2sb6TensorINS_3PcfIllEEE5applyIZNKS3_ngEvQ9CanNegateIT_EEUlRS2_E_Qsr3stdE9invocableITL0__RS5_EEEvOS5_ENKUlRKSt6vectorImSaImEEE_clESF_
FN:264,_ZZNK2sb6TensorINS_3PcfIllEEEngEvQ9CanNegateIT_EENKUlRS2_E_clES5_
FN:446,_ZNK2sb6TensorINS_3PcfIllEEEplERKS3_
FN:418,_ZN2sb6detail15broadcast_binopINS_3PcfIllEEZNKS_6TensorIS3_EplERKS5_EUlRKS3_S9_E_S3_EENS4_IT1_EERKNS4_IT_EESG_T0_
FN:423,_ZZN2sb6detail15broadcast_binopINS_3PcfIllEEZNKS_6TensorIS3_EplERKS5_EUlRKS3_S9_E_S3_EENS4_IT1_EERKNS4_IT_EESG_T0_ENKUlRKSt6vectorImSaImEEE_clESM_
FN:446,_ZZNK2sb6TensorINS_3PcfIllEEEplERKS3_ENKUlRKS2_S7_E_clES7_S7_
FN:467,_ZN2sb6TensorINS_3PcfIllEEEpLERKS3_
FN:431,_ZN2sb6detail23broadcast_binop_inplaceINS_3PcfIllEEZNS_6TensorIS3_EpLERKS5_EUlRKS3_S9_E_EERNS4_IT_EESD_RKSC_T0_
FN:437,_ZZN2sb6detail23broadcast_binop_inplaceINS_3PcfIllEEZNS_6TensorIS3_EpLERKS5_EUlRKS3_S9_E_EERNS4_IT_EESD_RKSC_T0_ENKUlRKSt6vectorImSaImEEE_clESL_
FN:467,_ZZN2sb6TensorINS_3PcfIllEEEpLERKS3_ENKUlRKS2_S7_E_clES7_S7_
FN:450,_ZNK2sb6TensorINS_3PcfIllEEEmiERKS3_
FN:418,_ZN2sb6detail15broadcast_binopINS_3PcfIllEEZNKS_6TensorIS3_EmiERKS5_EUlRKS3_S9_E_S3_EENS4_IT1_EERKNS4_IT_EESG_T0_
FN:423,_ZZN2sb6detail15broadcast_binopINS_3PcfIllEEZNKS_6TensorIS3_EmiERKS5_EUlRKS3_S9_E_S3_EENS4_IT1_EERKNS4_IT_EESG_T0_ENKUlRKSt6vectorImSaImEEE_clESM_
FN:450,_ZZNK2sb6TensorINS_3PcfIllEEEmiERKS3_ENKUlRKS2_S7_E_clES7_S7_
FN:471,_ZN2sb6TensorINS_3PcfIllEEEmIERKS3_
FN:431,_ZN2sb6detail23broadcast_binop_inplaceINS_3PcfIllEEZNS_6TensorIS3_EmIERKS5_EUlRKS3_S9_E_EERNS4_IT_EESD_RKSC_T0_
FN:437,_ZZN2sb6detail23broadcast_binop_inplaceINS_3PcfIllEEZNS_6TensorIS3_EmIERKS5_EUlRKS3_S9_E_EERNS4_IT_EESD_RKSC_T0_ENKUlRKSt6vectorImSaImEEE_clESL_
FN:471,_ZZN2sb6TensorINS_3PcfIllEEEmIERKS3_ENKUlRKS2_S7_E_clES7_S7_
FN:454,_ZNK2sb6TensorINS_3PcfIllEEEmlERKS3_
FN:418,_ZN2sb6detail15broadcast_binopINS_3PcfIllEEZNKS_6TensorIS3_EmlERKS5_EUlRKS3_S9_E_S3_EENS4_IT1_EERKNS4_IT_EESG_T0_
FN:423,_ZZN2sb6detail15broadcast_binopINS_3PcfIllEEZNKS_6TensorIS3_EmlERKS5_EUlRKS3_S9_E_S3_EENS4_IT1_EERKNS4_IT_EESG_T0_ENKUlRKSt6vectorImSaImEEE_clESM_
FN:458,_ZZNK2sb6TensorINS_3PcfIllEEEmlERKS3_ENKUlRKS2_S7_E_clES7_S7_
FN:475,_ZN2sb6TensorINS_3PcfIllEEEmLERKS3_
FN:431,_ZN2sb6detail23broadcast_binop_inplaceINS_3PcfIllEEZNS_6TensorIS3_EmLERKS5_EUlRKS3_S9_E_EERNS4_IT_EESD_RKSC_T0_
FN:437,_ZZN2sb6detail23broadcast_binop_inplaceINS_3PcfIllEEZNS_6TensorIS3_EmLERKS5_EUlRKS3_S9_E_EERNS4_IT_EESD_RKSC_T0_ENKUlRKSt6vectorImSaImEEE_clESL_
FN:475,_ZZN2sb6TensorINS_3PcfIllEEEmLERKS3_ENKUlRKS2_S7_E_clES7_S7_
FN:463,_ZNK2sb6TensorINS_3PcfIllEEEdvERKS3_
FN:418,_ZN2sb6detail15broadcast_binopINS_3PcfIllEEZNKS_6TensorIS3_EdvERKS5_EUlRKS3_S9_E_S3_EENS4_IT1_EERKNS4_IT_EESG_T0_
FN:423,_ZZN2sb6detail15broadcast_binopINS_3PcfIllEEZNKS_6TensorIS3_EdvERKS5_EUlRKS3_S9_E_S3_EENS4_IT1_EERKNS4_IT_EESG_T0_ENKUlRKSt6vectorImSaImEEE_clESM_
FN:463,_ZZNK2sb6TensorINS_3PcfIllEEEdvERKS3_ENKUlRKS2_S7_E_clES7_S7_
FN:479,_ZN2sb6TensorINS_3PcfIllEEEdVERKS3_
FN:431,_ZN2sb6detail23broadcast_binop_inplaceINS_3PcfIllEEZNS_6TensorIS3_EdVERKS5_EUlRKS3_S9_E_EERNS4_IT_EESD_RKSC_T0_
FN:437,_ZZN2sb6detail23broadcast_binop_inplaceINS_3PcfIllEEZNS_6TensorIS3_EdVERKS5_EUlRKS3_S9_E_EERNS4_IT_EESD_RKSC_T0_ENKUlRKSt6vectorImSaImEEE_clESL_
FN:479,_ZZN2sb6TensorINS_3PcfIllEEEdVERKS3_ENKUlRKS2_S7_E_clES7_S7_
FN:519,_ZN2sb13masked_selectINS_3PcfIllEEEENS_6TensorIT_EERKS5_RKNS3_IbEE
FN:528,_ZZN2sb13masked_selectINS_3PcfIllEEEENS_6TensorIT_EERKS5_RKNS3_IbEEENKUlRKSt6vectorImSaImEEE_clESF_
FN:546,_ZN2sb13masked_assignINS_3PcfIllEEEEvRNS_6TensorIT_EERKNS3_IbEERKS5_
FN:554,_ZZN2sb13masked_assignINS_3PcfIllEEEEvRNS_6TensorIT_EERKNS3_IbEERKS5_ENKUlRKSt6vectorImSaImEEE_clESG_
FN:102,_ZNK2sb6TensorINS_3PcfIllEEEclEm
FN:1188,_ZNK2sb6TensorINS_3PcfIllEEE4sizeEv
FN:576,_ZN2sb11masked_fillINS_3PcfIllEEEEvRNS_6TensorIT_EERKNS3_IbEERKS4_
FN:583,_ZZN2sb11masked_fillINS_3PcfIllEEEEvRNS_6TensorIT_EERKNS3_IbEERKS4_ENKUlRKSt6vectorImSaImEEE_clESG_
FN:620,_ZN2sb11axis_selectINS_3PcfIllEEEENS_6TensorIT_EERKS5_mRKNS3_IbEE
FN:634,_ZZN2sb11axis_selectINS_3PcfIllEEEENS_6TensorIT_EERKS5_mRKNS3_IbEEENKUlRKSt6vectorImSaImEEE_clESF_
FN:645,_ZN2sb11axis_assignINS_3PcfIllEEEEvRNS_6TensorIT_EEmRKNS3_IbEERKS5_
FN:659,_ZZN2sb11axis_assignINS_3PcfIllEEEEvRNS_6TensorIT_EEmRKNS3_IbEERKS5_ENKUlRKSt6vectorImSaImEEE_clESG_
FN:668,_ZN2sb9axis_fillINS_3PcfIllEEEEvRNS_6TensorIT_EEmRKNS3_IbEERKS4_
FN:671,_ZZN2sb9axis_fillINS_3PcfIllEEEEvRNS_6TensorIT_EEmRKNS3_IbEERKS4_ENKUlRKSt6vectorImSaImEEE_clESG_
FN:703,_ZN2sb17multi_axis_selectINS_3PcfIllEEEENS_6TensorIT_EERKS5_RKSt6vectorISt4pairImNS3_IbEEESaISB_EE
FN:711,_ZZN2sb17multi_axis_selectINS_3PcfIllEEEENS_6TensorIT_EERKS5_RKSt6vectorISt4pairImNS3_IbEEESaISB_EEENKUlRKS8_ImSaImEEE_clESJ_
FN:743,_ZN2sb17multi_axis_assignINS_3PcfIllEEEEvRNS_6TensorIT_EERKSt6vectorISt4pairImNS3_IbEEESaISA_EERKS5_
FN:758,_ZZN2sb17multi_axis_assignINS_3PcfIllEEEEvRNS_6TensorIT_EERKSt6vectorISt4pairImNS3_IbEEESaISA_EERKS5_ENKUlRKS7_ImSaImEEE_clESK_
FN:725,_ZN2sb15multi_axis_fillINS_3PcfIllEEEEvRNS_6TensorIT_EERKSt6vectorISt4pairImNS3_IbEEESaISA_EERKS4_
FN:729,_ZZN2sb15multi_axis_fillINS_3PcfIllEEEEvRNS_6TensorIT_EERKSt6vectorISt4pairImNS3_IbEEESaISA_EERKS4_ENKUlRKS7_ImSaImEEE_clESK_
FN:830,_ZN2sb12outer_selectINS_3PcfIllEEEENS_6TensorIT_EERKS5_RKSt6vectorISt4pairImSt7variantIJNS3_IbEENS3_IlEEEEESaISE_EE
FN:838,_ZZN2sb12outer_selectINS_3PcfIllEEEENS_6TensorIT_EERKS5_RKSt6vectorISt4pairImSt7variantIJNS3_IbEENS3_IlEEEEESaISE_EEENKUlRKS8_ImSaImEEE_clESM_
FN:878,_ZN2sb12outer_assignINS_3PcfIllEEEEvRNS_6TensorIT_EERKSt6vectorISt4pairImSt7variantIJNS3_IbEENS3_IlEEEEESaISD_EERKS5_
FN:893,_ZZN2sb12outer_assignINS_3PcfIllEEEEvRNS_6TensorIT_EERKSt6vectorISt4pairImSt7variantIJNS3_IbEENS3_IlEEEEESaISD_EERKS5_ENKUlRKS7_ImSaImEEE_clESN_
FN:852,_ZN2sb10outer_fillINS_3PcfIllEEEEvRNS_6TensorIT_EERKSt6vectorISt4pairImSt7variantIJNS3_IbEENS3_IlEEEEESaISD_EERKS4_
FN:864,_ZZN2sb10outer_fillINS_3PcfIllEEEEvRNS_6TensorIT_EERKSt6vectorISt4pairImSt7variantIJNS3_IbEENS3_IlEEEEESaISD_EERKS4_ENKUlRKS7_ImSaImEEE_clESN_
FN:1129,_ZN2sb12index_selectINS_3PcfIllEElEENS_6TensorIT_EERKS5_mRKNS3_IT0_EE
FN:1141,_ZZN2sb12index_selectINS_3PcfIllEElEENS_6TensorIT_EERKS5_mRKNS3_IT0_EEENKUlRKSt6vectorImSaImEEE_clESG_
FN:1152,_ZN2sb12index_assignINS_3PcfIllEElEEvRNS_6TensorIT_EEmRKNS3_IT0_EERKS5_
FN:1163,_ZZN2sb12index_assignINS_3PcfIllEElEEvRNS_6TensorIT_EEmRKNS3_IT0_EERKS5_ENKUlRKSt6vectorImSaImEEE_clESH_
FN:1172,_ZN2sb10index_fillINS_3PcfIllEElEEvRNS_6TensorIT_EEmRKNS3_IT0_EERKS4_
FN:1179,_ZZN2sb10index_fillINS_3PcfIllEElEEvRNS_6TensorIT_EEmRKNS3_IT0_EERKS4_ENKUlRKSt6vectorImSaImEEE_clESH_
FN:232,_ZNK2sb6TensorINS_3PcfIllEEEplIS2_Q8CanAddToIT_S5_TL0__EEES3_RKS5_
FN:220,_ZN2sb6TensorINS_3PcfIllEEEpLIS2_Q8CanAddToIT_S5_TL0__EEERS3_RKS5_
FN:1469,_ZN2sb6TensorINS_3PcfIllEEE5applyIZNS3_pLIS2_Q8CanAddToIT_S6_TL0__EEERS3_RKS6_EUlRS2_E_Qsr3stdE9invocableIS7_RS6_EEEvOS6_
FN:1470,_ZZN2sb6TensorINS_3PcfIllEEE5applyIZNS3_pLIS2_Q8CanAddToIT_S6_TL0__EEERS3_RKS6_EUlRS2_E_Qsr3stdE9invocableIS7_RS6_EEEvOS6_ENKUlRKSt6vectorImSaImEEE_clESJ_
FN:221,_ZZN2sb6TensorINS_3PcfIllEEEpLIS2_Q8CanAddToIT_S5_TL0__EEERS3_RKS5_ENKUlRS2_E_clESA_
FN:287,_ZN2sbplINS_3PcfIllEES2_Q8CanAddToIT0_T_S3_EEENS_6TensorIS3_EERKS4_RKS6_
FN:1469,_ZN2sb6TensorINS_3PcfIllEEE5applyIZNS_plIS2_S2_Q8CanAddToIT0_T_S6_EEENS0_IS6_EERKS7_RKS8_EUlRS2_E_Qsr3stdE9invocableITL0__RS7_EEEvOS7_
FN:1470,_ZZN2sb6TensorINS_3PcfIllEEE5applyIZNS_plIS2_S2_Q8CanAddToIT0_T_S6_EEENS0_IS6_EERKS7_RKS8_EUlRS2_E_Qsr3stdE9invocableITL0__RS7_EEEvOS7_ENKUlRKSt6vectorImSaImEEE_clESM_
FN:289,_ZZN2sbplINS_3PcfIllEES2_Q8CanAddToIT0_T_S3_EEENS_6TensorIS3_EERKS4_RKS6_ENKUlRS2_E_clESB_
FN:232,_ZNK2sb6TensorINS_3PcfIllEEEplIlQ8CanAddToIT_S5_TL0__EEES3_RKS5_
FN:220,_ZN2sb6TensorINS_3PcfIllEEEpLIlQ8CanAddToIT_S5_TL0__EEERS3_RKS5_
FN:1469,_ZN2sb6TensorINS_3PcfIllEEE5applyIZNS3_pLIlQ8CanAddToIT_S6_TL0__EEERS3_RKS6_EUlRS2_E_Qsr3stdE9invocableIS7_RS6_EEEvOS6_
FN:1470,_ZZN2sb6TensorINS_3PcfIllEEE5applyIZNS3_pLIlQ8CanAddToIT_S6_TL0__EEERS3_RKS6_EUlRS2_E_Qsr3stdE9invocableIS7_RS6_EEEvOS6_ENKUlRKSt6vectorImSaImEEE_clESJ_
FN:221,_ZZN2sb6TensorINS_3PcfIllEEEpLIlQ8CanAddToIT_S5_TL0__EEERS3_RKS5_ENKUlRS2_E_clESA_
FN:287,_ZN2sbplIlNS_3PcfIllEEQ8CanAddToIT0_T_S3_EEENS_6TensorIS3_EERKS4_RKS6_
FN:1469,_ZN2sb6TensorINS_3PcfIllEEE5applyIZNS_plIlS2_Q8CanAddToIT0_T_S6_EEENS0_IS6_EERKS7_RKS8_EUlRS2_E_Qsr3stdE9invocableITL0__RS7_EEEvOS7_
FN:1470,_ZZN2sb6TensorINS_3PcfIllEEE5applyIZNS_plIlS2_Q8CanAddToIT0_T_S6_EEENS0_IS6_EERKS7_RKS8_EUlRS2_E_Qsr3stdE9invocableITL0__RS7_EEEvOS7_ENKUlRKSt6vectorImSaImEEE_clESM_
FN:289,_ZZN2sbplIlNS_3PcfIllEEQ8CanAddToIT0_T_S3_EEENS_6TensorIS3_EERKS4_RKS6_ENKUlRS2_E_clESB_
FN:254,_ZNK2sb6TensorINS_3PcfIllEEEmiIS2_Q13CanSubtractToIT_S5_TL0__EEES3_RKS5_
FN:242,_ZN2sb6TensorINS_3PcfIllEEEmIIS2_Q13CanSubtractToIT_S5_TL0__EEERS3_RKS5_
FN:1469,_ZN2sb6TensorINS_3PcfIllEEE5applyIZNS3_mIIS2_Q13CanSubtractToIT_S6_TL0__EEERS3_RKS6_EUlRS2_E_Qsr3stdE9invocableIS7_RS6_EEEvOS6_
FN:1470,_ZZN2sb6TensorINS_3PcfIllEEE5applyIZNS3_mIIS2_Q13CanSubtractToIT_S6_TL0__EEERS3_RKS6_EUlRS2_E_Qsr3stdE9invocableIS7_RS6_EEEvOS6_ENKUlRKSt6vectorImSaImEEE_clESJ_
FN:243,_ZZN2sb6TensorINS_3PcfIllEEEmIIS2_Q13CanSubtractToIT_S5_TL0__EEERS3_RKS5_ENKUlRS2_E_clESA_
FN:298,_ZN2sbmiINS_3PcfIllEES2_Q13CanSubtractToIT0_T_S3_EEENS_6TensorIS3_EERKS4_RKS6_
FN:1469,_ZN2sb6TensorINS_3PcfIllEEE5applyIZNS_miIS2_S2_Q13CanSubtractToIT0_T_S6_EEENS0_IS6_EERKS7_RKS8_EUlRS2_E_Qsr3stdE9invocableITL0__RS7_EEEvOS7_
FN:1470,_ZZN2sb6TensorINS_3PcfIllEEE5applyIZNS_miIS2_S2_Q13CanSubtractToIT0_T_S6_EEENS0_IS6_EERKS7_RKS8_EUlRS2_E_Qsr3stdE9invocableITL0__RS7_EEEvOS7_ENKUlRKSt6vectorImSaImEEE_clESM_
FN:300,_ZZN2sbmiINS_3PcfIllEES2_Q13CanSubtractToIT0_T_S3_EEENS_6TensorIS3_EERKS4_RKS6_ENKUlRS2_E_clESB_
FN:254,_ZNK2sb6TensorINS_3PcfIllEEEmiIlQ13CanSubtractToIT_S5_TL0__EEES3_RKS5_
FN:242,_ZN2sb6TensorINS_3PcfIllEEEmIIlQ13CanSubtractToIT_S5_TL0__EEERS3_RKS5_
FN:1469,_ZN2sb6TensorINS_3PcfIllEEE5applyIZNS3_mIIlQ13CanSubtractToIT_S6_TL0__EEERS3_RKS6_EUlRS2_E_Qsr3stdE9invocableIS7_RS6_EEEvOS6_
FN:1470,_ZZN2sb6TensorINS_3PcfIllEEE5applyIZNS3_mIIlQ13CanSubtractToIT_S6_TL0__EEERS3_RKS6_EUlRS2_E_Qsr3stdE9invocableIS7_RS6_EEEvOS6_ENKUlRKSt6vectorImSaImEEE_clESJ_
FN:243,_ZZN2sb6TensorINS_3PcfIllEEEmIIlQ13CanSubtractToIT_S5_TL0__EEERS3_RKS5_ENKUlRS2_E_clESA_
FN:298,_ZN2sbmiIlNS_3PcfIllEEQ13CanSubtractToIT0_T_S3_EEENS_6TensorIS3_EERKS4_RKS6_
FN:1469,_ZN2sb6TensorINS_3PcfIllEEE5applyIZNS_miIlS2_Q13CanSubtractToIT0_T_S6_EEENS0_IS6_EERKS7_RKS8_EUlRS2_E_Qsr3stdE9invocableITL0__RS7_EEEvOS7_
FN:1470,_ZZN2sb6TensorINS_3PcfIllEEE5applyIZNS_miIlS2_Q13CanSubtractToIT0_T_S6_EEENS0_IS6_EERKS7_RKS8_EUlRS2_E_Qsr3stdE9invocableITL0__RS7_EEEvOS7_ENKUlRKSt6vectorImSaImEEE_clESM_
FN:300,_ZZN2sbmiIlNS_3PcfIllEEQ13CanSubtractToIT0_T_S3_EEENS_6TensorIS3_EERKS4_RKS6_ENKUlRS2_E_clESB_
FN:210,_ZNK2sb6TensorINS_3PcfIllEEEmlIlQ13CanMultiplyToIT_S5_TL0__EEES3_RKS5_
FN:195,_ZN2sb6TensorINS_3PcfIllEEEmLIlQ13CanMultiplyToIT_S5_TL0__EEERS3_RKS5_
FN:1469,_ZN2sb6TensorINS_3PcfIllEEE5applyIZNS3_mLIlQ13CanMultiplyToIT_S6_TL0__EEERS3_RKS6_EUlRS2_E_Qsr3stdE9invocableIS7_RS6_EEEvOS6_
FN:1470,_ZZN2sb6TensorINS_3PcfIllEEE5applyIZNS3_mLIlQ13CanMultiplyToIT_S6_TL0__EEERS3_RKS6_EUlRS2_E_Qsr3stdE9invocableIS7_RS6_EEEvOS6_ENKUlRKSt6vectorImSaImEEE_clESJ_
FN:196,_ZZN2sb6TensorINS_3PcfIllEEEmLIlQ13CanMultiplyToIT_S5_TL0__EEERS3_RKS5_ENKUlRS2_E_clESA_
FN:273,_ZN2sbmlIlNS_3PcfIllEEQ13CanMultiplyToIT0_T_S3_EEENS_6TensorIS3_EERKS4_RKS6_
FN:1469,_ZN2sb6TensorINS_3PcfIllEEE5applyIZNS_mlIlS2_Q13CanMultiplyToIT0_T_S6_EEENS0_IS6_EERKS7_RKS8_EUlRS2_E_Qsr3stdE9invocableITL0__RS7_EEEvOS7_
FN:1470,_ZZN2sb6TensorINS_3PcfIllEEE5applyIZNS_mlIlS2_Q13CanMultiplyToIT0_T_S6_EEENS0_IS6_EERKS7_RKS8_EUlRS2_E_Qsr3stdE9invocableITL0__RS7_EEEvOS7_ENKUlRKSt6vectorImSaImEEE_clESM_
FN:275,_ZZN2sbmlIlNS_3PcfIllEEQ13CanMultiplyToIT0_T_S3_EEENS_6TensorIS3_EERKS4_RKS6_ENKUlRS2_E_clESB_
FN:185,_ZNK2sb6TensorINS_3PcfIllEEEdvIlQ11CanDivideToIT_S5_TL0__EEES3_RKS5_
FN:173,_ZN2sb6TensorINS_3PcfIllEEEdVIlQ11CanDivideToIT_S5_TL0__EEERS3_RKS5_
FN:1469,_ZN2sb6TensorINS_3PcfIllEEE5applyIZNS3_dVIlQ11CanDivideToIT_S6_TL0__EEERS3_RKS6_EUlRS2_E_Qsr3stdE9invocableIS7_RS6_EEEvOS6_
FN:1470,_ZZN2sb6TensorINS_3PcfIllEEE5applyIZNS3_dVIlQ11CanDivideToIT_S6_TL0__EEERS3_RKS6_EUlRS2_E_Qsr3stdE9invocableIS7_RS6_EEEvOS6_ENKUlRKSt6vectorImSaImEEE_clESJ_
FN:174,_ZZN2sb6TensorINS_3PcfIllEEEdVIlQ11CanDivideToIT_S5_TL0__EEERS3_RKS5_ENKUlRS2_E_clESA_
FN:309,_ZN2sbdvIlNS_3PcfIllEEQ11CanDivideToIT0_T_S3_EEENS_6TensorIS3_EERKS4_RKS6_
FN:1469,_ZN2sb6TensorINS_3PcfIllEEE5applyIZNS_dvIlS2_Q11CanDivideToIT0_T_S6_EEENS0_IS6_EERKS7_RKS8_EUlRS2_E_Qsr3stdE9invocableITL0__RS7_EEEvOS7_
FN:1470,_ZZN2sb6TensorINS_3PcfIllEEE5applyIZNS_dvIlS2_Q11CanDivideToIT0_T_S6_EEENS0_IS6_EERKS7_RKS8_EUlRS2_E_Qsr3stdE9invocableITL0__RS7_EEEvOS7_ENKUlRKSt6vectorImSaImEEE_clESM_
FN:311,_ZZN2sbdvIlNS_3PcfIllEEQ11CanDivideToIT0_T_S3_EEENS_6TensorIS3_EERKS4_RKS6_ENKUlRS2_E_clESB_
FN:331,_ZN2sb3powINS_3PcfIllEElQ6CanPowIT_T0_EEENS_6TensorIS3_EERKS6_S4_
FN:1469,_ZN2sb6TensorINS_3PcfIllEEE5applyIZNS_3powIS2_lQ6CanPowIT_T0_EEENS0_IS6_EERKS8_S7_EUlRS2_E_Qsr3stdE9invocableITL0__RS6_EEEvOS6_
FN:1470,_ZZN2sb6TensorINS_3PcfIllEEE5applyIZNS_3powIS2_lQ6CanPowIT_T0_EEENS0_IS6_EERKS8_S7_EUlRS2_E_Qsr3stdE9invocableITL0__RS6_EEEvOS6_ENKUlRKSt6vectorImSaImEEE_clESK_
FN:333,_ZZN2sb3powINS_3PcfIllEElQ6CanPowIT_T0_EEENS_6TensorIS3_EERKS6_S4_ENKUlRS2_E_clES9_
FN:1432,_ZNK2sb6TensorINS_3PcfIllEEE6any_ofIZZN5sb_py30register_typed_tensor_bindingsIS2_EEvRN8pybind117module_ERKNSt7__cxx1112basic_stringIcSt11char_traitsIcESaIcEEESH_ENKUlRKS3_lE7_clESJ_lEUlRKS2_E_Qsr3stdE9invocableITL0__RKT_EEEbOSP_
FN:1664,_ZN2sb6any_ofINS_3PcfIllEEZZN5sb_py30register_typed_tensor_bindingsIS2_EEvRN8pybind117module_ERKNSt7__cxx1112basic_stringIcSt11char_traitsIcESaIcEEESF_ENKUlRKNS_6TensorIS2_EElE7_clESJ_lEUlRKS2_E_Qsr3stdE9invocableIT0_RKT_EEEbRKNSG_ISP_EEOSO_
FN:1666,_ZZN2sb6any_ofINS_3PcfIllEEZZN5sb_py30register_typed_tensor_bindingsIS2_EEvRN8pybind117module_ERKNSt7__cxx1112basic_stringIcSt11char_traitsIcESaIcEEESF_ENKUlRKNS_6TensorIS2_EElE7_clESJ_lEUlRKS2_E_Qsr3stdE9invocableIT0_RKT_EEEbRKNSG_ISP_EEOSO_ENKUlRKSt6vectorImSaImEEE_clES10_
FN:350,_ZN2sb4ipowINS_3PcfIllEElQ6CanPowIT_T0_EEEvRNS_6TensorIS3_EES4_
FN:1469,_ZN2sb6TensorINS_3PcfIllEEE5applyIZNS_4ipowIS2_lQ6CanPowIT_T0_EEEvRNS0_IS6_EES7_EUlRS2_E_Qsr3stdE9invocableITL0__RS6_EEEvOS6_
FN:1470,_ZZN2sb6TensorINS_3PcfIllEEE5applyIZNS_4ipowIS2_lQ6CanPowIT_T0_EEEvRNS0_IS6_EES7_EUlRS2_E_Qsr3stdE9invocableITL0__RS6_EEEvOS6_ENKUlRKSt6vectorImSaImEEE_clESJ_
FN:351,_ZZN2sb4ipowINS_3PcfIllEElQ6CanPowIT_T0_EEEvRNS_6TensorIS3_EES4_ENKUlRS2_E_clES8_
FN:84,_ZNK2sb6TensorINS0_IfEEEixISt6vectorISt7variantIJNS_10SliceIndexENS_10SliceRangeEEESaIS8_EEEES2_T_
FN:1476,_ZNK2sb6TensorINS0_IfEEE7extractISt6vectorISt7variantIJNS_10SliceIndexENS_10SliceRangeEEESaIS8_EEEES2_T_
FN:1499,_ZZNK2sb6TensorINS0_IfEEE7extractISt6vectorISt7variantIJNS_10SliceIndexENS_10SliceRangeEEESaIS8_EEEES2_T_ENKUlOSB_E_clIRS6_EEDaSC_
FN:1499,_ZZNK2sb6TensorINS0_IfEEE7extractISt6vectorISt7variantIJNS_10SliceIndexENS_10SliceRangeEEESaIS8_EEEES2_T_ENKUlOSB_E_clIRS7_EEDaSC_
FN:128,_ZN2sb6TensorINS0_IfEEE11assign_fromIS1_Qsr3stdE18is_constructible_vIT_TL0__EEEvRKNS0_IS4_EE
FN:362,_ZNK2sb6TensorINS0_IfEEE12broadcast_toERKSt6vectorImSaImEE
FN:152,_ZZN2sb6TensorINS0_IfEEE11assign_fromIS1_Qsr3stdE18is_constructible_vIT_TL0__EEEvRKNS0_IS4_EEENKUlRKSt6vectorImSaImEEE_clESD_
FN:162,_ZZN2sb6TensorINS0_IfEEE11assign_fromIS1_Qsr3stdE18is_constructible_vIT_TL0__EEEvRKNS0_IS4_EEENKUlRKSt6vectorImSaImEEE0_clESD_
FN:486,_ZN2sb14elementwise_eqINS_6TensorIfEEQsr3stdE19equality_comparableIT_EEENS1_IbEERKNS1_IS3_EES7_
FN:418,_ZN2sb6detail15broadcast_binopINS_6TensorIfEEZNS_14elementwise_eqIS3_Qsr3stdE19equality_comparableIT_EEENS2_IbEERKNS2_IS5_EES9_EUlRKS3_SB_E_bEENS2_IT1_EES9_S9_T0_
FN:423,_ZZN2sb6detail15broadcast_binopINS_6TensorIfEEZNS_14elementwise_eqIS3_Qsr3stdE19equality_comparableIT_EEENS2_IbEERKNS2_IS5_EES9_EUlRKS3_SB_E_bEENS2_IT1_EES9_S9_T0_ENKUlRKSt6vectorImSaImEEE_clESK_
FN:486,_ZZN2sb14elementwise_eqINS_6TensorIfEEQsr3stdE19equality_comparableIT_EEENS1_IbEERKNS1_IS3_EES7_ENKUlRKS2_S9_E_clES9_S9_
FN:491,_ZN2sb14elementwise_neINS_6TensorIfEEQsr3stdE19equality_comparableIT_EEENS1_IbEERKNS1_IS3_EES7_
FN:418,_ZN2sb6detail15broadcast_binopINS_6TensorIfEEZNS_14elementwise_neIS3_Qsr3stdE19equality_comparableIT_EEENS2_IbEERKNS2_IS5_EES9_EUlRKS3_SB_E_bEENS2_IT1_EES9_S9_T0_
FN:423,_ZZN2sb6detail15broadcast_binopINS_6TensorIfEEZNS_14elementwise_neIS3_Qsr3stdE19equality_comparableIT_EEENS2_IbEERKNS2_IS5_EES9_EUlRKS3_SB_E_bEENS2_IT1_EES9_S9_T0_ENKUlRKSt6vectorImSaImEEE_clESK_
FN:491,_ZZN2sb14elementwise_neINS_6TensorIfEEQsr3stdE19equality_comparableIT_EEENS1_IbEERKNS1_IS3_EES7_ENKUlRKS2_S9_E_clES9_S9_
FN:70,_ZNK2sb6TensorIfEneIfQsr3stdE24equality_comparable_withITL0__T_EEEbRKNS0_IS4_EE
FN:1442,_ZNK2sb6TensorIfE10any_of_idxIZNKS1_neIfQsr3stdE24equality_comparable_withITL0__T_EEEbRKNS0_IS5_EEEUlRKSt6vectorImSaImEEE_Qsr3stdE9invocableIS4_SB_EEEbOS5_
FN:1445,_ZZNK2sb6TensorIfE10any_of_idxIZNKS1_neIfQsr3stdE24equality_comparable_withITL0__T_EEEbRKNS0_IS5_EEEUlRKSt6vectorImSaImEEE_Qsr3stdE9invocableIS4_SB_EEEbOS5_ENKUlSD_E_clESD_
FN:76,_ZZNK2sb6TensorIfEneIfQsr3stdE24equality_comparable_withITL0__T_EEEbRKNS0_IS4_EEENKUlRKSt6vectorImSaImEEE_clESC_
FN:53,_ZNK2sb6TensorINS0_IfEEEeqIS1_Qsr3stdE24equality_comparable_withITL0__T_EEEbRKNS0_IS5_EE
FN:60,_ZZNK2sb6TensorINS0_IfEEEeqIS1_Qsr3stdE24equality_comparable_withITL0__T_EEEbRKNS0_IS5_EEENKUlRKSt6vectorImSaImEEE_clESD_
FN:108,_ZN2sb6TensorINS0_IfEEEclEm
FN:1198,_ZNK2sb6TensorINS0_IfEEE4copyEv
FN:1201,_ZZNK2sb6TensorINS0_IfEEE4copyEvENKUlRKSt6vectorImSaImEEE_clES7_
FN:1210,_ZNK2sb6TensorINS0_IfEEE7flattenEv
FN:1229,_ZNK2sb6TensorINS0_IfEEE7reshapeERKSt6vectorIlSaIlEE
FN:1369,_ZNK2sb6TensorINS0_IfEEE9transposeERKSt6vectorImSaImEE
FN:1414,_ZNK2sb6TensorINS0_IfEEE8swapaxesEmm
FN:1294,_ZNK2sb6TensorINS0_IfEEE7squeezeEv
FN:1315,_ZNK2sb6TensorINS0_IfEEE7squeezeEm
FN:1343,_ZNK2sb6TensorINS0_IfEEE11expand_dimsEl
FN:933,_ZN2sb11concatenateINS_6TensorIfEEEENS1_IT_EERKSt6vectorIS4_SaIS4_EEm
FN:967,_ZZN2sb11concatenateINS_6TensorIfEEEENS1_IT_EERKSt6vectorIS4_SaIS4_EEmENKUlRKS5_ImSaImEEE_clESD_
FN:980,_ZN2sb5stackINS_6TensorIfEEEENS1_IT_EERKSt6vectorIS4_SaIS4_EEl
FN:1048,_ZN2sb5splitINS_6TensorIfEEEESt6vectorINS1_IT_EESaIS5_EERKS5_mm
FN:1011,_ZN2sb5splitINS_6TensorIfEEEESt6vectorINS1_IT_EESaIS5_EERKS5_RKS3_ImSaImEEm
FN:1075,_ZN2sb11array_splitINS_6TensorIfEEEESt6vectorINS1_IT_EESaIS5_EERKS5_mm
FN:262,_ZNK2sb6TensorINS0_IfEEEngEvQ9CanNegateIT_E
FN:1469,_ZN2sb6TensorINS0_IfEEE5applyIZNKS2_ngEvQ9CanNegateIT_EEUlRS1_E_Qsr3stdE9invocableITL0__RS4_EEEvOS4_
FN:1470,_ZZN2sb6TensorINS0_IfEEE5applyIZNKS2_ngEvQ9CanNegateIT_EEUlRS1_E_Qsr3stdE9invocableITL0__RS4_EEEvOS4_ENKUlRKSt6vectorImSaImEEE_clESE_
FN:264,_ZZNK2sb6TensorINS0_IfEEEngEvQ9CanNegateIT_EENKUlRS1_E_clES4_
FN:446,_ZNK2sb6TensorINS0_IfEEEplERKS2_
FN:418,_ZN2sb6detail15broadcast_binopINS_6TensorIfEEZNKS2_IS3_EplERKS4_EUlRKS3_S8_E_S3_EENS2_IT1_EERKNS2_IT_EESF_T0_
FN:423,_ZZN2sb6detail15broadcast_binopINS_6TensorIfEEZNKS2_IS3_EplERKS4_EUlRKS3_S8_E_S3_EENS2_IT1_EERKNS2_IT_EESF_T0_ENKUlRKSt6vectorImSaImEEE_clESL_
FN:446,_ZZNK2sb6TensorINS0_IfEEEplERKS2_ENKUlRKS1_S6_E_clES6_S6_
FN:467,_ZN2sb6TensorINS0_IfEEEpLERKS2_
FN:431,_ZN2sb6detail23broadcast_binop_inplaceINS_6TensorIfEEZNS2_IS3_EpLERKS4_EUlRKS3_S8_E_EERNS2_IT_EESC_RKSB_T0_
FN:437,_ZZN2sb6detail23broadcast_binop_inplaceINS_6TensorIfEEZNS2_IS3_EpLERKS4_EUlRKS3_S8_E_EERNS2_IT_EESC_RKSB_T0_ENKUlRKSt6vectorImSaImEEE_clESK_
FN:467,_ZZN2sb6TensorINS0_IfEEEpLERKS2_ENKUlRKS1_S6_E_clES6_S6_
FN:450,_ZNK2sb6TensorINS0_IfEEEmiERKS2_
FN:418,_ZN2sb6detail15broadcast_binopINS_6TensorIfEEZNKS2_IS3_EmiERKS4_EUlRKS3_S8_E_S3_EENS2_IT1_EERKNS2_IT_EESF_T0_
FN:423,_ZZN2sb6detail15broadcast_binopINS_6TensorIfEEZNKS2_IS3_EmiERKS4_EUlRKS3_S8_E_S3_EENS2_IT1_EERKNS2_IT_EESF_T0_ENKUlRKSt6vectorImSaImEEE_clESL_
FN:450,_ZZNK2sb6TensorINS0_IfEEEmiERKS2_ENKUlRKS1_S6_E_clES6_S6_
FN:471,_ZN2sb6TensorINS0_IfEEEmIERKS2_
FN:431,_ZN2sb6detail23broadcast_binop_inplaceINS_6TensorIfEEZNS2_IS3_EmIERKS4_EUlRKS3_S8_E_EERNS2_IT_EESC_RKSB_T0_
FN:437,_ZZN2sb6detail23broadcast_binop_inplaceINS_6TensorIfEEZNS2_IS3_EmIERKS4_EUlRKS3_S8_E_EERNS2_IT_EESC_RKSB_T0_ENKUlRKSt6vectorImSaImEEE_clESK_
FN:471,_ZZN2sb6TensorINS0_IfEEEmIERKS2_ENKUlRKS1_S6_E_clES6_S6_
FN:454,_ZNK2sb6TensorINS0_IfEEEmlERKS2_
FN:418,_ZN2sb6detail15broadcast_binopINS_6TensorIfEEZNKS2_IS3_EmlERKS4_EUlRKS3_S8_E_S3_EENS2_IT1_EERKNS2_IT_EESF_T0_
FN:423,_ZZN2sb6detail15broadcast_binopINS_6TensorIfEEZNKS2_IS3_EmlERKS4_EUlRKS3_S8_E_S3_EENS2_IT1_EERKNS2_IT_EESF_T0_ENKUlRKSt6vectorImSaImEEE_clESL_
FN:458,_ZZNK2sb6TensorINS0_IfEEEmlERKS2_ENKUlRKS1_S6_E_clES6_S6_
FN:475,_ZN2sb6TensorINS0_IfEEEmLERKS2_
FN:431,_ZN2sb6detail23broadcast_binop_inplaceINS_6TensorIfEEZNS2_IS3_EmLERKS4_EUlRKS3_S8_E_EERNS2_IT_EESC_RKSB_T0_
FN:437,_ZZN2sb6detail23broadcast_binop_inplaceINS_6TensorIfEEZNS2_IS3_EmLERKS4_EUlRKS3_S8_E_EERNS2_IT_EESC_RKSB_T0_ENKUlRKSt6vectorImSaImEEE_clESK_
FN:475,_ZZN2sb6TensorINS0_IfEEEmLERKS2_ENKUlRKS1_S6_E_clES6_S6_
FN:463,_ZNK2sb6TensorINS0_IfEEEdvERKS2_
FN:418,_ZN2sb6detail15broadcast_binopINS_6TensorIfEEZNKS2_IS3_EdvERKS4_EUlRKS3_S8_E_S3_EENS2_IT1_EERKNS2_IT_EESF_T0_
FN:423,_ZZN2sb6detail15broadcast_binopINS_6TensorIfEEZNKS2_IS3_EdvERKS4_EUlRKS3_S8_E_S3_EENS2_IT1_EERKNS2_IT_EESF_T0_ENKUlRKSt6vectorImSaImEEE_clESL_
FN:463,_ZZNK2sb6TensorINS0_IfEEEdvERKS2_ENKUlRKS1_S6_E_clES6_S6_
FN:479,_ZN2sb6TensorINS0_IfEEEdVERKS2_
FN:431,_ZN2sb6detail23broadcast_binop_inplaceINS_6TensorIfEEZNS2_IS3_EdVERKS4_EUlRKS3_S8_E_EERNS2_IT_EESC_RKSB_T0_
FN:437,_ZZN2sb6detail23broadcast_binop_inplaceINS_6TensorIfEEZNS2_IS3_EdVERKS4_EUlRKS3_S8_E_EERNS2_IT_EESC_RKSB_T0_ENKUlRKSt6vectorImSaImEEE_clESK_
FN:479,_ZZN2sb6TensorINS0_IfEEEdVERKS2_ENKUlRKS1_S6_E_clES6_S6_
FN:519,_ZN2sb13masked_selectINS_6TensorIfEEEENS1_IT_EERKS4_RKNS1_IbEE
FN:528,_ZZN2sb13masked_selectINS_6TensorIfEEEENS1_IT_EERKS4_RKNS1_IbEEENKUlRKSt6vectorImSaImEEE_clESE_
FN:546,_ZN2sb13masked_assignINS_6TensorIfEEEEvRNS1_IT_EERKNS1_IbEERKS4_
FN:554,_ZZN2sb13masked_assignINS_6TensorIfEEEEvRNS1_IT_EERKNS1_IbEERKS4_ENKUlRKSt6vectorImSaImEEE_clESF_
FN:102,_ZNK2sb6TensorINS0_IfEEEclEm
FN:1188,_ZNK2sb6TensorINS0_IfEEE4sizeEv
FN:576,_ZN2sb11masked_fillINS_6TensorIfEEEEvRNS1_IT_EERKNS1_IbEERKS3_
FN:583,_ZZN2sb11masked_fillINS_6TensorIfEEEEvRNS1_IT_EERKNS1_IbEERKS3_ENKUlRKSt6vectorImSaImEEE_clESF_
FN:620,_ZN2sb11axis_selectINS_6TensorIfEEEENS1_IT_EERKS4_mRKNS1_IbEE
FN:634,_ZZN2sb11axis_selectINS_6TensorIfEEEENS1_IT_EERKS4_mRKNS1_IbEEENKUlRKSt6vectorImSaImEEE_clESE_
FN:645,_ZN2sb11axis_assignINS_6TensorIfEEEEvRNS1_IT_EEmRKNS1_IbEERKS4_
FN:659,_ZZN2sb11axis_assignINS_6TensorIfEEEEvRNS1_IT_EEmRKNS1_IbEERKS4_ENKUlRKSt6vectorImSaImEEE_clESF_
